TMS320C2000 Assembler PC v15.12.1 Sun May 28 10:39:54 2017

Tools Copyright (c) 1996-2015 Texas Instruments Incorporated
F2837xD_sdfm_drivers.asm                                             PAGE    1

       1              ;***************************************************************
       2              ;* TMS320C2000 C/C++ Codegen                   PC v15.12.1.LTS *
       3              ;* Date/Time created: Sun May 28 10:39:53 2017                 *
       4              ;***************************************************************
       5                      .compiler_opts --abi=coffabi --cla_support=cla0 --float_support=fpu32 --hll_source=on --mem_model:cod
       6        0002  FP      .set    XAR2
       7              
       8              $C$DW$CU        .dwtag  DW_TAG_compile_unit
       9                      .dwattr $C$DW$CU, DW_AT_name("C:/ti/controlSUITE/device_support/F2837xD/v170/F2837xD_common/source/F2
      10                      .dwattr $C$DW$CU, DW_AT_producer("TI TMS320C2000 C/C++ Codegen PC v15.12.1.LTS Copyright (c) 1996-201
      11                      .dwattr $C$DW$CU, DW_AT_TI_version(0x01)
      12                      .dwattr $C$DW$CU, DW_AT_comp_dir("C:\Users\Keith\Documents\GitHub\ElectricSkateboard\Software\IDDK_PM
      13              $C$DW$1 .dwtag  DW_TAG_variable
      14                      .dwattr $C$DW$1, DW_AT_name("SDFM")
      15                      .dwattr $C$DW$1, DW_AT_TI_symbol_name("_SDFM")
      16                      .dwattr $C$DW$1, DW_AT_type(*$C$DW$T$91)
      17                      .dwattr $C$DW$1, DW_AT_declaration
      18                      .dwattr $C$DW$1, DW_AT_external
      19              
      20              ;       C:\ti\ccsv6\tools\compiler\ti-cgt-c2000_15.12.1.LTS\bin\opt2000.exe C:\\Users\\Keith\\AppData\\Local\
      21              ;       C:\ti\ccsv6\tools\compiler\ti-cgt-c2000_15.12.1.LTS\bin\ac2000.exe -@C:\\Users\\Keith\\AppData\\Local
      22 00000000               .sect   ".text"
      23                      .clink
      24                      .global _Sdfm_configureInputCtrl
      25              
      26              $C$DW$2 .dwtag  DW_TAG_subprogram
      27                      .dwattr $C$DW$2, DW_AT_name("Sdfm_configureInputCtrl")
      28                      .dwattr $C$DW$2, DW_AT_low_pc(_Sdfm_configureInputCtrl)
      29                      .dwattr $C$DW$2, DW_AT_high_pc(0x00)
      30                      .dwattr $C$DW$2, DW_AT_TI_symbol_name("_Sdfm_configureInputCtrl")
      31                      .dwattr $C$DW$2, DW_AT_external
      32                      .dwattr $C$DW$2, DW_AT_TI_begin_file("C:/ti/controlSUITE/device_support/F2837xD/v170/F2837xD_common/s
      33                      .dwattr $C$DW$2, DW_AT_TI_begin_line(0x20)
      34                      .dwattr $C$DW$2, DW_AT_TI_begin_column(0x06)
      35                      .dwattr $C$DW$2, DW_AT_TI_max_frame_size(-2)
      36                      .dwpsn  file "C:/ti/controlSUITE/device_support/F2837xD/v170/F2837xD_common/source/F2837xD_sdfm_drive
      37              
      38                      .dwfde $C$DW$CIE, _Sdfm_configureInputCtrl
      39              $C$DW$3 .dwtag  DW_TAG_formal_parameter
      40                      .dwattr $C$DW$3, DW_AT_name("sdfmNumber")
      41                      .dwattr $C$DW$3, DW_AT_TI_symbol_name("_sdfmNumber")
      42                      .dwattr $C$DW$3, DW_AT_type(*$C$DW$T$19)
      43                      .dwattr $C$DW$3, DW_AT_location[DW_OP_reg0]
      44              
      45              $C$DW$4 .dwtag  DW_TAG_formal_parameter
      46                      .dwattr $C$DW$4, DW_AT_name("filterNumber")
      47                      .dwattr $C$DW$4, DW_AT_TI_symbol_name("_filterNumber")
      48                      .dwattr $C$DW$4, DW_AT_type(*$C$DW$T$19)
      49                      .dwattr $C$DW$4, DW_AT_location[DW_OP_reg1]
      50              
      51              $C$DW$5 .dwtag  DW_TAG_formal_parameter
      52                      .dwattr $C$DW$5, DW_AT_name("mode")
      53                      .dwattr $C$DW$5, DW_AT_TI_symbol_name("_mode")
      54                      .dwattr $C$DW$5, DW_AT_type(*$C$DW$T$19)
      55                      .dwattr $C$DW$5, DW_AT_location[DW_OP_reg12]
TMS320C2000 Assembler PC v15.12.1 Sun May 28 10:39:54 2017

Tools Copyright (c) 1996-2015 Texas Instruments Incorporated
F2837xD_sdfm_drivers.asm                                             PAGE    2

      56              
      57              
      58              ;***************************************************************
      59              ;* FNAME: _Sdfm_configureInputCtrl      FR SIZE:   0           *
      60              ;*                                                             *
      61              ;* FUNCTION ENVIRONMENT                                        *
      62              ;*                                                             *
      63              ;* FUNCTION PROPERTIES                                         *
      64              ;*                            0 Parameter,  0 Auto,  0 SOE     *
      65              ;***************************************************************
      66              
      67              _Sdfm_configureInputCtrl:
      68              ;* AR5   assigned to $O$C1
      69              ;* AR5   assigned to $O$C2
      70              ;* AR5   assigned to $O$C3
      71              ;* AR5   assigned to $O$C4
      72              ;* AR4   assigned to _mode
      73              $C$DW$6 .dwtag  DW_TAG_variable
      74                      .dwattr $C$DW$6, DW_AT_name("mode")
      75                      .dwattr $C$DW$6, DW_AT_TI_symbol_name("_mode")
      76                      .dwattr $C$DW$6, DW_AT_type(*$C$DW$T$101)
      77                      .dwattr $C$DW$6, DW_AT_location[DW_OP_reg12]
      78              
      79                      .dwcfi  cfa_offset, -2
      80                      .dwcfi  save_reg_to_mem, 26, 0
      81 00000000 7622   EALLOW
      82                      .dwpsn  file "C:/ti/controlSUITE/device_support/F2837xD/v170/F2837xD_common/source/F2837xD_sdfm_drive
      83 00000001 5301          CMPB      AH,#1                 ; [CPU_] |37| 
      84 00000002 613A          B         $C$L3,EQ              ; [CPU_] |37| 
      85                      ; branchcc occurs ; [] |37| 
      86 00000003 5302          CMPB      AH,#2                 ; [CPU_] |37| 
      87 00000004 6127          B         $C$L2,EQ              ; [CPU_] |37| 
      88                      ; branchcc occurs ; [] |37| 
      89 00000005 5304          CMPB      AH,#4                 ; [CPU_] |37| 
      90 00000006 6114          B         $C$L1,EQ              ; [CPU_] |37| 
      91                      ; branchcc occurs ; [] |37| 
      92 00000007 5308          CMPB      AH,#8                 ; [CPU_] |37| 
      93 00000008 6044          B         $C$L4,NEQ             ; [CPU_] |37| 
      94                      ; branchcc occurs ; [] |37| 
      95 00000009 2901          CLRC      SXM                   ; [CPU_] 
      96                      .dwpsn  file "C:/ti/controlSUITE/device_support/F2837xD/v170/F2837xD_common/source/F2837xD_sdfm_drive
      97 0000000a 8F40!         MOVL      XAR5,#_SDFM           ; [CPU_U] |52| 
         0000000b 0000 
      98 0000000c 5603          MOV       ACC,AL << 1           ; [CPU_] |52| 
         0000000d 01A9 
      99 0000000e 5601          ADDL      XAR5,ACC              ; [CPU_] |52| 
         0000000f 00A5 
     100 00000010 83C5          MOVL      XAR5,*+XAR5[0]        ; [CPU_] |52| 
     101 00000011 D040          MOVB      XAR0,#64              ; [CPU_] |52| 
     102 00000012 CCA4          AND       AL,AR4,#0x0003        ; [CPU_] |52| 
         00000013 0003 
     103 00000014 CD95          AND       AH,*+XAR5[AR0],#0xfffc ; [CPU_] |52| 
         00000015 FFFC 
     104 00000016 D040          MOVB      XAR0,#64              ; [CPU_] |52| 
     105 00000017 CAA8          OR        AL,AH                 ; [CPU_] |52| 
TMS320C2000 Assembler PC v15.12.1 Sun May 28 10:39:54 2017

Tools Copyright (c) 1996-2015 Texas Instruments Incorporated
F2837xD_sdfm_drivers.asm                                             PAGE    3

     106 00000018 9695          MOV       *+XAR5[AR0],AL        ; [CPU_] |52| 
     107                      .dwpsn  file "C:/ti/controlSUITE/device_support/F2837xD/v170/F2837xD_common/source/F2837xD_sdfm_drive
     108 00000019 6F33          B         $C$L4,UNC             ; [CPU_] |53| 
     109                      ; branch occurs ; [] |53| 
     110 0000001a       $C$L1:    
     111 0000001a 2901          CLRC      SXM                   ; [CPU_] 
     112                      .dwpsn  file "C:/ti/controlSUITE/device_support/F2837xD/v170/F2837xD_common/source/F2837xD_sdfm_drive
     113 0000001b 8F40!         MOVL      XAR5,#_SDFM           ; [CPU_U] |48| 
         0000001c 0000 
     114 0000001d 5603          MOV       ACC,AL << 1           ; [CPU_] |48| 
         0000001e 01A9 
     115 0000001f 5601          ADDL      XAR5,ACC              ; [CPU_] |48| 
         00000020 00A5 
     116 00000021 83C5          MOVL      XAR5,*+XAR5[0]        ; [CPU_] |48| 
     117 00000022 D030          MOVB      XAR0,#48              ; [CPU_] |48| 
     118 00000023 CCA4          AND       AL,AR4,#0x0003        ; [CPU_] |48| 
         00000024 0003 
     119 00000025 CD95          AND       AH,*+XAR5[AR0],#0xfffc ; [CPU_] |48| 
         00000026 FFFC 
     120 00000027 D030          MOVB      XAR0,#48              ; [CPU_] |48| 
     121 00000028 CAA8          OR        AL,AH                 ; [CPU_] |48| 
     122 00000029 9695          MOV       *+XAR5[AR0],AL        ; [CPU_] |48| 
     123                      .dwpsn  file "C:/ti/controlSUITE/device_support/F2837xD/v170/F2837xD_common/source/F2837xD_sdfm_drive
     124 0000002a 6F22          B         $C$L4,UNC             ; [CPU_] |49| 
     125                      ; branch occurs ; [] |49| 
     126 0000002b       $C$L2:    
     127 0000002b 2901          CLRC      SXM                   ; [CPU_] 
     128                      .dwpsn  file "C:/ti/controlSUITE/device_support/F2837xD/v170/F2837xD_common/source/F2837xD_sdfm_drive
     129 0000002c 8F40!         MOVL      XAR5,#_SDFM           ; [CPU_U] |44| 
         0000002d 0000 
     130 0000002e 5603          MOV       ACC,AL << 1           ; [CPU_] |44| 
         0000002f 01A9 
     131 00000030 5601          ADDL      XAR5,ACC              ; [CPU_] |44| 
         00000031 00A5 
     132 00000032 83C5          MOVL      XAR5,*+XAR5[0]        ; [CPU_] |44| 
     133 00000033 D020          MOVB      XAR0,#32              ; [CPU_] |44| 
     134 00000034 CCA4          AND       AL,AR4,#0x0003        ; [CPU_] |44| 
         00000035 0003 
     135 00000036 CD95          AND       AH,*+XAR5[AR0],#0xfffc ; [CPU_] |44| 
         00000037 FFFC 
     136 00000038 D020          MOVB      XAR0,#32              ; [CPU_] |44| 
     137 00000039 CAA8          OR        AL,AH                 ; [CPU_] |44| 
     138 0000003a 9695          MOV       *+XAR5[AR0],AL        ; [CPU_] |44| 
     139                      .dwpsn  file "C:/ti/controlSUITE/device_support/F2837xD/v170/F2837xD_common/source/F2837xD_sdfm_drive
     140 0000003b 6F11          B         $C$L4,UNC             ; [CPU_] |45| 
     141                      ; branch occurs ; [] |45| 
     142 0000003c       $C$L3:    
     143 0000003c 2901          CLRC      SXM                   ; [CPU_] 
     144                      .dwpsn  file "C:/ti/controlSUITE/device_support/F2837xD/v170/F2837xD_common/source/F2837xD_sdfm_drive
     145 0000003d 8F40!         MOVL      XAR5,#_SDFM           ; [CPU_U] |40| 
         0000003e 0000 
     146 0000003f 5603          MOV       ACC,AL << 1           ; [CPU_] |40| 
         00000040 01A9 
     147 00000041 5601          ADDL      XAR5,ACC              ; [CPU_] |40| 
         00000042 00A5 
TMS320C2000 Assembler PC v15.12.1 Sun May 28 10:39:54 2017

Tools Copyright (c) 1996-2015 Texas Instruments Incorporated
F2837xD_sdfm_drivers.asm                                             PAGE    4

     148 00000043 83C5          MOVL      XAR5,*+XAR5[0]        ; [CPU_] |40| 
     149 00000044 D010          MOVB      XAR0,#16              ; [CPU_] |40| 
     150 00000045 CCA4          AND       AL,AR4,#0x0003        ; [CPU_] |40| 
         00000046 0003 
     151 00000047 CD95          AND       AH,*+XAR5[AR0],#0xfffc ; [CPU_] |40| 
         00000048 FFFC 
     152 00000049 D010          MOVB      XAR0,#16              ; [CPU_] |40| 
     153 0000004a CAA8          OR        AL,AH                 ; [CPU_] |40| 
     154 0000004b 9695          MOV       *+XAR5[AR0],AL        ; [CPU_] |40| 
     155 0000004c       $C$L4:    
     156 0000004c 761A   EDIS
     157 0000004d FF69          SPM       #0                    ; [CPU_] 
     158              $C$DW$7 .dwtag  DW_TAG_TI_branch
     159                      .dwattr $C$DW$7, DW_AT_low_pc(0x00)
     160                      .dwattr $C$DW$7, DW_AT_TI_return
     161              
     162 0000004e 0006          LRETR     ; [CPU_] 
     163                      ; return occurs ; [] 
     164                      .dwattr $C$DW$2, DW_AT_TI_end_file("C:/ti/controlSUITE/device_support/F2837xD/v170/F2837xD_common/sou
     165                      .dwattr $C$DW$2, DW_AT_TI_end_line(0x39)
     166                      .dwattr $C$DW$2, DW_AT_TI_end_column(0x01)
     167                      .dwendentry
     168                      .dwendtag $C$DW$2
     169              
     170 0000004f               .sect   ".text"
     171                      .clink
     172                      .global _Sdfm_configureComparator
     173              
     174              $C$DW$8 .dwtag  DW_TAG_subprogram
     175                      .dwattr $C$DW$8, DW_AT_name("Sdfm_configureComparator")
     176                      .dwattr $C$DW$8, DW_AT_low_pc(_Sdfm_configureComparator)
     177                      .dwattr $C$DW$8, DW_AT_high_pc(0x00)
     178                      .dwattr $C$DW$8, DW_AT_TI_symbol_name("_Sdfm_configureComparator")
     179                      .dwattr $C$DW$8, DW_AT_external
     180                      .dwattr $C$DW$8, DW_AT_TI_begin_file("C:/ti/controlSUITE/device_support/F2837xD/v170/F2837xD_common/s
     181                      .dwattr $C$DW$8, DW_AT_TI_begin_line(0x4e)
     182                      .dwattr $C$DW$8, DW_AT_TI_begin_column(0x06)
     183                      .dwattr $C$DW$8, DW_AT_TI_max_frame_size(-4)
     184                      .dwpsn  file "C:/ti/controlSUITE/device_support/F2837xD/v170/F2837xD_common/source/F2837xD_sdfm_drive
     185              
     186                      .dwfde $C$DW$CIE, _Sdfm_configureComparator
     187              $C$DW$9 .dwtag  DW_TAG_formal_parameter
     188                      .dwattr $C$DW$9, DW_AT_name("sdfmNumber")
     189                      .dwattr $C$DW$9, DW_AT_TI_symbol_name("_sdfmNumber")
     190                      .dwattr $C$DW$9, DW_AT_type(*$C$DW$T$19)
     191                      .dwattr $C$DW$9, DW_AT_location[DW_OP_reg0]
     192              
     193              $C$DW$10        .dwtag  DW_TAG_formal_parameter
     194                      .dwattr $C$DW$10, DW_AT_name("filterNumber")
     195                      .dwattr $C$DW$10, DW_AT_TI_symbol_name("_filterNumber")
     196                      .dwattr $C$DW$10, DW_AT_type(*$C$DW$T$19)
     197                      .dwattr $C$DW$10, DW_AT_location[DW_OP_reg1]
     198              
     199              $C$DW$11        .dwtag  DW_TAG_formal_parameter
     200                      .dwattr $C$DW$11, DW_AT_name("filterType")
TMS320C2000 Assembler PC v15.12.1 Sun May 28 10:39:54 2017

Tools Copyright (c) 1996-2015 Texas Instruments Incorporated
F2837xD_sdfm_drivers.asm                                             PAGE    5

     201                      .dwattr $C$DW$11, DW_AT_TI_symbol_name("_filterType")
     202                      .dwattr $C$DW$11, DW_AT_type(*$C$DW$T$19)
     203                      .dwattr $C$DW$11, DW_AT_location[DW_OP_reg12]
     204              
     205              $C$DW$12        .dwtag  DW_TAG_formal_parameter
     206                      .dwattr $C$DW$12, DW_AT_name("OSR")
     207                      .dwattr $C$DW$12, DW_AT_TI_symbol_name("_OSR")
     208                      .dwattr $C$DW$12, DW_AT_type(*$C$DW$T$19)
     209                      .dwattr $C$DW$12, DW_AT_location[DW_OP_reg14]
     210              
     211              $C$DW$13        .dwtag  DW_TAG_formal_parameter
     212                      .dwattr $C$DW$13, DW_AT_name("HLT")
     213                      .dwattr $C$DW$13, DW_AT_TI_symbol_name("_HLT")
     214                      .dwattr $C$DW$13, DW_AT_type(*$C$DW$T$19)
     215                      .dwattr $C$DW$13, DW_AT_location[DW_OP_breg20 -5]
     216              
     217              $C$DW$14        .dwtag  DW_TAG_formal_parameter
     218                      .dwattr $C$DW$14, DW_AT_name("LLT")
     219                      .dwattr $C$DW$14, DW_AT_TI_symbol_name("_LLT")
     220                      .dwattr $C$DW$14, DW_AT_type(*$C$DW$T$19)
     221                      .dwattr $C$DW$14, DW_AT_location[DW_OP_breg20 -6]
     222              
     223              
     224              ;***************************************************************
     225              ;* FNAME: _Sdfm_configureComparator     FR SIZE:   2           *
     226              ;*                                                             *
     227              ;* FUNCTION ENVIRONMENT                                        *
     228              ;*                                                             *
     229              ;* FUNCTION PROPERTIES                                         *
     230              ;*                            0 Parameter,  0 Auto,  2 SOE     *
     231              ;***************************************************************
     232              
     233              _Sdfm_configureComparator:
     234              ;* AR4   assigned to $O$C1
     235              ;* AR4   assigned to $O$C2
     236              ;* AR6   assigned to $O$C3
     237              ;* AR4   assigned to $O$C4
     238              ;* AR4   assigned to $O$C5
     239              ;* AR6   assigned to $O$C6
     240              ;* AR4   assigned to $O$C7
     241              ;* AR4   assigned to $O$C8
     242              ;* AR6   assigned to $O$C9
     243              ;* AR4   assigned to $O$C10
     244              ;* AR4   assigned to $O$C11
     245              ;* AR6   assigned to $O$C12
     246              ;* AR7   assigned to _sdfmNumber
     247              $C$DW$15        .dwtag  DW_TAG_variable
     248                      .dwattr $C$DW$15, DW_AT_name("sdfmNumber")
     249                      .dwattr $C$DW$15, DW_AT_TI_symbol_name("_sdfmNumber")
     250                      .dwattr $C$DW$15, DW_AT_type(*$C$DW$T$101)
     251                      .dwattr $C$DW$15, DW_AT_location[DW_OP_reg18]
     252              
     253              ;* AH    assigned to _filterNumber
     254              $C$DW$16        .dwtag  DW_TAG_variable
     255                      .dwattr $C$DW$16, DW_AT_name("filterNumber")
TMS320C2000 Assembler PC v15.12.1 Sun May 28 10:39:54 2017

Tools Copyright (c) 1996-2015 Texas Instruments Incorporated
F2837xD_sdfm_drivers.asm                                             PAGE    6

     256                      .dwattr $C$DW$16, DW_AT_TI_symbol_name("_filterNumber")
     257                      .dwattr $C$DW$16, DW_AT_type(*$C$DW$T$101)
     258                      .dwattr $C$DW$16, DW_AT_location[DW_OP_reg1]
     259              
     260              ;* AR4   assigned to _filterType
     261              $C$DW$17        .dwtag  DW_TAG_variable
     262                      .dwattr $C$DW$17, DW_AT_name("filterType")
     263                      .dwattr $C$DW$17, DW_AT_TI_symbol_name("_filterType")
     264                      .dwattr $C$DW$17, DW_AT_type(*$C$DW$T$101)
     265                      .dwattr $C$DW$17, DW_AT_location[DW_OP_reg12]
     266              
     267              ;* AR5   assigned to _OSR
     268              $C$DW$18        .dwtag  DW_TAG_variable
     269                      .dwattr $C$DW$18, DW_AT_name("OSR")
     270                      .dwattr $C$DW$18, DW_AT_TI_symbol_name("_OSR")
     271                      .dwattr $C$DW$18, DW_AT_type(*$C$DW$T$101)
     272                      .dwattr $C$DW$18, DW_AT_location[DW_OP_reg14]
     273              
     274              ;* PH    assigned to _HLT
     275              $C$DW$19        .dwtag  DW_TAG_variable
     276                      .dwattr $C$DW$19, DW_AT_name("HLT")
     277                      .dwattr $C$DW$19, DW_AT_TI_symbol_name("_HLT")
     278                      .dwattr $C$DW$19, DW_AT_type(*$C$DW$T$101)
     279                      .dwattr $C$DW$19, DW_AT_location[DW_OP_reg3]
     280              
     281              ;* PL    assigned to _LLT
     282              $C$DW$20        .dwtag  DW_TAG_variable
     283                      .dwattr $C$DW$20, DW_AT_name("LLT")
     284                      .dwattr $C$DW$20, DW_AT_TI_symbol_name("_LLT")
     285                      .dwattr $C$DW$20, DW_AT_type(*$C$DW$T$101)
     286                      .dwattr $C$DW$20, DW_AT_location[DW_OP_reg2]
     287              
     288                      .dwcfi  cfa_offset, -2
     289                      .dwcfi  save_reg_to_mem, 26, 0
     290 0000004f B2BD          MOVL      *SP++,XAR1            ; [CPU_] 
     291                      .dwcfi  save_reg_to_mem, 7, 2
     292                      .dwcfi  cfa_offset, -4
     293 00000050 80A9          MOVZ      AR7,AL                ; [CPU_] |79| 
     294 00000051 2746          MOV       PL,*-SP[6]            ; [CPU_] |79| 
     295 00000052 2F45          MOV       PH,*-SP[5]            ; [CPU_] |79| 
     296 00000053 7622   EALLOW
     297                      .dwpsn  file "C:/ti/controlSUITE/device_support/F2837xD/v170/F2837xD_common/source/F2837xD_sdfm_drive
     298 00000054 92A8          MOV       AL,AH                 ; [CPU_] |83| 
     299 00000055 5201          CMPB      AL,#1                 ; [CPU_] |83| 
     300 00000056 FFE1          B         $C$L13,EQ             ; [CPU_] |83| 
         00000057 00C8 
     301                      ; branchcc occurs ; [] |83| 
     302 00000058 5202          CMPB      AL,#2                 ; [CPU_] |83| 
     303 00000059 FFE1          B         $C$L10,EQ             ; [CPU_] |83| 
         0000005a 0086 
     304                      ; branchcc occurs ; [] |83| 
     305 0000005b 5204          CMPB      AL,#4                 ; [CPU_] |83| 
     306 0000005c 6144          B         $C$L7,EQ              ; [CPU_] |83| 
     307                      ; branchcc occurs ; [] |83| 
     308 0000005d 5208          CMPB      AL,#8                 ; [CPU_] |83| 
TMS320C2000 Assembler PC v15.12.1 Sun May 28 10:39:54 2017

Tools Copyright (c) 1996-2015 Texas Instruments Incorporated
F2837xD_sdfm_drivers.asm                                             PAGE    7

     309 0000005e FFE0          B         $C$L16,NEQ            ; [CPU_] |83| 
         0000005f 00FE 
     310                      ; branchcc occurs ; [] |83| 
     311 00000060 2901          CLRC      SXM                   ; [CPU_] 
     312                      .dwpsn  file "C:/ti/controlSUITE/device_support/F2837xD/v170/F2837xD_common/source/F2837xD_sdfm_drive
     313 00000061 7680!         MOVL      XAR6,#_SDFM           ; [CPU_U] |124| 
         00000062 0000 
     314 00000063 5603          MOV       ACC,AR7 << 1          ; [CPU_] |124| 
         00000064 01A7 
     315 00000065 5601          ADDL      XAR6,ACC              ; [CPU_] |124| 
         00000066 00A6 
     316 00000067 C4C6          MOVL      XAR6,*+XAR6[0]        ; [CPU_] |124| 
     317 00000068 CDA4          AND       AH,AR4,#0x0003        ; [CPU_] |124| 
         00000069 0003 
     318 0000006a D045          MOVB      XAR0,#69              ; [CPU_] |124| 
     319 0000006b FF96          LSL       AH,7                  ; [CPU_] |124| 
     320 0000006c CC96          AND       AL,*+XAR6[AR0],#0xfe7f ; [CPU_] |124| 
         0000006d FE7F 
     321 0000006e D045          MOVB      XAR0,#69              ; [CPU_] |124| 
     322 0000006f CBA9          OR        AH,AL                 ; [CPU_] |124| 
     323 00000070 9796          MOV       *+XAR6[AR0],AH        ; [CPU_] |124| 
     324 00000071 93A5          MOV       AH,AR5                ; [CPU_] |124| 
     325                      .dwpsn  file "C:/ti/controlSUITE/device_support/F2837xD/v170/F2837xD_common/source/F2837xD_sdfm_drive
     326 00000072 5320          CMPB      AH,#32                ; [CPU_] |127| 
     327 00000073 6905          B         $C$L5,LOS             ; [CPU_] |127| 
     328                      ; branchcc occurs ; [] |127| 
     329                      .dwpsn  file "C:/ti/controlSUITE/device_support/F2837xD/v170/F2837xD_common/source/F2837xD_sdfm_drive
     330 00000074 DE45          ADDB      XAR6,#69              ; [CPU_] |128| 
     331 00000075 18C6          AND       *+XAR6[0],#0xffe0     ; [CPU_] |128| 
         00000076 FFE0 
     332 00000077 6F10          B         $C$L6,UNC             ; [CPU_] |128| 
     333                      ; branch occurs ; [] |128| 
     334 00000078       $C$L5:    
     335                      .dwpsn  file "C:/ti/controlSUITE/device_support/F2837xD/v170/F2837xD_common/source/F2837xD_sdfm_drive
     336 00000078 5603          MOV       ACC,AR7 << 1          ; [CPU_] |127| 
         00000079 01A7 
     337 0000007a 8F00!         MOVL      XAR4,#_SDFM           ; [CPU_U] |127| 
         0000007b 0000 
     338 0000007c 5601          ADDL      XAR4,ACC              ; [CPU_] |127| 
         0000007d 00A4 
     339 0000007e 8AC4          MOVL      XAR4,*+XAR4[0]        ; [CPU_] |127| 
     340 0000007f 93A5          MOV       AH,AR5                ; [CPU_] |127| 
     341 00000080 D045          MOVB      XAR0,#69              ; [CPU_] |127| 
     342 00000081 911F          ANDB      AH,#31                ; [CPU_] |127| 
     343 00000082 CC94          AND       AL,*+XAR4[AR0],#0xffe0 ; [CPU_] |127| 
         00000083 FFE0 
     344 00000084 D045          MOVB      XAR0,#69              ; [CPU_] |127| 
     345 00000085 CBA9          OR        AH,AL                 ; [CPU_] |127| 
     346 00000086 9794          MOV       *+XAR4[AR0],AH        ; [CPU_] |127| 
     347 00000087       $C$L6:    
     348                      .dwpsn  file "C:/ti/controlSUITE/device_support/F2837xD/v170/F2837xD_common/source/F2837xD_sdfm_drive
     349 00000087 5603          MOV       ACC,AR7 << 1          ; [CPU_] |130| 
         00000088 01A7 
     350 00000089 8F00!         MOVL      XAR4,#_SDFM           ; [CPU_U] |130| 
         0000008a 0000 
TMS320C2000 Assembler PC v15.12.1 Sun May 28 10:39:54 2017

Tools Copyright (c) 1996-2015 Texas Instruments Incorporated
F2837xD_sdfm_drivers.asm                                             PAGE    8

     351 0000008b 5601          ADDL      XAR4,ACC              ; [CPU_] |130| 
         0000008c 00A4 
     352 0000008d 8AC4          MOVL      XAR4,*+XAR4[0]        ; [CPU_] |130| 
     353 0000008e D043          MOVB      XAR0,#67              ; [CPU_] |130| 
     354 0000008f CCAA          AND       AL,PH,#0x7fff         ; [CPU_] |130| 
         00000090 7FFF 
     355 00000091 D143          MOVB      XAR1,#67              ; [CPU_] |130| 
     356 00000092 CD94          AND       AH,*+XAR4[AR0],#0x8000 ; [CPU_] |130| 
         00000093 8000 
     357                      .dwpsn  file "C:/ti/controlSUITE/device_support/F2837xD/v170/F2837xD_common/source/F2837xD_sdfm_drive
     358 00000094 D044          MOVB      XAR0,#68              ; [CPU_] |131| 
     359                      .dwpsn  file "C:/ti/controlSUITE/device_support/F2837xD/v170/F2837xD_common/source/F2837xD_sdfm_drive
     360 00000095 CAA8          OR        AL,AH                 ; [CPU_] |130| 
     361 00000096 969C          MOV       *+XAR4[AR1],AL        ; [CPU_] |130| 
     362                      .dwpsn  file "C:/ti/controlSUITE/device_support/F2837xD/v170/F2837xD_common/source/F2837xD_sdfm_drive
     363 00000097 CCAB          AND       AL,PL,#0x7fff         ; [CPU_] |131| 
         00000098 7FFF 
     364 00000099 CD94          AND       AH,*+XAR4[AR0],#0x8000 ; [CPU_] |131| 
         0000009a 8000 
     365 0000009b D044          MOVB      XAR0,#68              ; [CPU_] |131| 
     366 0000009c CAA8          OR        AL,AH                 ; [CPU_] |131| 
     367 0000009d 9694          MOV       *+XAR4[AR0],AL        ; [CPU_] |131| 
     368                      .dwpsn  file "C:/ti/controlSUITE/device_support/F2837xD/v170/F2837xD_common/source/F2837xD_sdfm_drive
     369 0000009e FFEF          B         $C$L16,UNC            ; [CPU_] |132| 
         0000009f 00BE 
     370                      ; branch occurs ; [] |132| 
     371 000000a0       $C$L7:    
     372 000000a0 2901          CLRC      SXM                   ; [CPU_] 
     373                      .dwpsn  file "C:/ti/controlSUITE/device_support/F2837xD/v170/F2837xD_common/source/F2837xD_sdfm_drive
     374 000000a1 7680!         MOVL      XAR6,#_SDFM           ; [CPU_U] |112| 
         000000a2 0000 
     375 000000a3 5603          MOV       ACC,AR7 << 1          ; [CPU_] |112| 
         000000a4 01A7 
     376 000000a5 5601          ADDL      XAR6,ACC              ; [CPU_] |112| 
         000000a6 00A6 
     377 000000a7 C4C6          MOVL      XAR6,*+XAR6[0]        ; [CPU_] |112| 
     378 000000a8 CDA4          AND       AH,AR4,#0x0003        ; [CPU_] |112| 
         000000a9 0003 
     379 000000aa D035          MOVB      XAR0,#53              ; [CPU_] |112| 
     380 000000ab FF96          LSL       AH,7                  ; [CPU_] |112| 
     381 000000ac CC96          AND       AL,*+XAR6[AR0],#0xfe7f ; [CPU_] |112| 
         000000ad FE7F 
     382 000000ae D035          MOVB      XAR0,#53              ; [CPU_] |112| 
     383 000000af CBA9          OR        AH,AL                 ; [CPU_] |112| 
     384 000000b0 9796          MOV       *+XAR6[AR0],AH        ; [CPU_] |112| 
     385 000000b1 93A5          MOV       AH,AR5                ; [CPU_] |112| 
     386                      .dwpsn  file "C:/ti/controlSUITE/device_support/F2837xD/v170/F2837xD_common/source/F2837xD_sdfm_drive
     387 000000b2 5320          CMPB      AH,#32                ; [CPU_] |115| 
     388 000000b3 6905          B         $C$L8,LOS             ; [CPU_] |115| 
     389                      ; branchcc occurs ; [] |115| 
     390                      .dwpsn  file "C:/ti/controlSUITE/device_support/F2837xD/v170/F2837xD_common/source/F2837xD_sdfm_drive
     391 000000b4 DE35          ADDB      XAR6,#53              ; [CPU_] |116| 
     392 000000b5 18C6          AND       *+XAR6[0],#0xffe0     ; [CPU_] |116| 
         000000b6 FFE0 
     393 000000b7 6F10          B         $C$L9,UNC             ; [CPU_] |116| 
TMS320C2000 Assembler PC v15.12.1 Sun May 28 10:39:54 2017

Tools Copyright (c) 1996-2015 Texas Instruments Incorporated
F2837xD_sdfm_drivers.asm                                             PAGE    9

     394                      ; branch occurs ; [] |116| 
     395 000000b8       $C$L8:    
     396                      .dwpsn  file "C:/ti/controlSUITE/device_support/F2837xD/v170/F2837xD_common/source/F2837xD_sdfm_drive
     397 000000b8 5603          MOV       ACC,AR7 << 1          ; [CPU_] |115| 
         000000b9 01A7 
     398 000000ba 8F00!         MOVL      XAR4,#_SDFM           ; [CPU_U] |115| 
         000000bb 0000 
     399 000000bc 5601          ADDL      XAR4,ACC              ; [CPU_] |115| 
         000000bd 00A4 
     400 000000be 8AC4          MOVL      XAR4,*+XAR4[0]        ; [CPU_] |115| 
     401 000000bf 93A5          MOV       AH,AR5                ; [CPU_] |115| 
     402 000000c0 D035          MOVB      XAR0,#53              ; [CPU_] |115| 
     403 000000c1 911F          ANDB      AH,#31                ; [CPU_] |115| 
     404 000000c2 CC94          AND       AL,*+XAR4[AR0],#0xffe0 ; [CPU_] |115| 
         000000c3 FFE0 
     405 000000c4 D035          MOVB      XAR0,#53              ; [CPU_] |115| 
     406 000000c5 CBA9          OR        AH,AL                 ; [CPU_] |115| 
     407 000000c6 9794          MOV       *+XAR4[AR0],AH        ; [CPU_] |115| 
     408 000000c7       $C$L9:    
     409                      .dwpsn  file "C:/ti/controlSUITE/device_support/F2837xD/v170/F2837xD_common/source/F2837xD_sdfm_drive
     410 000000c7 5603          MOV       ACC,AR7 << 1          ; [CPU_] |118| 
         000000c8 01A7 
     411 000000c9 8F00!         MOVL      XAR4,#_SDFM           ; [CPU_U] |118| 
         000000ca 0000 
     412 000000cb 5601          ADDL      XAR4,ACC              ; [CPU_] |118| 
         000000cc 00A4 
     413 000000cd 8AC4          MOVL      XAR4,*+XAR4[0]        ; [CPU_] |118| 
     414 000000ce D033          MOVB      XAR0,#51              ; [CPU_] |118| 
     415 000000cf CCAA          AND       AL,PH,#0x7fff         ; [CPU_] |118| 
         000000d0 7FFF 
     416 000000d1 D133          MOVB      XAR1,#51              ; [CPU_] |118| 
     417 000000d2 CD94          AND       AH,*+XAR4[AR0],#0x8000 ; [CPU_] |118| 
         000000d3 8000 
     418                      .dwpsn  file "C:/ti/controlSUITE/device_support/F2837xD/v170/F2837xD_common/source/F2837xD_sdfm_drive
     419 000000d4 D034          MOVB      XAR0,#52              ; [CPU_] |119| 
     420                      .dwpsn  file "C:/ti/controlSUITE/device_support/F2837xD/v170/F2837xD_common/source/F2837xD_sdfm_drive
     421 000000d5 CAA8          OR        AL,AH                 ; [CPU_] |118| 
     422 000000d6 969C          MOV       *+XAR4[AR1],AL        ; [CPU_] |118| 
     423                      .dwpsn  file "C:/ti/controlSUITE/device_support/F2837xD/v170/F2837xD_common/source/F2837xD_sdfm_drive
     424 000000d7 CCAB          AND       AL,PL,#0x7fff         ; [CPU_] |119| 
         000000d8 7FFF 
     425 000000d9 CD94          AND       AH,*+XAR4[AR0],#0x8000 ; [CPU_] |119| 
         000000da 8000 
     426 000000db D034          MOVB      XAR0,#52              ; [CPU_] |119| 
     427 000000dc CAA8          OR        AL,AH                 ; [CPU_] |119| 
     428 000000dd 9694          MOV       *+XAR4[AR0],AL        ; [CPU_] |119| 
     429                      .dwpsn  file "C:/ti/controlSUITE/device_support/F2837xD/v170/F2837xD_common/source/F2837xD_sdfm_drive
     430 000000de 6F7E          B         $C$L16,UNC            ; [CPU_] |120| 
     431                      ; branch occurs ; [] |120| 
     432 000000df       $C$L10:    
     433 000000df 2901          CLRC      SXM                   ; [CPU_] 
     434                      .dwpsn  file "C:/ti/controlSUITE/device_support/F2837xD/v170/F2837xD_common/source/F2837xD_sdfm_drive
     435 000000e0 7680!         MOVL      XAR6,#_SDFM           ; [CPU_U] |100| 
         000000e1 0000 
     436 000000e2 5603          MOV       ACC,AR7 << 1          ; [CPU_] |100| 
TMS320C2000 Assembler PC v15.12.1 Sun May 28 10:39:54 2017

Tools Copyright (c) 1996-2015 Texas Instruments Incorporated
F2837xD_sdfm_drivers.asm                                             PAGE   10

         000000e3 01A7 
     437 000000e4 5601          ADDL      XAR6,ACC              ; [CPU_] |100| 
         000000e5 00A6 
     438 000000e6 C4C6          MOVL      XAR6,*+XAR6[0]        ; [CPU_] |100| 
     439 000000e7 CDA4          AND       AH,AR4,#0x0003        ; [CPU_] |100| 
         000000e8 0003 
     440 000000e9 D025          MOVB      XAR0,#37              ; [CPU_] |100| 
     441 000000ea FF96          LSL       AH,7                  ; [CPU_] |100| 
     442 000000eb CC96          AND       AL,*+XAR6[AR0],#0xfe7f ; [CPU_] |100| 
         000000ec FE7F 
     443 000000ed D025          MOVB      XAR0,#37              ; [CPU_] |100| 
     444 000000ee CBA9          OR        AH,AL                 ; [CPU_] |100| 
     445 000000ef 9796          MOV       *+XAR6[AR0],AH        ; [CPU_] |100| 
     446 000000f0 93A5          MOV       AH,AR5                ; [CPU_] |100| 
     447                      .dwpsn  file "C:/ti/controlSUITE/device_support/F2837xD/v170/F2837xD_common/source/F2837xD_sdfm_drive
     448 000000f1 5320          CMPB      AH,#32                ; [CPU_] |103| 
     449 000000f2 6905          B         $C$L11,LOS            ; [CPU_] |103| 
     450                      ; branchcc occurs ; [] |103| 
     451                      .dwpsn  file "C:/ti/controlSUITE/device_support/F2837xD/v170/F2837xD_common/source/F2837xD_sdfm_drive
     452 000000f3 DE25          ADDB      XAR6,#37              ; [CPU_] |104| 
     453 000000f4 18C6          AND       *+XAR6[0],#0xffe0     ; [CPU_] |104| 
         000000f5 FFE0 
     454 000000f6 6F10          B         $C$L12,UNC            ; [CPU_] |104| 
     455                      ; branch occurs ; [] |104| 
     456 000000f7       $C$L11:    
     457                      .dwpsn  file "C:/ti/controlSUITE/device_support/F2837xD/v170/F2837xD_common/source/F2837xD_sdfm_drive
     458 000000f7 5603          MOV       ACC,AR7 << 1          ; [CPU_] |103| 
         000000f8 01A7 
     459 000000f9 8F00!         MOVL      XAR4,#_SDFM           ; [CPU_U] |103| 
         000000fa 0000 
     460 000000fb 5601          ADDL      XAR4,ACC              ; [CPU_] |103| 
         000000fc 00A4 
     461 000000fd 8AC4          MOVL      XAR4,*+XAR4[0]        ; [CPU_] |103| 
     462 000000fe 93A5          MOV       AH,AR5                ; [CPU_] |103| 
     463 000000ff D025          MOVB      XAR0,#37              ; [CPU_] |103| 
     464 00000100 911F          ANDB      AH,#31                ; [CPU_] |103| 
     465 00000101 CC94          AND       AL,*+XAR4[AR0],#0xffe0 ; [CPU_] |103| 
         00000102 FFE0 
     466 00000103 D025          MOVB      XAR0,#37              ; [CPU_] |103| 
     467 00000104 CBA9          OR        AH,AL                 ; [CPU_] |103| 
     468 00000105 9794          MOV       *+XAR4[AR0],AH        ; [CPU_] |103| 
     469 00000106       $C$L12:    
     470                      .dwpsn  file "C:/ti/controlSUITE/device_support/F2837xD/v170/F2837xD_common/source/F2837xD_sdfm_drive
     471 00000106 5603          MOV       ACC,AR7 << 1          ; [CPU_] |106| 
         00000107 01A7 
     472 00000108 8F00!         MOVL      XAR4,#_SDFM           ; [CPU_U] |106| 
         00000109 0000 
     473 0000010a 5601          ADDL      XAR4,ACC              ; [CPU_] |106| 
         0000010b 00A4 
     474 0000010c 8AC4          MOVL      XAR4,*+XAR4[0]        ; [CPU_] |106| 
     475 0000010d D023          MOVB      XAR0,#35              ; [CPU_] |106| 
     476 0000010e CCAA          AND       AL,PH,#0x7fff         ; [CPU_] |106| 
         0000010f 7FFF 
     477 00000110 D123          MOVB      XAR1,#35              ; [CPU_] |106| 
     478 00000111 CD94          AND       AH,*+XAR4[AR0],#0x8000 ; [CPU_] |106| 
TMS320C2000 Assembler PC v15.12.1 Sun May 28 10:39:54 2017

Tools Copyright (c) 1996-2015 Texas Instruments Incorporated
F2837xD_sdfm_drivers.asm                                             PAGE   11

         00000112 8000 
     479                      .dwpsn  file "C:/ti/controlSUITE/device_support/F2837xD/v170/F2837xD_common/source/F2837xD_sdfm_drive
     480 00000113 D024          MOVB      XAR0,#36              ; [CPU_] |107| 
     481                      .dwpsn  file "C:/ti/controlSUITE/device_support/F2837xD/v170/F2837xD_common/source/F2837xD_sdfm_drive
     482 00000114 CAA8          OR        AL,AH                 ; [CPU_] |106| 
     483 00000115 969C          MOV       *+XAR4[AR1],AL        ; [CPU_] |106| 
     484                      .dwpsn  file "C:/ti/controlSUITE/device_support/F2837xD/v170/F2837xD_common/source/F2837xD_sdfm_drive
     485 00000116 CCAB          AND       AL,PL,#0x7fff         ; [CPU_] |107| 
         00000117 7FFF 
     486 00000118 CD94          AND       AH,*+XAR4[AR0],#0x8000 ; [CPU_] |107| 
         00000119 8000 
     487 0000011a D024          MOVB      XAR0,#36              ; [CPU_] |107| 
     488 0000011b CAA8          OR        AL,AH                 ; [CPU_] |107| 
     489 0000011c 9694          MOV       *+XAR4[AR0],AL        ; [CPU_] |107| 
     490                      .dwpsn  file "C:/ti/controlSUITE/device_support/F2837xD/v170/F2837xD_common/source/F2837xD_sdfm_drive
     491 0000011d 6F3F          B         $C$L16,UNC            ; [CPU_] |108| 
     492                      ; branch occurs ; [] |108| 
     493 0000011e       $C$L13:    
     494 0000011e 2901          CLRC      SXM                   ; [CPU_] 
     495                      .dwpsn  file "C:/ti/controlSUITE/device_support/F2837xD/v170/F2837xD_common/source/F2837xD_sdfm_drive
     496 0000011f 7680!         MOVL      XAR6,#_SDFM           ; [CPU_U] |88| 
         00000120 0000 
     497 00000121 5603          MOV       ACC,AR7 << 1          ; [CPU_] |88| 
         00000122 01A7 
     498 00000123 5601          ADDL      XAR6,ACC              ; [CPU_] |88| 
         00000124 00A6 
     499 00000125 C4C6          MOVL      XAR6,*+XAR6[0]        ; [CPU_] |88| 
     500 00000126 CDA4          AND       AH,AR4,#0x0003        ; [CPU_] |88| 
         00000127 0003 
     501 00000128 D015          MOVB      XAR0,#21              ; [CPU_] |88| 
     502 00000129 FF96          LSL       AH,7                  ; [CPU_] |88| 
     503 0000012a CC96          AND       AL,*+XAR6[AR0],#0xfe7f ; [CPU_] |88| 
         0000012b FE7F 
     504 0000012c D015          MOVB      XAR0,#21              ; [CPU_] |88| 
     505 0000012d CBA9          OR        AH,AL                 ; [CPU_] |88| 
     506 0000012e 9796          MOV       *+XAR6[AR0],AH        ; [CPU_] |88| 
     507 0000012f 93A5          MOV       AH,AR5                ; [CPU_] |88| 
     508                      .dwpsn  file "C:/ti/controlSUITE/device_support/F2837xD/v170/F2837xD_common/source/F2837xD_sdfm_drive
     509 00000130 5320          CMPB      AH,#32                ; [CPU_] |91| 
     510 00000131 6905          B         $C$L14,LOS            ; [CPU_] |91| 
     511                      ; branchcc occurs ; [] |91| 
     512                      .dwpsn  file "C:/ti/controlSUITE/device_support/F2837xD/v170/F2837xD_common/source/F2837xD_sdfm_drive
     513 00000132 DE15          ADDB      XAR6,#21              ; [CPU_] |92| 
     514 00000133 18C6          AND       *+XAR6[0],#0xffe0     ; [CPU_] |92| 
         00000134 FFE0 
     515 00000135 6F10          B         $C$L15,UNC            ; [CPU_] |92| 
     516                      ; branch occurs ; [] |92| 
     517 00000136       $C$L14:    
     518                      .dwpsn  file "C:/ti/controlSUITE/device_support/F2837xD/v170/F2837xD_common/source/F2837xD_sdfm_drive
     519 00000136 5603          MOV       ACC,AR7 << 1          ; [CPU_] |91| 
         00000137 01A7 
     520 00000138 8F00!         MOVL      XAR4,#_SDFM           ; [CPU_U] |91| 
         00000139 0000 
     521 0000013a 5601          ADDL      XAR4,ACC              ; [CPU_] |91| 
         0000013b 00A4 
TMS320C2000 Assembler PC v15.12.1 Sun May 28 10:39:54 2017

Tools Copyright (c) 1996-2015 Texas Instruments Incorporated
F2837xD_sdfm_drivers.asm                                             PAGE   12

     522 0000013c 8AC4          MOVL      XAR4,*+XAR4[0]        ; [CPU_] |91| 
     523 0000013d 93A5          MOV       AH,AR5                ; [CPU_] |91| 
     524 0000013e D015          MOVB      XAR0,#21              ; [CPU_] |91| 
     525 0000013f 911F          ANDB      AH,#31                ; [CPU_] |91| 
     526 00000140 CC94          AND       AL,*+XAR4[AR0],#0xffe0 ; [CPU_] |91| 
         00000141 FFE0 
     527 00000142 D015          MOVB      XAR0,#21              ; [CPU_] |91| 
     528 00000143 CBA9          OR        AH,AL                 ; [CPU_] |91| 
     529 00000144 9794          MOV       *+XAR4[AR0],AH        ; [CPU_] |91| 
     530 00000145       $C$L15:    
     531                      .dwpsn  file "C:/ti/controlSUITE/device_support/F2837xD/v170/F2837xD_common/source/F2837xD_sdfm_drive
     532 00000145 5603          MOV       ACC,AR7 << 1          ; [CPU_] |94| 
         00000146 01A7 
     533 00000147 8F00!         MOVL      XAR4,#_SDFM           ; [CPU_U] |94| 
         00000148 0000 
     534 00000149 5601          ADDL      XAR4,ACC              ; [CPU_] |94| 
         0000014a 00A4 
     535 0000014b 8AC4          MOVL      XAR4,*+XAR4[0]        ; [CPU_] |94| 
     536 0000014c D013          MOVB      XAR0,#19              ; [CPU_] |94| 
     537 0000014d CCAA          AND       AL,PH,#0x7fff         ; [CPU_] |94| 
         0000014e 7FFF 
     538 0000014f D113          MOVB      XAR1,#19              ; [CPU_] |94| 
     539 00000150 CD94          AND       AH,*+XAR4[AR0],#0x8000 ; [CPU_] |94| 
         00000151 8000 
     540                      .dwpsn  file "C:/ti/controlSUITE/device_support/F2837xD/v170/F2837xD_common/source/F2837xD_sdfm_drive
     541 00000152 D014          MOVB      XAR0,#20              ; [CPU_] |95| 
     542                      .dwpsn  file "C:/ti/controlSUITE/device_support/F2837xD/v170/F2837xD_common/source/F2837xD_sdfm_drive
     543 00000153 CAA8          OR        AL,AH                 ; [CPU_] |94| 
     544 00000154 969C          MOV       *+XAR4[AR1],AL        ; [CPU_] |94| 
     545                      .dwpsn  file "C:/ti/controlSUITE/device_support/F2837xD/v170/F2837xD_common/source/F2837xD_sdfm_drive
     546 00000155 CCAB          AND       AL,PL,#0x7fff         ; [CPU_] |95| 
         00000156 7FFF 
     547 00000157 CD94          AND       AH,*+XAR4[AR0],#0x8000 ; [CPU_] |95| 
         00000158 8000 
     548 00000159 D014          MOVB      XAR0,#20              ; [CPU_] |95| 
     549 0000015a CAA8          OR        AL,AH                 ; [CPU_] |95| 
     550 0000015b 9694          MOV       *+XAR4[AR0],AL        ; [CPU_] |95| 
     551 0000015c       $C$L16:    
     552 0000015c 761A   EDIS
     553 0000015d 8BBE          MOVL      XAR1,*--SP            ; [CPU_] 
     554                      .dwcfi  cfa_offset, -2
     555                      .dwcfi  restore_reg, 7
     556 0000015e FF69          SPM       #0                    ; [CPU_] 
     557              $C$DW$21        .dwtag  DW_TAG_TI_branch
     558                      .dwattr $C$DW$21, DW_AT_low_pc(0x00)
     559                      .dwattr $C$DW$21, DW_AT_TI_return
     560              
     561 0000015f 0006          LRETR     ; [CPU_] 
     562                      ; return occurs ; [] 
     563                      .dwattr $C$DW$8, DW_AT_TI_end_file("C:/ti/controlSUITE/device_support/F2837xD/v170/F2837xD_common/sou
     564                      .dwattr $C$DW$8, DW_AT_TI_end_line(0x89)
     565                      .dwattr $C$DW$8, DW_AT_TI_end_column(0x01)
     566                      .dwendentry
     567                      .dwendtag $C$DW$8
     568              
TMS320C2000 Assembler PC v15.12.1 Sun May 28 10:39:54 2017

Tools Copyright (c) 1996-2015 Texas Instruments Incorporated
F2837xD_sdfm_drivers.asm                                             PAGE   13

     569 00000160               .sect   ".text"
     570                      .clink
     571                      .global _Sdfm_configureData_filter
     572              
     573              $C$DW$22        .dwtag  DW_TAG_subprogram
     574                      .dwattr $C$DW$22, DW_AT_name("Sdfm_configureData_filter")
     575                      .dwattr $C$DW$22, DW_AT_low_pc(_Sdfm_configureData_filter)
     576                      .dwattr $C$DW$22, DW_AT_high_pc(0x00)
     577                      .dwattr $C$DW$22, DW_AT_TI_symbol_name("_Sdfm_configureData_filter")
     578                      .dwattr $C$DW$22, DW_AT_external
     579                      .dwattr $C$DW$22, DW_AT_TI_begin_file("C:/ti/controlSUITE/device_support/F2837xD/v170/F2837xD_common/
     580                      .dwattr $C$DW$22, DW_AT_TI_begin_line(0xa1)
     581                      .dwattr $C$DW$22, DW_AT_TI_begin_column(0x06)
     582                      .dwattr $C$DW$22, DW_AT_TI_max_frame_size(-4)
     583                      .dwpsn  file "C:/ti/controlSUITE/device_support/F2837xD/v170/F2837xD_common/source/F2837xD_sdfm_drive
     584              
     585                      .dwfde $C$DW$CIE, _Sdfm_configureData_filter
     586              $C$DW$23        .dwtag  DW_TAG_formal_parameter
     587                      .dwattr $C$DW$23, DW_AT_name("sdfmNumber")
     588                      .dwattr $C$DW$23, DW_AT_TI_symbol_name("_sdfmNumber")
     589                      .dwattr $C$DW$23, DW_AT_type(*$C$DW$T$19)
     590                      .dwattr $C$DW$23, DW_AT_location[DW_OP_reg0]
     591              
     592              $C$DW$24        .dwtag  DW_TAG_formal_parameter
     593                      .dwattr $C$DW$24, DW_AT_name("filterNumber")
     594                      .dwattr $C$DW$24, DW_AT_TI_symbol_name("_filterNumber")
     595                      .dwattr $C$DW$24, DW_AT_type(*$C$DW$T$19)
     596                      .dwattr $C$DW$24, DW_AT_location[DW_OP_reg1]
     597              
     598              $C$DW$25        .dwtag  DW_TAG_formal_parameter
     599                      .dwattr $C$DW$25, DW_AT_name("Filter_switch")
     600                      .dwattr $C$DW$25, DW_AT_TI_symbol_name("_Filter_switch")
     601                      .dwattr $C$DW$25, DW_AT_type(*$C$DW$T$19)
     602                      .dwattr $C$DW$25, DW_AT_location[DW_OP_reg12]
     603              
     604              $C$DW$26        .dwtag  DW_TAG_formal_parameter
     605                      .dwattr $C$DW$26, DW_AT_name("filterType")
     606                      .dwattr $C$DW$26, DW_AT_TI_symbol_name("_filterType")
     607                      .dwattr $C$DW$26, DW_AT_type(*$C$DW$T$19)
     608                      .dwattr $C$DW$26, DW_AT_location[DW_OP_reg14]
     609              
     610              $C$DW$27        .dwtag  DW_TAG_formal_parameter
     611                      .dwattr $C$DW$27, DW_AT_name("OSR")
     612                      .dwattr $C$DW$27, DW_AT_TI_symbol_name("_OSR")
     613                      .dwattr $C$DW$27, DW_AT_type(*$C$DW$T$19)
     614                      .dwattr $C$DW$27, DW_AT_location[DW_OP_breg20 -5]
     615              
     616              $C$DW$28        .dwtag  DW_TAG_formal_parameter
     617                      .dwattr $C$DW$28, DW_AT_name("DR_switch")
     618                      .dwattr $C$DW$28, DW_AT_TI_symbol_name("_DR_switch")
     619                      .dwattr $C$DW$28, DW_AT_type(*$C$DW$T$19)
     620                      .dwattr $C$DW$28, DW_AT_location[DW_OP_breg20 -6]
     621              
     622              $C$DW$29        .dwtag  DW_TAG_formal_parameter
     623                      .dwattr $C$DW$29, DW_AT_name("shift_bits")
TMS320C2000 Assembler PC v15.12.1 Sun May 28 10:39:54 2017

Tools Copyright (c) 1996-2015 Texas Instruments Incorporated
F2837xD_sdfm_drivers.asm                                             PAGE   14

     624                      .dwattr $C$DW$29, DW_AT_TI_symbol_name("_shift_bits")
     625                      .dwattr $C$DW$29, DW_AT_type(*$C$DW$T$19)
     626                      .dwattr $C$DW$29, DW_AT_location[DW_OP_breg20 -7]
     627              
     628              
     629              ;***************************************************************
     630              ;* FNAME: _Sdfm_configureData_filter    FR SIZE:   2           *
     631              ;*                                                             *
     632              ;* FUNCTION ENVIRONMENT                                        *
     633              ;*                                                             *
     634              ;* FUNCTION PROPERTIES                                         *
     635              ;*                            0 Parameter,  0 Auto,  2 SOE     *
     636              ;***************************************************************
     637              
     638              _Sdfm_configureData_filter:
     639              ;* AR4   assigned to $O$C1
     640              ;* AR4   assigned to $O$C2
     641              ;* AR6   assigned to $O$C3
     642              ;* AR4   assigned to $O$C4
     643              ;* AR4   assigned to $O$C5
     644              ;* AR6   assigned to $O$C6
     645              ;* AR4   assigned to $O$C7
     646              ;* AR4   assigned to $O$C8
     647              ;* AR6   assigned to $O$C9
     648              ;* AR4   assigned to $O$C10
     649              ;* AR4   assigned to $O$C11
     650              ;* AR6   assigned to $O$C12
     651              ;* AH    assigned to _filterNumber
     652              $C$DW$30        .dwtag  DW_TAG_variable
     653                      .dwattr $C$DW$30, DW_AT_name("filterNumber")
     654                      .dwattr $C$DW$30, DW_AT_TI_symbol_name("_filterNumber")
     655                      .dwattr $C$DW$30, DW_AT_type(*$C$DW$T$101)
     656                      .dwattr $C$DW$30, DW_AT_location[DW_OP_reg1]
     657              
     658              ;* AR4   assigned to _Filter_switch
     659              $C$DW$31        .dwtag  DW_TAG_variable
     660                      .dwattr $C$DW$31, DW_AT_name("Filter_switch")
     661                      .dwattr $C$DW$31, DW_AT_TI_symbol_name("_Filter_switch")
     662                      .dwattr $C$DW$31, DW_AT_type(*$C$DW$T$101)
     663                      .dwattr $C$DW$31, DW_AT_location[DW_OP_reg12]
     664              
     665              ;* AR5   assigned to _filterType
     666              $C$DW$32        .dwtag  DW_TAG_variable
     667                      .dwattr $C$DW$32, DW_AT_name("filterType")
     668                      .dwattr $C$DW$32, DW_AT_TI_symbol_name("_filterType")
     669                      .dwattr $C$DW$32, DW_AT_type(*$C$DW$T$101)
     670                      .dwattr $C$DW$32, DW_AT_location[DW_OP_reg14]
     671              
     672              ;* PH    assigned to _OSR
     673              $C$DW$33        .dwtag  DW_TAG_variable
     674                      .dwattr $C$DW$33, DW_AT_name("OSR")
     675                      .dwattr $C$DW$33, DW_AT_TI_symbol_name("_OSR")
     676                      .dwattr $C$DW$33, DW_AT_type(*$C$DW$T$101)
     677                      .dwattr $C$DW$33, DW_AT_location[DW_OP_reg3]
     678              
TMS320C2000 Assembler PC v15.12.1 Sun May 28 10:39:54 2017

Tools Copyright (c) 1996-2015 Texas Instruments Incorporated
F2837xD_sdfm_drivers.asm                                             PAGE   15

     679              ;* AR7   assigned to _DR_switch
     680              $C$DW$34        .dwtag  DW_TAG_variable
     681                      .dwattr $C$DW$34, DW_AT_name("DR_switch")
     682                      .dwattr $C$DW$34, DW_AT_TI_symbol_name("_DR_switch")
     683                      .dwattr $C$DW$34, DW_AT_type(*$C$DW$T$101)
     684                      .dwattr $C$DW$34, DW_AT_location[DW_OP_reg18]
     685              
     686              ;* T     assigned to _shift_bits
     687              $C$DW$35        .dwtag  DW_TAG_variable
     688                      .dwattr $C$DW$35, DW_AT_name("shift_bits")
     689                      .dwattr $C$DW$35, DW_AT_TI_symbol_name("_shift_bits")
     690                      .dwattr $C$DW$35, DW_AT_type(*$C$DW$T$101)
     691                      .dwattr $C$DW$35, DW_AT_location[DW_OP_reg22]
     692              
     693                      .dwcfi  cfa_offset, -2
     694                      .dwcfi  save_reg_to_mem, 26, 0
     695 00000160 B2BD          MOVL      *SP++,XAR1            ; [CPU_] 
     696                      .dwcfi  save_reg_to_mem, 7, 2
     697                      .dwcfi  cfa_offset, -4
     698 00000161 27A9          MOV       PL,AL                 ; [CPU_] |162| 
     699 00000162 2D47          MOV       T,*-SP[7]             ; [CPU_] |162| 
     700 00000163 8046          MOVZ      AR7,*-SP[6]           ; [CPU_] |162| 
     701 00000164 2F45          MOV       PH,*-SP[5]            ; [CPU_] |162| 
     702 00000165 7622   EALLOW
     703                      .dwpsn  file "C:/ti/controlSUITE/device_support/F2837xD/v170/F2837xD_common/source/F2837xD_sdfm_drive
     704 00000166 92A8          MOV       AL,AH                 ; [CPU_] |166| 
     705 00000167 5201          CMPB      AL,#1                 ; [CPU_] |166| 
     706 00000168 FFE1          B         $C$L25,EQ             ; [CPU_] |166| 
         00000169 00EC 
     707                      ; branchcc occurs ; [] |166| 
     708 0000016a 5202          CMPB      AL,#2                 ; [CPU_] |166| 
     709 0000016b FFE1          B         $C$L22,EQ             ; [CPU_] |166| 
         0000016c 009F 
     710                      ; branchcc occurs ; [] |166| 
     711 0000016d 5204          CMPB      AL,#4                 ; [CPU_] |166| 
     712 0000016e 6150          B         $C$L19,EQ             ; [CPU_] |166| 
     713                      ; branchcc occurs ; [] |166| 
     714 0000016f 5208          CMPB      AL,#8                 ; [CPU_] |166| 
     715 00000170 FFE0          B         $C$L28,NEQ            ; [CPU_] |166| 
         00000171 012D 
     716                      ; branchcc occurs ; [] |166| 
     717 00000172 2901          CLRC      SXM                   ; [CPU_] 
     718                      .dwpsn  file "C:/ti/controlSUITE/device_support/F2837xD/v170/F2837xD_common/source/F2837xD_sdfm_drive
     719 00000173 7680!         MOVL      XAR6,#_SDFM           ; [CPU_U] |212| 
         00000174 0000 
     720 00000175 5603          MOV       ACC,PL << 1           ; [CPU_] |212| 
         00000176 01AB 
     721 00000177 5601          ADDL      XAR6,ACC              ; [CPU_] |212| 
         00000178 00A6 
     722 00000179 CCA4          AND       AL,AR4,#0x0001        ; [CPU_] |212| 
         0000017a 0001 
     723 0000017b C4C6          MOVL      XAR6,*+XAR6[0]        ; [CPU_] |212| 
     724 0000017c D041          MOVB      XAR0,#65              ; [CPU_] |212| 
     725 0000017d FF87          LSL       AL,8                  ; [CPU_] |212| 
     726 0000017e D141          MOVB      XAR1,#65              ; [CPU_] |212| 
TMS320C2000 Assembler PC v15.12.1 Sun May 28 10:39:54 2017

Tools Copyright (c) 1996-2015 Texas Instruments Incorporated
F2837xD_sdfm_drivers.asm                                             PAGE   16

     727 0000017f CD96          AND       AH,*+XAR6[AR0],#0xfeff ; [CPU_] |212| 
         00000180 FEFF 
     728 00000181 CAA8          OR        AL,AH                 ; [CPU_] |212| 
     729                      .dwpsn  file "C:/ti/controlSUITE/device_support/F2837xD/v170/F2837xD_common/source/F2837xD_sdfm_drive
     730 00000182 D041          MOVB      XAR0,#65              ; [CPU_] |213| 
     731 00000183 CDA5          AND       AH,AR5,#0x0003        ; [CPU_] |213| 
         00000184 0003 
     732 00000185 FF99          LSL       AH,10                 ; [CPU_] |213| 
     733                      .dwpsn  file "C:/ti/controlSUITE/device_support/F2837xD/v170/F2837xD_common/source/F2837xD_sdfm_drive
     734 00000186 969E          MOV       *+XAR6[AR1],AL        ; [CPU_] |212| 
     735                      .dwpsn  file "C:/ti/controlSUITE/device_support/F2837xD/v170/F2837xD_common/source/F2837xD_sdfm_drive
     736 00000187 CC96          AND       AL,*+XAR6[AR0],#0xf3ff ; [CPU_] |213| 
         00000188 F3FF 
     737 00000189 D041          MOVB      XAR0,#65              ; [CPU_] |213| 
     738 0000018a CBA9          OR        AH,AL                 ; [CPU_] |213| 
     739                      .dwpsn  file "C:/ti/controlSUITE/device_support/F2837xD/v170/F2837xD_common/source/F2837xD_sdfm_drive
     740 0000018b 1BAA          CMP       PH,#256               ; [CPU_] |216| 
         0000018c 0100 
     741                      .dwpsn  file "C:/ti/controlSUITE/device_support/F2837xD/v170/F2837xD_common/source/F2837xD_sdfm_drive
     742 0000018d 9796          MOV       *+XAR6[AR0],AH        ; [CPU_] |213| 
     743                      .dwpsn  file "C:/ti/controlSUITE/device_support/F2837xD/v170/F2837xD_common/source/F2837xD_sdfm_drive
     744 0000018e 6905          B         $C$L17,LOS            ; [CPU_] |216| 
     745                      ; branchcc occurs ; [] |216| 
     746                      .dwpsn  file "C:/ti/controlSUITE/device_support/F2837xD/v170/F2837xD_common/source/F2837xD_sdfm_drive
     747 0000018f DE41          ADDB      XAR6,#65              ; [CPU_] |217| 
     748 00000190 18C6          AND       *+XAR6[0],#0xff00     ; [CPU_] |217| 
         00000191 FF00 
     749 00000192 6F0E          B         $C$L18,UNC            ; [CPU_] |217| 
     750                      ; branch occurs ; [] |217| 
     751 00000193       $C$L17:    
     752                      .dwpsn  file "C:/ti/controlSUITE/device_support/F2837xD/v170/F2837xD_common/source/F2837xD_sdfm_drive
     753 00000193 5603          MOV       ACC,PL << 1           ; [CPU_] |216| 
         00000194 01AB 
     754 00000195 8F00!         MOVL      XAR4,#_SDFM           ; [CPU_U] |216| 
         00000196 0000 
     755 00000197 5601          ADDL      XAR4,ACC              ; [CPU_] |216| 
         00000198 00A4 
     756 00000199 8AC4          MOVL      XAR4,*+XAR4[0]        ; [CPU_] |216| 
     757 0000019a D041          MOVB      XAR0,#65              ; [CPU_] |216| 
     758 0000019b 93AA          MOV       AH,PH                 ; [CPU_] |216| 
     759 0000019c 9294          MOV       AL,*+XAR4[AR0]        ; [CPU_] |216| 
     760 0000019d D041          MOVB      XAR0,#65              ; [CPU_] |216| 
     761 0000019e 3DA9          MOVB      AL,AH.LSB             ; [CPU_] |216| 
     762 0000019f 9694          MOV       *+XAR4[AR0],AL        ; [CPU_] |216| 
     763 000001a0       $C$L18:    
     764                      .dwpsn  file "C:/ti/controlSUITE/device_support/F2837xD/v170/F2837xD_common/source/F2837xD_sdfm_drive
     765 000001a0 5603          MOV       ACC,PL << 1           ; [CPU_] |220| 
         000001a1 01AB 
     766 000001a2 8F00!         MOVL      XAR4,#_SDFM           ; [CPU_U] |220| 
         000001a3 0000 
     767 000001a4 5601          ADDL      XAR4,ACC              ; [CPU_] |220| 
         000001a5 00A4 
     768 000001a6 92A7          MOV       AL,AR7                ; [CPU_] |220| 
     769 000001a7 8AC4          MOVL      XAR4,*+XAR4[0]        ; [CPU_] |220| 
     770 000001a8 9001          ANDB      AL,#1                 ; [CPU_] |220| 
TMS320C2000 Assembler PC v15.12.1 Sun May 28 10:39:54 2017

Tools Copyright (c) 1996-2015 Texas Instruments Incorporated
F2837xD_sdfm_drivers.asm                                             PAGE   17

     771 000001a9 D042          MOVB      XAR0,#66              ; [CPU_] |220| 
     772 000001aa FF89          LSL       AL,10                 ; [CPU_] |220| 
     773 000001ab CD94          AND       AH,*+XAR4[AR0],#0xfbff ; [CPU_] |220| 
         000001ac FBFF 
     774 000001ad D042          MOVB      XAR0,#66              ; [CPU_] |220| 
     775 000001ae CAA8          OR        AL,AH                 ; [CPU_] |220| 
     776 000001af 9694          MOV       *+XAR4[AR0],AL        ; [CPU_] |220| 
     777 000001b0 92A7          MOV       AL,AR7                ; [CPU_] |220| 
     778                      .dwpsn  file "C:/ti/controlSUITE/device_support/F2837xD/v170/F2837xD_common/source/F2837xD_sdfm_drive
     779 000001b1 FFE0          B         $C$L28,NEQ            ; [CPU_] |221| 
         000001b2 00EC 
     780                      ; branchcc occurs ; [] |221| 
     781                      .dwpsn  file "C:/ti/controlSUITE/device_support/F2837xD/v170/F2837xD_common/source/F2837xD_sdfm_drive
     782 000001b3 D042          MOVB      XAR0,#66              ; [CPU_] |221| 
     783 000001b4 CC94          AND       AL,*+XAR4[AR0],#0x07ff ; [CPU_] |221| 
         000001b5 07FF 
     784 000001b6 88A9          MOVZ      AR6,AL                ; [CPU_] |221| 
     785 000001b7 D042          MOVB      XAR0,#66              ; [CPU_] |221| 
     786 000001b8 5603          MOV       ACC,T << #11          ; [CPU_] |221| 
         000001b9 0BAC 
     787 000001ba CAA6          OR        AL,AR6                ; [CPU_] |221| 
     788 000001bb 9694          MOV       *+XAR4[AR0],AL        ; [CPU_] |221| 
     789 000001bc FFEF          B         $C$L28,UNC            ; [CPU_] |221| 
         000001bd 00E1 
     790                      ; branch occurs ; [] |221| 
     791 000001be       $C$L19:    
     792 000001be 2901          CLRC      SXM                   ; [CPU_] 
     793                      .dwpsn  file "C:/ti/controlSUITE/device_support/F2837xD/v170/F2837xD_common/source/F2837xD_sdfm_drive
     794 000001bf 7680!         MOVL      XAR6,#_SDFM           ; [CPU_U] |198| 
         000001c0 0000 
     795 000001c1 5603          MOV       ACC,PL << 1           ; [CPU_] |198| 
         000001c2 01AB 
     796 000001c3 5601          ADDL      XAR6,ACC              ; [CPU_] |198| 
         000001c4 00A6 
     797 000001c5 CCA4          AND       AL,AR4,#0x0001        ; [CPU_] |198| 
         000001c6 0001 
     798 000001c7 C4C6          MOVL      XAR6,*+XAR6[0]        ; [CPU_] |198| 
     799 000001c8 D031          MOVB      XAR0,#49              ; [CPU_] |198| 
     800 000001c9 FF87          LSL       AL,8                  ; [CPU_] |198| 
     801 000001ca D131          MOVB      XAR1,#49              ; [CPU_] |198| 
     802 000001cb CD96          AND       AH,*+XAR6[AR0],#0xfeff ; [CPU_] |198| 
         000001cc FEFF 
     803 000001cd CAA8          OR        AL,AH                 ; [CPU_] |198| 
     804                      .dwpsn  file "C:/ti/controlSUITE/device_support/F2837xD/v170/F2837xD_common/source/F2837xD_sdfm_drive
     805 000001ce D031          MOVB      XAR0,#49              ; [CPU_] |199| 
     806 000001cf CDA5          AND       AH,AR5,#0x0003        ; [CPU_] |199| 
         000001d0 0003 
     807 000001d1 FF99          LSL       AH,10                 ; [CPU_] |199| 
     808                      .dwpsn  file "C:/ti/controlSUITE/device_support/F2837xD/v170/F2837xD_common/source/F2837xD_sdfm_drive
     809 000001d2 969E          MOV       *+XAR6[AR1],AL        ; [CPU_] |198| 
     810                      .dwpsn  file "C:/ti/controlSUITE/device_support/F2837xD/v170/F2837xD_common/source/F2837xD_sdfm_drive
     811 000001d3 CC96          AND       AL,*+XAR6[AR0],#0xf3ff ; [CPU_] |199| 
         000001d4 F3FF 
     812 000001d5 D031          MOVB      XAR0,#49              ; [CPU_] |199| 
     813 000001d6 CBA9          OR        AH,AL                 ; [CPU_] |199| 
TMS320C2000 Assembler PC v15.12.1 Sun May 28 10:39:54 2017

Tools Copyright (c) 1996-2015 Texas Instruments Incorporated
F2837xD_sdfm_drivers.asm                                             PAGE   18

     814                      .dwpsn  file "C:/ti/controlSUITE/device_support/F2837xD/v170/F2837xD_common/source/F2837xD_sdfm_drive
     815 000001d7 1BAA          CMP       PH,#256               ; [CPU_] |202| 
         000001d8 0100 
     816                      .dwpsn  file "C:/ti/controlSUITE/device_support/F2837xD/v170/F2837xD_common/source/F2837xD_sdfm_drive
     817 000001d9 9796          MOV       *+XAR6[AR0],AH        ; [CPU_] |199| 
     818                      .dwpsn  file "C:/ti/controlSUITE/device_support/F2837xD/v170/F2837xD_common/source/F2837xD_sdfm_drive
     819 000001da 6905          B         $C$L20,LOS            ; [CPU_] |202| 
     820                      ; branchcc occurs ; [] |202| 
     821                      .dwpsn  file "C:/ti/controlSUITE/device_support/F2837xD/v170/F2837xD_common/source/F2837xD_sdfm_drive
     822 000001db DE31          ADDB      XAR6,#49              ; [CPU_] |203| 
     823 000001dc 18C6          AND       *+XAR6[0],#0xff00     ; [CPU_] |203| 
         000001dd FF00 
     824 000001de 6F0E          B         $C$L21,UNC            ; [CPU_] |203| 
     825                      ; branch occurs ; [] |203| 
     826 000001df       $C$L20:    
     827                      .dwpsn  file "C:/ti/controlSUITE/device_support/F2837xD/v170/F2837xD_common/source/F2837xD_sdfm_drive
     828 000001df 5603          MOV       ACC,PL << 1           ; [CPU_] |202| 
         000001e0 01AB 
     829 000001e1 8F00!         MOVL      XAR4,#_SDFM           ; [CPU_U] |202| 
         000001e2 0000 
     830 000001e3 5601          ADDL      XAR4,ACC              ; [CPU_] |202| 
         000001e4 00A4 
     831 000001e5 8AC4          MOVL      XAR4,*+XAR4[0]        ; [CPU_] |202| 
     832 000001e6 D031          MOVB      XAR0,#49              ; [CPU_] |202| 
     833 000001e7 93AA          MOV       AH,PH                 ; [CPU_] |202| 
     834 000001e8 9294          MOV       AL,*+XAR4[AR0]        ; [CPU_] |202| 
     835 000001e9 D031          MOVB      XAR0,#49              ; [CPU_] |202| 
     836 000001ea 3DA9          MOVB      AL,AH.LSB             ; [CPU_] |202| 
     837 000001eb 9694          MOV       *+XAR4[AR0],AL        ; [CPU_] |202| 
     838 000001ec       $C$L21:    
     839                      .dwpsn  file "C:/ti/controlSUITE/device_support/F2837xD/v170/F2837xD_common/source/F2837xD_sdfm_drive
     840 000001ec 5603          MOV       ACC,PL << 1           ; [CPU_] |206| 
         000001ed 01AB 
     841 000001ee 8F00!         MOVL      XAR4,#_SDFM           ; [CPU_U] |206| 
         000001ef 0000 
     842 000001f0 5601          ADDL      XAR4,ACC              ; [CPU_] |206| 
         000001f1 00A4 
     843 000001f2 92A7          MOV       AL,AR7                ; [CPU_] |206| 
     844 000001f3 8AC4          MOVL      XAR4,*+XAR4[0]        ; [CPU_] |206| 
     845 000001f4 9001          ANDB      AL,#1                 ; [CPU_] |206| 
     846 000001f5 D032          MOVB      XAR0,#50              ; [CPU_] |206| 
     847 000001f6 FF89          LSL       AL,10                 ; [CPU_] |206| 
     848 000001f7 CD94          AND       AH,*+XAR4[AR0],#0xfbff ; [CPU_] |206| 
         000001f8 FBFF 
     849 000001f9 D032          MOVB      XAR0,#50              ; [CPU_] |206| 
     850 000001fa CAA8          OR        AL,AH                 ; [CPU_] |206| 
     851 000001fb 9694          MOV       *+XAR4[AR0],AL        ; [CPU_] |206| 
     852 000001fc 92A7          MOV       AL,AR7                ; [CPU_] |206| 
     853                      .dwpsn  file "C:/ti/controlSUITE/device_support/F2837xD/v170/F2837xD_common/source/F2837xD_sdfm_drive
     854 000001fd FFE0          B         $C$L28,NEQ            ; [CPU_] |207| 
         000001fe 00A0 
     855                      ; branchcc occurs ; [] |207| 
     856                      .dwpsn  file "C:/ti/controlSUITE/device_support/F2837xD/v170/F2837xD_common/source/F2837xD_sdfm_drive
     857 000001ff D032          MOVB      XAR0,#50              ; [CPU_] |207| 
     858 00000200 CC94          AND       AL,*+XAR4[AR0],#0x07ff ; [CPU_] |207| 
TMS320C2000 Assembler PC v15.12.1 Sun May 28 10:39:54 2017

Tools Copyright (c) 1996-2015 Texas Instruments Incorporated
F2837xD_sdfm_drivers.asm                                             PAGE   19

         00000201 07FF 
     859 00000202 88A9          MOVZ      AR6,AL                ; [CPU_] |207| 
     860 00000203 D032          MOVB      XAR0,#50              ; [CPU_] |207| 
     861 00000204 5603          MOV       ACC,T << #11          ; [CPU_] |207| 
         00000205 0BAC 
     862 00000206 CAA6          OR        AL,AR6                ; [CPU_] |207| 
     863 00000207 9694          MOV       *+XAR4[AR0],AL        ; [CPU_] |207| 
     864 00000208 FFEF          B         $C$L28,UNC            ; [CPU_] |207| 
         00000209 0095 
     865                      ; branch occurs ; [] |207| 
     866 0000020a       $C$L22:    
     867 0000020a 2901          CLRC      SXM                   ; [CPU_] 
     868                      .dwpsn  file "C:/ti/controlSUITE/device_support/F2837xD/v170/F2837xD_common/source/F2837xD_sdfm_drive
     869 0000020b 7680!         MOVL      XAR6,#_SDFM           ; [CPU_U] |184| 
         0000020c 0000 
     870 0000020d 5603          MOV       ACC,PL << 1           ; [CPU_] |184| 
         0000020e 01AB 
     871 0000020f 5601          ADDL      XAR6,ACC              ; [CPU_] |184| 
         00000210 00A6 
     872 00000211 CCA4          AND       AL,AR4,#0x0001        ; [CPU_] |184| 
         00000212 0001 
     873 00000213 C4C6          MOVL      XAR6,*+XAR6[0]        ; [CPU_] |184| 
     874 00000214 D021          MOVB      XAR0,#33              ; [CPU_] |184| 
     875 00000215 FF87          LSL       AL,8                  ; [CPU_] |184| 
     876 00000216 D121          MOVB      XAR1,#33              ; [CPU_] |184| 
     877 00000217 CD96          AND       AH,*+XAR6[AR0],#0xfeff ; [CPU_] |184| 
         00000218 FEFF 
     878 00000219 CAA8          OR        AL,AH                 ; [CPU_] |184| 
     879                      .dwpsn  file "C:/ti/controlSUITE/device_support/F2837xD/v170/F2837xD_common/source/F2837xD_sdfm_drive
     880 0000021a D021          MOVB      XAR0,#33              ; [CPU_] |185| 
     881 0000021b CDA5          AND       AH,AR5,#0x0003        ; [CPU_] |185| 
         0000021c 0003 
     882 0000021d FF99          LSL       AH,10                 ; [CPU_] |185| 
     883                      .dwpsn  file "C:/ti/controlSUITE/device_support/F2837xD/v170/F2837xD_common/source/F2837xD_sdfm_drive
     884 0000021e 969E          MOV       *+XAR6[AR1],AL        ; [CPU_] |184| 
     885                      .dwpsn  file "C:/ti/controlSUITE/device_support/F2837xD/v170/F2837xD_common/source/F2837xD_sdfm_drive
     886 0000021f CC96          AND       AL,*+XAR6[AR0],#0xf3ff ; [CPU_] |185| 
         00000220 F3FF 
     887 00000221 D021          MOVB      XAR0,#33              ; [CPU_] |185| 
     888 00000222 CBA9          OR        AH,AL                 ; [CPU_] |185| 
     889                      .dwpsn  file "C:/ti/controlSUITE/device_support/F2837xD/v170/F2837xD_common/source/F2837xD_sdfm_drive
     890 00000223 1BAA          CMP       PH,#256               ; [CPU_] |188| 
         00000224 0100 
     891                      .dwpsn  file "C:/ti/controlSUITE/device_support/F2837xD/v170/F2837xD_common/source/F2837xD_sdfm_drive
     892 00000225 9796          MOV       *+XAR6[AR0],AH        ; [CPU_] |185| 
     893                      .dwpsn  file "C:/ti/controlSUITE/device_support/F2837xD/v170/F2837xD_common/source/F2837xD_sdfm_drive
     894 00000226 6905          B         $C$L23,LOS            ; [CPU_] |188| 
     895                      ; branchcc occurs ; [] |188| 
     896                      .dwpsn  file "C:/ti/controlSUITE/device_support/F2837xD/v170/F2837xD_common/source/F2837xD_sdfm_drive
     897 00000227 DE21          ADDB      XAR6,#33              ; [CPU_] |189| 
     898 00000228 18C6          AND       *+XAR6[0],#0xff00     ; [CPU_] |189| 
         00000229 FF00 
     899 0000022a 6F0E          B         $C$L24,UNC            ; [CPU_] |189| 
     900                      ; branch occurs ; [] |189| 
     901 0000022b       $C$L23:    
TMS320C2000 Assembler PC v15.12.1 Sun May 28 10:39:54 2017

Tools Copyright (c) 1996-2015 Texas Instruments Incorporated
F2837xD_sdfm_drivers.asm                                             PAGE   20

     902                      .dwpsn  file "C:/ti/controlSUITE/device_support/F2837xD/v170/F2837xD_common/source/F2837xD_sdfm_drive
     903 0000022b 5603          MOV       ACC,PL << 1           ; [CPU_] |188| 
         0000022c 01AB 
     904 0000022d 8F00!         MOVL      XAR4,#_SDFM           ; [CPU_U] |188| 
         0000022e 0000 
     905 0000022f 5601          ADDL      XAR4,ACC              ; [CPU_] |188| 
         00000230 00A4 
     906 00000231 8AC4          MOVL      XAR4,*+XAR4[0]        ; [CPU_] |188| 
     907 00000232 D021          MOVB      XAR0,#33              ; [CPU_] |188| 
     908 00000233 93AA          MOV       AH,PH                 ; [CPU_] |188| 
     909 00000234 9294          MOV       AL,*+XAR4[AR0]        ; [CPU_] |188| 
     910 00000235 D021          MOVB      XAR0,#33              ; [CPU_] |188| 
     911 00000236 3DA9          MOVB      AL,AH.LSB             ; [CPU_] |188| 
     912 00000237 9694          MOV       *+XAR4[AR0],AL        ; [CPU_] |188| 
     913 00000238       $C$L24:    
     914                      .dwpsn  file "C:/ti/controlSUITE/device_support/F2837xD/v170/F2837xD_common/source/F2837xD_sdfm_drive
     915 00000238 5603          MOV       ACC,PL << 1           ; [CPU_] |192| 
         00000239 01AB 
     916 0000023a 8F00!         MOVL      XAR4,#_SDFM           ; [CPU_U] |192| 
         0000023b 0000 
     917 0000023c 5601          ADDL      XAR4,ACC              ; [CPU_] |192| 
         0000023d 00A4 
     918 0000023e 92A7          MOV       AL,AR7                ; [CPU_] |192| 
     919 0000023f 8AC4          MOVL      XAR4,*+XAR4[0]        ; [CPU_] |192| 
     920 00000240 9001          ANDB      AL,#1                 ; [CPU_] |192| 
     921 00000241 D022          MOVB      XAR0,#34              ; [CPU_] |192| 
     922 00000242 FF89          LSL       AL,10                 ; [CPU_] |192| 
     923 00000243 CD94          AND       AH,*+XAR4[AR0],#0xfbff ; [CPU_] |192| 
         00000244 FBFF 
     924 00000245 D022          MOVB      XAR0,#34              ; [CPU_] |192| 
     925 00000246 CAA8          OR        AL,AH                 ; [CPU_] |192| 
     926 00000247 9694          MOV       *+XAR4[AR0],AL        ; [CPU_] |192| 
     927 00000248 92A7          MOV       AL,AR7                ; [CPU_] |192| 
     928                      .dwpsn  file "C:/ti/controlSUITE/device_support/F2837xD/v170/F2837xD_common/source/F2837xD_sdfm_drive
     929 00000249 6054          B         $C$L28,NEQ            ; [CPU_] |193| 
     930                      ; branchcc occurs ; [] |193| 
     931                      .dwpsn  file "C:/ti/controlSUITE/device_support/F2837xD/v170/F2837xD_common/source/F2837xD_sdfm_drive
     932 0000024a D022          MOVB      XAR0,#34              ; [CPU_] |193| 
     933 0000024b CC94          AND       AL,*+XAR4[AR0],#0x07ff ; [CPU_] |193| 
         0000024c 07FF 
     934 0000024d 88A9          MOVZ      AR6,AL                ; [CPU_] |193| 
     935 0000024e D022          MOVB      XAR0,#34              ; [CPU_] |193| 
     936 0000024f 5603          MOV       ACC,T << #11          ; [CPU_] |193| 
         00000250 0BAC 
     937 00000251 CAA6          OR        AL,AR6                ; [CPU_] |193| 
     938 00000252 9694          MOV       *+XAR4[AR0],AL        ; [CPU_] |193| 
     939 00000253 6F4A          B         $C$L28,UNC            ; [CPU_] |193| 
     940                      ; branch occurs ; [] |193| 
     941 00000254       $C$L25:    
     942 00000254 2901          CLRC      SXM                   ; [CPU_] 
     943                      .dwpsn  file "C:/ti/controlSUITE/device_support/F2837xD/v170/F2837xD_common/source/F2837xD_sdfm_drive
     944 00000255 7680!         MOVL      XAR6,#_SDFM           ; [CPU_U] |170| 
         00000256 0000 
     945 00000257 5603          MOV       ACC,PL << 1           ; [CPU_] |170| 
         00000258 01AB 
TMS320C2000 Assembler PC v15.12.1 Sun May 28 10:39:54 2017

Tools Copyright (c) 1996-2015 Texas Instruments Incorporated
F2837xD_sdfm_drivers.asm                                             PAGE   21

     946 00000259 5601          ADDL      XAR6,ACC              ; [CPU_] |170| 
         0000025a 00A6 
     947 0000025b CCA4          AND       AL,AR4,#0x0001        ; [CPU_] |170| 
         0000025c 0001 
     948 0000025d C4C6          MOVL      XAR6,*+XAR6[0]        ; [CPU_] |170| 
     949 0000025e D011          MOVB      XAR0,#17              ; [CPU_] |170| 
     950 0000025f FF87          LSL       AL,8                  ; [CPU_] |170| 
     951 00000260 D111          MOVB      XAR1,#17              ; [CPU_] |170| 
     952 00000261 CD96          AND       AH,*+XAR6[AR0],#0xfeff ; [CPU_] |170| 
         00000262 FEFF 
     953 00000263 CAA8          OR        AL,AH                 ; [CPU_] |170| 
     954                      .dwpsn  file "C:/ti/controlSUITE/device_support/F2837xD/v170/F2837xD_common/source/F2837xD_sdfm_drive
     955 00000264 D011          MOVB      XAR0,#17              ; [CPU_] |171| 
     956 00000265 CDA5          AND       AH,AR5,#0x0003        ; [CPU_] |171| 
         00000266 0003 
     957 00000267 FF99          LSL       AH,10                 ; [CPU_] |171| 
     958                      .dwpsn  file "C:/ti/controlSUITE/device_support/F2837xD/v170/F2837xD_common/source/F2837xD_sdfm_drive
     959 00000268 969E          MOV       *+XAR6[AR1],AL        ; [CPU_] |170| 
     960                      .dwpsn  file "C:/ti/controlSUITE/device_support/F2837xD/v170/F2837xD_common/source/F2837xD_sdfm_drive
     961 00000269 CC96          AND       AL,*+XAR6[AR0],#0xf3ff ; [CPU_] |171| 
         0000026a F3FF 
     962 0000026b D011          MOVB      XAR0,#17              ; [CPU_] |171| 
     963 0000026c CBA9          OR        AH,AL                 ; [CPU_] |171| 
     964                      .dwpsn  file "C:/ti/controlSUITE/device_support/F2837xD/v170/F2837xD_common/source/F2837xD_sdfm_drive
     965 0000026d 1BAA          CMP       PH,#256               ; [CPU_] |174| 
         0000026e 0100 
     966                      .dwpsn  file "C:/ti/controlSUITE/device_support/F2837xD/v170/F2837xD_common/source/F2837xD_sdfm_drive
     967 0000026f 9796          MOV       *+XAR6[AR0],AH        ; [CPU_] |171| 
     968                      .dwpsn  file "C:/ti/controlSUITE/device_support/F2837xD/v170/F2837xD_common/source/F2837xD_sdfm_drive
     969 00000270 6905          B         $C$L26,LOS            ; [CPU_] |174| 
     970                      ; branchcc occurs ; [] |174| 
     971                      .dwpsn  file "C:/ti/controlSUITE/device_support/F2837xD/v170/F2837xD_common/source/F2837xD_sdfm_drive
     972 00000271 DE11          ADDB      XAR6,#17              ; [CPU_] |175| 
     973 00000272 18C6          AND       *+XAR6[0],#0xff00     ; [CPU_] |175| 
         00000273 FF00 
     974 00000274 6F0E          B         $C$L27,UNC            ; [CPU_] |175| 
     975                      ; branch occurs ; [] |175| 
     976 00000275       $C$L26:    
     977                      .dwpsn  file "C:/ti/controlSUITE/device_support/F2837xD/v170/F2837xD_common/source/F2837xD_sdfm_drive
     978 00000275 5603          MOV       ACC,PL << 1           ; [CPU_] |174| 
         00000276 01AB 
     979 00000277 8F00!         MOVL      XAR4,#_SDFM           ; [CPU_U] |174| 
         00000278 0000 
     980 00000279 5601          ADDL      XAR4,ACC              ; [CPU_] |174| 
         0000027a 00A4 
     981 0000027b 8AC4          MOVL      XAR4,*+XAR4[0]        ; [CPU_] |174| 
     982 0000027c D011          MOVB      XAR0,#17              ; [CPU_] |174| 
     983 0000027d 93AA          MOV       AH,PH                 ; [CPU_] |174| 
     984 0000027e 9294          MOV       AL,*+XAR4[AR0]        ; [CPU_] |174| 
     985 0000027f D011          MOVB      XAR0,#17              ; [CPU_] |174| 
     986 00000280 3DA9          MOVB      AL,AH.LSB             ; [CPU_] |174| 
     987 00000281 9694          MOV       *+XAR4[AR0],AL        ; [CPU_] |174| 
     988 00000282       $C$L27:    
     989                      .dwpsn  file "C:/ti/controlSUITE/device_support/F2837xD/v170/F2837xD_common/source/F2837xD_sdfm_drive
     990 00000282 5603          MOV       ACC,PL << 1           ; [CPU_] |178| 
TMS320C2000 Assembler PC v15.12.1 Sun May 28 10:39:54 2017

Tools Copyright (c) 1996-2015 Texas Instruments Incorporated
F2837xD_sdfm_drivers.asm                                             PAGE   22

         00000283 01AB 
     991 00000284 8F00!         MOVL      XAR4,#_SDFM           ; [CPU_U] |178| 
         00000285 0000 
     992 00000286 5601          ADDL      XAR4,ACC              ; [CPU_] |178| 
         00000287 00A4 
     993 00000288 92A7          MOV       AL,AR7                ; [CPU_] |178| 
     994 00000289 8AC4          MOVL      XAR4,*+XAR4[0]        ; [CPU_] |178| 
     995 0000028a 9001          ANDB      AL,#1                 ; [CPU_] |178| 
     996 0000028b D012          MOVB      XAR0,#18              ; [CPU_] |178| 
     997 0000028c FF89          LSL       AL,10                 ; [CPU_] |178| 
     998 0000028d CD94          AND       AH,*+XAR4[AR0],#0xfbff ; [CPU_] |178| 
         0000028e FBFF 
     999 0000028f D012          MOVB      XAR0,#18              ; [CPU_] |178| 
    1000 00000290 CAA8          OR        AL,AH                 ; [CPU_] |178| 
    1001 00000291 9694          MOV       *+XAR4[AR0],AL        ; [CPU_] |178| 
    1002 00000292 92A7          MOV       AL,AR7                ; [CPU_] |178| 
    1003                      .dwpsn  file "C:/ti/controlSUITE/device_support/F2837xD/v170/F2837xD_common/source/F2837xD_sdfm_drive
    1004 00000293 600A          B         $C$L28,NEQ            ; [CPU_] |179| 
    1005                      ; branchcc occurs ; [] |179| 
    1006                      .dwpsn  file "C:/ti/controlSUITE/device_support/F2837xD/v170/F2837xD_common/source/F2837xD_sdfm_drive
    1007 00000294 D012          MOVB      XAR0,#18              ; [CPU_] |179| 
    1008 00000295 CC94          AND       AL,*+XAR4[AR0],#0x07ff ; [CPU_] |179| 
         00000296 07FF 
    1009 00000297 88A9          MOVZ      AR6,AL                ; [CPU_] |179| 
    1010 00000298 D012          MOVB      XAR0,#18              ; [CPU_] |179| 
    1011 00000299 5603          MOV       ACC,T << #11          ; [CPU_] |179| 
         0000029a 0BAC 
    1012 0000029b CAA6          OR        AL,AR6                ; [CPU_] |179| 
    1013 0000029c 9694          MOV       *+XAR4[AR0],AL        ; [CPU_] |179| 
    1014 0000029d       $C$L28:    
    1015 0000029d 761A   EDIS
    1016 0000029e 8BBE          MOVL      XAR1,*--SP            ; [CPU_] 
    1017                      .dwcfi  cfa_offset, -2
    1018                      .dwcfi  restore_reg, 7
    1019 0000029f FF69          SPM       #0                    ; [CPU_] 
    1020              $C$DW$36        .dwtag  DW_TAG_TI_branch
    1021                      .dwattr $C$DW$36, DW_AT_low_pc(0x00)
    1022                      .dwattr $C$DW$36, DW_AT_TI_return
    1023              
    1024 000002a0 0006          LRETR     ; [CPU_] 
    1025                      ; return occurs ; [] 
    1026                      .dwattr $C$DW$22, DW_AT_TI_end_file("C:/ti/controlSUITE/device_support/F2837xD/v170/F2837xD_common/so
    1027                      .dwattr $C$DW$22, DW_AT_TI_end_line(0xe4)
    1028                      .dwattr $C$DW$22, DW_AT_TI_end_column(0x01)
    1029                      .dwendentry
    1030                      .dwendtag $C$DW$22
    1031              
    1032 000002a1               .sect   ".text"
    1033                      .clink
    1034                      .global _Sdfm_configureInterrupt
    1035              
    1036              $C$DW$37        .dwtag  DW_TAG_subprogram
    1037                      .dwattr $C$DW$37, DW_AT_name("Sdfm_configureInterrupt")
    1038                      .dwattr $C$DW$37, DW_AT_low_pc(_Sdfm_configureInterrupt)
    1039                      .dwattr $C$DW$37, DW_AT_high_pc(0x00)
TMS320C2000 Assembler PC v15.12.1 Sun May 28 10:39:54 2017

Tools Copyright (c) 1996-2015 Texas Instruments Incorporated
F2837xD_sdfm_drivers.asm                                             PAGE   23

    1040                      .dwattr $C$DW$37, DW_AT_TI_symbol_name("_Sdfm_configureInterrupt")
    1041                      .dwattr $C$DW$37, DW_AT_external
    1042                      .dwattr $C$DW$37, DW_AT_TI_begin_file("C:/ti/controlSUITE/device_support/F2837xD/v170/F2837xD_common/
    1043                      .dwattr $C$DW$37, DW_AT_TI_begin_line(0xfa)
    1044                      .dwattr $C$DW$37, DW_AT_TI_begin_column(0x06)
    1045                      .dwattr $C$DW$37, DW_AT_TI_max_frame_size(-4)
    1046                      .dwpsn  file "C:/ti/controlSUITE/device_support/F2837xD/v170/F2837xD_common/source/F2837xD_sdfm_drive
    1047              
    1048                      .dwfde $C$DW$CIE, _Sdfm_configureInterrupt
    1049              $C$DW$38        .dwtag  DW_TAG_formal_parameter
    1050                      .dwattr $C$DW$38, DW_AT_name("sdfmNumber")
    1051                      .dwattr $C$DW$38, DW_AT_TI_symbol_name("_sdfmNumber")
    1052                      .dwattr $C$DW$38, DW_AT_type(*$C$DW$T$19)
    1053                      .dwattr $C$DW$38, DW_AT_location[DW_OP_reg0]
    1054              
    1055              $C$DW$39        .dwtag  DW_TAG_formal_parameter
    1056                      .dwattr $C$DW$39, DW_AT_name("filterNumber")
    1057                      .dwattr $C$DW$39, DW_AT_TI_symbol_name("_filterNumber")
    1058                      .dwattr $C$DW$39, DW_AT_type(*$C$DW$T$19)
    1059                      .dwattr $C$DW$39, DW_AT_location[DW_OP_reg1]
    1060              
    1061              $C$DW$40        .dwtag  DW_TAG_formal_parameter
    1062                      .dwattr $C$DW$40, DW_AT_name("IEH_Switch")
    1063                      .dwattr $C$DW$40, DW_AT_TI_symbol_name("_IEH_Switch")
    1064                      .dwattr $C$DW$40, DW_AT_type(*$C$DW$T$19)
    1065                      .dwattr $C$DW$40, DW_AT_location[DW_OP_reg12]
    1066              
    1067              $C$DW$41        .dwtag  DW_TAG_formal_parameter
    1068                      .dwattr $C$DW$41, DW_AT_name("IEL_Switch")
    1069                      .dwattr $C$DW$41, DW_AT_TI_symbol_name("_IEL_Switch")
    1070                      .dwattr $C$DW$41, DW_AT_type(*$C$DW$T$19)
    1071                      .dwattr $C$DW$41, DW_AT_location[DW_OP_reg14]
    1072              
    1073              $C$DW$42        .dwtag  DW_TAG_formal_parameter
    1074                      .dwattr $C$DW$42, DW_AT_name("MFIE_Switch")
    1075                      .dwattr $C$DW$42, DW_AT_TI_symbol_name("_MFIE_Switch")
    1076                      .dwattr $C$DW$42, DW_AT_type(*$C$DW$T$19)
    1077                      .dwattr $C$DW$42, DW_AT_location[DW_OP_breg20 -5]
    1078              
    1079              $C$DW$43        .dwtag  DW_TAG_formal_parameter
    1080                      .dwattr $C$DW$43, DW_AT_name("AE_Switch")
    1081                      .dwattr $C$DW$43, DW_AT_TI_symbol_name("_AE_Switch")
    1082                      .dwattr $C$DW$43, DW_AT_type(*$C$DW$T$19)
    1083                      .dwattr $C$DW$43, DW_AT_location[DW_OP_breg20 -6]
    1084              
    1085              
    1086              ;***************************************************************
    1087              ;* FNAME: _Sdfm_configureInterrupt      FR SIZE:   2           *
    1088              ;*                                                             *
    1089              ;* FUNCTION ENVIRONMENT                                        *
    1090              ;*                                                             *
    1091              ;* FUNCTION PROPERTIES                                         *
    1092              ;*                            0 Parameter,  0 Auto,  2 SOE     *
    1093              ;***************************************************************
    1094              
TMS320C2000 Assembler PC v15.12.1 Sun May 28 10:39:54 2017

Tools Copyright (c) 1996-2015 Texas Instruments Incorporated
F2837xD_sdfm_drivers.asm                                             PAGE   24

    1095              _Sdfm_configureInterrupt:
    1096              ;* AR6   assigned to $O$C1
    1097              ;* AR6   assigned to $O$C2
    1098              ;* AR6   assigned to $O$C3
    1099              ;* AR6   assigned to $O$C4
    1100              ;* AL    assigned to _filterNumber
    1101              $C$DW$44        .dwtag  DW_TAG_variable
    1102                      .dwattr $C$DW$44, DW_AT_name("filterNumber")
    1103                      .dwattr $C$DW$44, DW_AT_TI_symbol_name("_filterNumber")
    1104                      .dwattr $C$DW$44, DW_AT_type(*$C$DW$T$101)
    1105                      .dwattr $C$DW$44, DW_AT_location[DW_OP_reg0]
    1106              
    1107              ;* AR4   assigned to _IEH_Switch
    1108              $C$DW$45        .dwtag  DW_TAG_variable
    1109                      .dwattr $C$DW$45, DW_AT_name("IEH_Switch")
    1110                      .dwattr $C$DW$45, DW_AT_TI_symbol_name("_IEH_Switch")
    1111                      .dwattr $C$DW$45, DW_AT_type(*$C$DW$T$101)
    1112                      .dwattr $C$DW$45, DW_AT_location[DW_OP_reg12]
    1113              
    1114              ;* AR5   assigned to _IEL_Switch
    1115              $C$DW$46        .dwtag  DW_TAG_variable
    1116                      .dwattr $C$DW$46, DW_AT_name("IEL_Switch")
    1117                      .dwattr $C$DW$46, DW_AT_TI_symbol_name("_IEL_Switch")
    1118                      .dwattr $C$DW$46, DW_AT_type(*$C$DW$T$101)
    1119                      .dwattr $C$DW$46, DW_AT_location[DW_OP_reg14]
    1120              
    1121              ;* PL    assigned to _MFIE_Switch
    1122              $C$DW$47        .dwtag  DW_TAG_variable
    1123                      .dwattr $C$DW$47, DW_AT_name("MFIE_Switch")
    1124                      .dwattr $C$DW$47, DW_AT_TI_symbol_name("_MFIE_Switch")
    1125                      .dwattr $C$DW$47, DW_AT_type(*$C$DW$T$101)
    1126                      .dwattr $C$DW$47, DW_AT_location[DW_OP_reg2]
    1127              
    1128              ;* AR7   assigned to _AE_Switch
    1129              $C$DW$48        .dwtag  DW_TAG_variable
    1130                      .dwattr $C$DW$48, DW_AT_name("AE_Switch")
    1131                      .dwattr $C$DW$48, DW_AT_TI_symbol_name("_AE_Switch")
    1132                      .dwattr $C$DW$48, DW_AT_type(*$C$DW$T$101)
    1133                      .dwattr $C$DW$48, DW_AT_location[DW_OP_reg18]
    1134              
    1135                      .dwcfi  cfa_offset, -2
    1136                      .dwcfi  save_reg_to_mem, 26, 0
    1137 000002a1 88A9          MOVZ      AR6,AL                ; [CPU_] |251| 
    1138 000002a2 B2BD          MOVL      *SP++,XAR1            ; [CPU_] 
    1139                      .dwcfi  save_reg_to_mem, 7, 2
    1140                      .dwcfi  cfa_offset, -4
    1141 000002a3 92A8          MOV       AL,AH                 ; [CPU_] |251| 
    1142 000002a4 8046          MOVZ      AR7,*-SP[6]           ; [CPU_] |251| 
    1143 000002a5 2745          MOV       PL,*-SP[5]            ; [CPU_] |251| 
    1144 000002a6 7622   EALLOW
    1145                      .dwpsn  file "C:/ti/controlSUITE/device_support/F2837xD/v170/F2837xD_common/source/F2837xD_sdfm_drive
    1146 000002a7 5201          CMPB      AL,#1                 ; [CPU_] |255| 
    1147 000002a8 FFE1          B         $C$L31,EQ             ; [CPU_] |255| 
         000002a9 0091 
    1148                      ; branchcc occurs ; [] |255| 
TMS320C2000 Assembler PC v15.12.1 Sun May 28 10:39:54 2017

Tools Copyright (c) 1996-2015 Texas Instruments Incorporated
F2837xD_sdfm_drivers.asm                                             PAGE   25

    1149 000002aa 5202          CMPB      AL,#2                 ; [CPU_] |255| 
    1150 000002ab 6161          B         $C$L30,EQ             ; [CPU_] |255| 
    1151                      ; branchcc occurs ; [] |255| 
    1152 000002ac 5204          CMPB      AL,#4                 ; [CPU_] |255| 
    1153 000002ad 6132          B         $C$L29,EQ             ; [CPU_] |255| 
    1154                      ; branchcc occurs ; [] |255| 
    1155 000002ae 5208          CMPB      AL,#8                 ; [CPU_] |255| 
    1156 000002af FFE0          B         $C$L32,NEQ            ; [CPU_] |255| 
         000002b0 00B6 
    1157                      ; branchcc occurs ; [] |255| 
    1158 000002b1 2901          CLRC      SXM                   ; [CPU_] 
    1159                      .dwpsn  file "C:/ti/controlSUITE/device_support/F2837xD/v170/F2837xD_common/source/F2837xD_sdfm_drive
    1160 000002b2 5603          MOV       ACC,AR6 << 1          ; [CPU_] |280| 
         000002b3 01A6 
    1161 000002b4 7680!         MOVL      XAR6,#_SDFM           ; [CPU_U] |280| 
         000002b5 0000 
    1162 000002b6 5601          ADDL      XAR6,ACC              ; [CPU_] |280| 
         000002b7 00A6 
    1163 000002b8 CCA4          AND       AL,AR4,#0x0001        ; [CPU_] |280| 
         000002b9 0001 
    1164 000002ba C4C6          MOVL      XAR6,*+XAR6[0]        ; [CPU_] |280| 
    1165 000002bb D045          MOVB      XAR0,#69              ; [CPU_] |280| 
    1166 000002bc FF84          LSL       AL,5                  ; [CPU_] |280| 
    1167 000002bd D145          MOVB      XAR1,#69              ; [CPU_] |280| 
    1168 000002be CD96          AND       AH,*+XAR6[AR0],#0xffdf ; [CPU_] |280| 
         000002bf FFDF 
    1169 000002c0 CAA8          OR        AL,AH                 ; [CPU_] |280| 
    1170                      .dwpsn  file "C:/ti/controlSUITE/device_support/F2837xD/v170/F2837xD_common/source/F2837xD_sdfm_drive
    1171 000002c1 D045          MOVB      XAR0,#69              ; [CPU_] |281| 
    1172                      .dwpsn  file "C:/ti/controlSUITE/device_support/F2837xD/v170/F2837xD_common/source/F2837xD_sdfm_drive
    1173 000002c2 969E          MOV       *+XAR6[AR1],AL        ; [CPU_] |280| 
    1174                      .dwpsn  file "C:/ti/controlSUITE/device_support/F2837xD/v170/F2837xD_common/source/F2837xD_sdfm_drive
    1175 000002c3 CCA5          AND       AL,AR5,#0x0001        ; [CPU_] |281| 
         000002c4 0001 
    1176 000002c5 FF85          LSL       AL,6                  ; [CPU_] |281| 
    1177 000002c6 D145          MOVB      XAR1,#69              ; [CPU_] |281| 
    1178 000002c7 CD96          AND       AH,*+XAR6[AR0],#0xffbf ; [CPU_] |281| 
         000002c8 FFBF 
    1179 000002c9 CAA8          OR        AL,AH                 ; [CPU_] |281| 
    1180                      .dwpsn  file "C:/ti/controlSUITE/device_support/F2837xD/v170/F2837xD_common/source/F2837xD_sdfm_drive
    1181 000002ca D045          MOVB      XAR0,#69              ; [CPU_] |282| 
    1182 000002cb CDAB          AND       AH,PL,#0x0001         ; [CPU_] |282| 
         000002cc 0001 
    1183 000002cd FF98          LSL       AH,9                  ; [CPU_] |282| 
    1184                      .dwpsn  file "C:/ti/controlSUITE/device_support/F2837xD/v170/F2837xD_common/source/F2837xD_sdfm_drive
    1185 000002ce 969E          MOV       *+XAR6[AR1],AL        ; [CPU_] |281| 
    1186                      .dwpsn  file "C:/ti/controlSUITE/device_support/F2837xD/v170/F2837xD_common/source/F2837xD_sdfm_drive
    1187 000002cf D145          MOVB      XAR1,#69              ; [CPU_] |282| 
    1188 000002d0 CC96          AND       AL,*+XAR6[AR0],#0xfdff ; [CPU_] |282| 
         000002d1 FDFF 
    1189 000002d2 CBA9          OR        AH,AL                 ; [CPU_] |282| 
    1190                      .dwpsn  file "C:/ti/controlSUITE/device_support/F2837xD/v170/F2837xD_common/source/F2837xD_sdfm_drive
    1191 000002d3 D041          MOVB      XAR0,#65              ; [CPU_] |283| 
    1192 000002d4 CCA7          AND       AL,AR7,#0x0001        ; [CPU_] |283| 
         000002d5 0001 
TMS320C2000 Assembler PC v15.12.1 Sun May 28 10:39:54 2017

Tools Copyright (c) 1996-2015 Texas Instruments Incorporated
F2837xD_sdfm_drivers.asm                                             PAGE   26

    1193 000002d6 FF88          LSL       AL,9                  ; [CPU_] |283| 
    1194                      .dwpsn  file "C:/ti/controlSUITE/device_support/F2837xD/v170/F2837xD_common/source/F2837xD_sdfm_drive
    1195 000002d7 979E          MOV       *+XAR6[AR1],AH        ; [CPU_] |282| 
    1196                      .dwpsn  file "C:/ti/controlSUITE/device_support/F2837xD/v170/F2837xD_common/source/F2837xD_sdfm_drive
    1197 000002d8 CD96          AND       AH,*+XAR6[AR0],#0xfdff ; [CPU_] |283| 
         000002d9 FDFF 
    1198 000002da D041          MOVB      XAR0,#65              ; [CPU_] |283| 
    1199 000002db CAA8          OR        AL,AH                 ; [CPU_] |283| 
    1200 000002dc 9696          MOV       *+XAR6[AR0],AL        ; [CPU_] |283| 
    1201                      .dwpsn  file "C:/ti/controlSUITE/device_support/F2837xD/v170/F2837xD_common/source/F2837xD_sdfm_drive
    1202 000002dd FFEF          B         $C$L32,UNC            ; [CPU_] |284| 
         000002de 0088 
    1203                      ; branch occurs ; [] |284| 
    1204 000002df       $C$L29:    
    1205 000002df 2901          CLRC      SXM                   ; [CPU_] 
    1206                      .dwpsn  file "C:/ti/controlSUITE/device_support/F2837xD/v170/F2837xD_common/source/F2837xD_sdfm_drive
    1207 000002e0 5603          MOV       ACC,AR6 << 1          ; [CPU_] |273| 
         000002e1 01A6 
    1208 000002e2 7680!         MOVL      XAR6,#_SDFM           ; [CPU_U] |273| 
         000002e3 0000 
    1209 000002e4 5601          ADDL      XAR6,ACC              ; [CPU_] |273| 
         000002e5 00A6 
    1210 000002e6 CCA4          AND       AL,AR4,#0x0001        ; [CPU_] |273| 
         000002e7 0001 
    1211 000002e8 C4C6          MOVL      XAR6,*+XAR6[0]        ; [CPU_] |273| 
    1212 000002e9 D035          MOVB      XAR0,#53              ; [CPU_] |273| 
    1213 000002ea FF84          LSL       AL,5                  ; [CPU_] |273| 
    1214 000002eb D135          MOVB      XAR1,#53              ; [CPU_] |273| 
    1215 000002ec CD96          AND       AH,*+XAR6[AR0],#0xffdf ; [CPU_] |273| 
         000002ed FFDF 
    1216 000002ee CAA8          OR        AL,AH                 ; [CPU_] |273| 
    1217                      .dwpsn  file "C:/ti/controlSUITE/device_support/F2837xD/v170/F2837xD_common/source/F2837xD_sdfm_drive
    1218 000002ef D035          MOVB      XAR0,#53              ; [CPU_] |274| 
    1219                      .dwpsn  file "C:/ti/controlSUITE/device_support/F2837xD/v170/F2837xD_common/source/F2837xD_sdfm_drive
    1220 000002f0 969E          MOV       *+XAR6[AR1],AL        ; [CPU_] |273| 
    1221                      .dwpsn  file "C:/ti/controlSUITE/device_support/F2837xD/v170/F2837xD_common/source/F2837xD_sdfm_drive
    1222 000002f1 CCA5          AND       AL,AR5,#0x0001        ; [CPU_] |274| 
         000002f2 0001 
    1223 000002f3 FF85          LSL       AL,6                  ; [CPU_] |274| 
    1224 000002f4 D135          MOVB      XAR1,#53              ; [CPU_] |274| 
    1225 000002f5 CD96          AND       AH,*+XAR6[AR0],#0xffbf ; [CPU_] |274| 
         000002f6 FFBF 
    1226 000002f7 CAA8          OR        AL,AH                 ; [CPU_] |274| 
    1227                      .dwpsn  file "C:/ti/controlSUITE/device_support/F2837xD/v170/F2837xD_common/source/F2837xD_sdfm_drive
    1228 000002f8 D035          MOVB      XAR0,#53              ; [CPU_] |275| 
    1229 000002f9 CDAB          AND       AH,PL,#0x0001         ; [CPU_] |275| 
         000002fa 0001 
    1230 000002fb FF98          LSL       AH,9                  ; [CPU_] |275| 
    1231                      .dwpsn  file "C:/ti/controlSUITE/device_support/F2837xD/v170/F2837xD_common/source/F2837xD_sdfm_drive
    1232 000002fc 969E          MOV       *+XAR6[AR1],AL        ; [CPU_] |274| 
    1233                      .dwpsn  file "C:/ti/controlSUITE/device_support/F2837xD/v170/F2837xD_common/source/F2837xD_sdfm_drive
    1234 000002fd D135          MOVB      XAR1,#53              ; [CPU_] |275| 
    1235 000002fe CC96          AND       AL,*+XAR6[AR0],#0xfdff ; [CPU_] |275| 
         000002ff FDFF 
    1236 00000300 CBA9          OR        AH,AL                 ; [CPU_] |275| 
TMS320C2000 Assembler PC v15.12.1 Sun May 28 10:39:54 2017

Tools Copyright (c) 1996-2015 Texas Instruments Incorporated
F2837xD_sdfm_drivers.asm                                             PAGE   27

    1237                      .dwpsn  file "C:/ti/controlSUITE/device_support/F2837xD/v170/F2837xD_common/source/F2837xD_sdfm_drive
    1238 00000301 D031          MOVB      XAR0,#49              ; [CPU_] |276| 
    1239 00000302 CCA7          AND       AL,AR7,#0x0001        ; [CPU_] |276| 
         00000303 0001 
    1240 00000304 FF88          LSL       AL,9                  ; [CPU_] |276| 
    1241                      .dwpsn  file "C:/ti/controlSUITE/device_support/F2837xD/v170/F2837xD_common/source/F2837xD_sdfm_drive
    1242 00000305 979E          MOV       *+XAR6[AR1],AH        ; [CPU_] |275| 
    1243                      .dwpsn  file "C:/ti/controlSUITE/device_support/F2837xD/v170/F2837xD_common/source/F2837xD_sdfm_drive
    1244 00000306 CD96          AND       AH,*+XAR6[AR0],#0xfdff ; [CPU_] |276| 
         00000307 FDFF 
    1245 00000308 D031          MOVB      XAR0,#49              ; [CPU_] |276| 
    1246 00000309 CAA8          OR        AL,AH                 ; [CPU_] |276| 
    1247 0000030a 9696          MOV       *+XAR6[AR0],AL        ; [CPU_] |276| 
    1248                      .dwpsn  file "C:/ti/controlSUITE/device_support/F2837xD/v170/F2837xD_common/source/F2837xD_sdfm_drive
    1249 0000030b 6F5A          B         $C$L32,UNC            ; [CPU_] |277| 
    1250                      ; branch occurs ; [] |277| 
    1251 0000030c       $C$L30:    
    1252 0000030c 2901          CLRC      SXM                   ; [CPU_] 
    1253                      .dwpsn  file "C:/ti/controlSUITE/device_support/F2837xD/v170/F2837xD_common/source/F2837xD_sdfm_drive
    1254 0000030d 5603          MOV       ACC,AR6 << 1          ; [CPU_] |266| 
         0000030e 01A6 
    1255 0000030f 7680!         MOVL      XAR6,#_SDFM           ; [CPU_U] |266| 
         00000310 0000 
    1256 00000311 5601          ADDL      XAR6,ACC              ; [CPU_] |266| 
         00000312 00A6 
    1257 00000313 CCA4          AND       AL,AR4,#0x0001        ; [CPU_] |266| 
         00000314 0001 
    1258 00000315 C4C6          MOVL      XAR6,*+XAR6[0]        ; [CPU_] |266| 
    1259 00000316 D025          MOVB      XAR0,#37              ; [CPU_] |266| 
    1260 00000317 FF84          LSL       AL,5                  ; [CPU_] |266| 
    1261 00000318 D125          MOVB      XAR1,#37              ; [CPU_] |266| 
    1262 00000319 CD96          AND       AH,*+XAR6[AR0],#0xffdf ; [CPU_] |266| 
         0000031a FFDF 
    1263 0000031b CAA8          OR        AL,AH                 ; [CPU_] |266| 
    1264                      .dwpsn  file "C:/ti/controlSUITE/device_support/F2837xD/v170/F2837xD_common/source/F2837xD_sdfm_drive
    1265 0000031c D025          MOVB      XAR0,#37              ; [CPU_] |267| 
    1266                      .dwpsn  file "C:/ti/controlSUITE/device_support/F2837xD/v170/F2837xD_common/source/F2837xD_sdfm_drive
    1267 0000031d 969E          MOV       *+XAR6[AR1],AL        ; [CPU_] |266| 
    1268                      .dwpsn  file "C:/ti/controlSUITE/device_support/F2837xD/v170/F2837xD_common/source/F2837xD_sdfm_drive
    1269 0000031e CCA5          AND       AL,AR5,#0x0001        ; [CPU_] |267| 
         0000031f 0001 
    1270 00000320 FF85          LSL       AL,6                  ; [CPU_] |267| 
    1271 00000321 D125          MOVB      XAR1,#37              ; [CPU_] |267| 
    1272 00000322 CD96          AND       AH,*+XAR6[AR0],#0xffbf ; [CPU_] |267| 
         00000323 FFBF 
    1273 00000324 CAA8          OR        AL,AH                 ; [CPU_] |267| 
    1274                      .dwpsn  file "C:/ti/controlSUITE/device_support/F2837xD/v170/F2837xD_common/source/F2837xD_sdfm_drive
    1275 00000325 D025          MOVB      XAR0,#37              ; [CPU_] |268| 
    1276 00000326 CDAB          AND       AH,PL,#0x0001         ; [CPU_] |268| 
         00000327 0001 
    1277 00000328 FF98          LSL       AH,9                  ; [CPU_] |268| 
    1278                      .dwpsn  file "C:/ti/controlSUITE/device_support/F2837xD/v170/F2837xD_common/source/F2837xD_sdfm_drive
    1279 00000329 969E          MOV       *+XAR6[AR1],AL        ; [CPU_] |267| 
    1280                      .dwpsn  file "C:/ti/controlSUITE/device_support/F2837xD/v170/F2837xD_common/source/F2837xD_sdfm_drive
    1281 0000032a D125          MOVB      XAR1,#37              ; [CPU_] |268| 
TMS320C2000 Assembler PC v15.12.1 Sun May 28 10:39:54 2017

Tools Copyright (c) 1996-2015 Texas Instruments Incorporated
F2837xD_sdfm_drivers.asm                                             PAGE   28

    1282 0000032b CC96          AND       AL,*+XAR6[AR0],#0xfdff ; [CPU_] |268| 
         0000032c FDFF 
    1283 0000032d CBA9          OR        AH,AL                 ; [CPU_] |268| 
    1284                      .dwpsn  file "C:/ti/controlSUITE/device_support/F2837xD/v170/F2837xD_common/source/F2837xD_sdfm_drive
    1285 0000032e D021          MOVB      XAR0,#33              ; [CPU_] |269| 
    1286 0000032f CCA7          AND       AL,AR7,#0x0001        ; [CPU_] |269| 
         00000330 0001 
    1287 00000331 FF88          LSL       AL,9                  ; [CPU_] |269| 
    1288                      .dwpsn  file "C:/ti/controlSUITE/device_support/F2837xD/v170/F2837xD_common/source/F2837xD_sdfm_drive
    1289 00000332 979E          MOV       *+XAR6[AR1],AH        ; [CPU_] |268| 
    1290                      .dwpsn  file "C:/ti/controlSUITE/device_support/F2837xD/v170/F2837xD_common/source/F2837xD_sdfm_drive
    1291 00000333 CD96          AND       AH,*+XAR6[AR0],#0xfdff ; [CPU_] |269| 
         00000334 FDFF 
    1292 00000335 D021          MOVB      XAR0,#33              ; [CPU_] |269| 
    1293 00000336 CAA8          OR        AL,AH                 ; [CPU_] |269| 
    1294 00000337 9696          MOV       *+XAR6[AR0],AL        ; [CPU_] |269| 
    1295                      .dwpsn  file "C:/ti/controlSUITE/device_support/F2837xD/v170/F2837xD_common/source/F2837xD_sdfm_drive
    1296 00000338 6F2D          B         $C$L32,UNC            ; [CPU_] |270| 
    1297                      ; branch occurs ; [] |270| 
    1298 00000339       $C$L31:    
    1299 00000339 2901          CLRC      SXM                   ; [CPU_] 
    1300                      .dwpsn  file "C:/ti/controlSUITE/device_support/F2837xD/v170/F2837xD_common/source/F2837xD_sdfm_drive
    1301 0000033a 5603          MOV       ACC,AR6 << 1          ; [CPU_] |259| 
         0000033b 01A6 
    1302 0000033c 7680!         MOVL      XAR6,#_SDFM           ; [CPU_U] |259| 
         0000033d 0000 
    1303 0000033e 5601          ADDL      XAR6,ACC              ; [CPU_] |259| 
         0000033f 00A6 
    1304 00000340 CCA4          AND       AL,AR4,#0x0001        ; [CPU_] |259| 
         00000341 0001 
    1305 00000342 C4C6          MOVL      XAR6,*+XAR6[0]        ; [CPU_] |259| 
    1306 00000343 D015          MOVB      XAR0,#21              ; [CPU_] |259| 
    1307 00000344 FF84          LSL       AL,5                  ; [CPU_] |259| 
    1308 00000345 D115          MOVB      XAR1,#21              ; [CPU_] |259| 
    1309 00000346 CD96          AND       AH,*+XAR6[AR0],#0xffdf ; [CPU_] |259| 
         00000347 FFDF 
    1310 00000348 CAA8          OR        AL,AH                 ; [CPU_] |259| 
    1311                      .dwpsn  file "C:/ti/controlSUITE/device_support/F2837xD/v170/F2837xD_common/source/F2837xD_sdfm_drive
    1312 00000349 D015          MOVB      XAR0,#21              ; [CPU_] |260| 
    1313                      .dwpsn  file "C:/ti/controlSUITE/device_support/F2837xD/v170/F2837xD_common/source/F2837xD_sdfm_drive
    1314 0000034a 969E          MOV       *+XAR6[AR1],AL        ; [CPU_] |259| 
    1315                      .dwpsn  file "C:/ti/controlSUITE/device_support/F2837xD/v170/F2837xD_common/source/F2837xD_sdfm_drive
    1316 0000034b CCA5          AND       AL,AR5,#0x0001        ; [CPU_] |260| 
         0000034c 0001 
    1317 0000034d FF85          LSL       AL,6                  ; [CPU_] |260| 
    1318 0000034e D115          MOVB      XAR1,#21              ; [CPU_] |260| 
    1319 0000034f CD96          AND       AH,*+XAR6[AR0],#0xffbf ; [CPU_] |260| 
         00000350 FFBF 
    1320 00000351 CAA8          OR        AL,AH                 ; [CPU_] |260| 
    1321                      .dwpsn  file "C:/ti/controlSUITE/device_support/F2837xD/v170/F2837xD_common/source/F2837xD_sdfm_drive
    1322 00000352 D015          MOVB      XAR0,#21              ; [CPU_] |261| 
    1323 00000353 CDAB          AND       AH,PL,#0x0001         ; [CPU_] |261| 
         00000354 0001 
    1324 00000355 FF98          LSL       AH,9                  ; [CPU_] |261| 
    1325                      .dwpsn  file "C:/ti/controlSUITE/device_support/F2837xD/v170/F2837xD_common/source/F2837xD_sdfm_drive
TMS320C2000 Assembler PC v15.12.1 Sun May 28 10:39:54 2017

Tools Copyright (c) 1996-2015 Texas Instruments Incorporated
F2837xD_sdfm_drivers.asm                                             PAGE   29

    1326 00000356 969E          MOV       *+XAR6[AR1],AL        ; [CPU_] |260| 
    1327                      .dwpsn  file "C:/ti/controlSUITE/device_support/F2837xD/v170/F2837xD_common/source/F2837xD_sdfm_drive
    1328 00000357 D115          MOVB      XAR1,#21              ; [CPU_] |261| 
    1329 00000358 CC96          AND       AL,*+XAR6[AR0],#0xfdff ; [CPU_] |261| 
         00000359 FDFF 
    1330 0000035a CBA9          OR        AH,AL                 ; [CPU_] |261| 
    1331                      .dwpsn  file "C:/ti/controlSUITE/device_support/F2837xD/v170/F2837xD_common/source/F2837xD_sdfm_drive
    1332 0000035b D011          MOVB      XAR0,#17              ; [CPU_] |262| 
    1333 0000035c CCA7          AND       AL,AR7,#0x0001        ; [CPU_] |262| 
         0000035d 0001 
    1334 0000035e FF88          LSL       AL,9                  ; [CPU_] |262| 
    1335                      .dwpsn  file "C:/ti/controlSUITE/device_support/F2837xD/v170/F2837xD_common/source/F2837xD_sdfm_drive
    1336 0000035f 979E          MOV       *+XAR6[AR1],AH        ; [CPU_] |261| 
    1337                      .dwpsn  file "C:/ti/controlSUITE/device_support/F2837xD/v170/F2837xD_common/source/F2837xD_sdfm_drive
    1338 00000360 CD96          AND       AH,*+XAR6[AR0],#0xfdff ; [CPU_] |262| 
         00000361 FDFF 
    1339 00000362 D011          MOVB      XAR0,#17              ; [CPU_] |262| 
    1340 00000363 CAA8          OR        AL,AH                 ; [CPU_] |262| 
    1341 00000364 9696          MOV       *+XAR6[AR0],AL        ; [CPU_] |262| 
    1342 00000365       $C$L32:    
    1343 00000365 761A   EDIS
    1344 00000366 8BBE          MOVL      XAR1,*--SP            ; [CPU_] 
    1345                      .dwcfi  cfa_offset, -2
    1346                      .dwcfi  restore_reg, 7
    1347 00000367 FF69          SPM       #0                    ; [CPU_] 
    1348              $C$DW$49        .dwtag  DW_TAG_TI_branch
    1349                      .dwattr $C$DW$49, DW_AT_low_pc(0x00)
    1350                      .dwattr $C$DW$49, DW_AT_TI_return
    1351              
    1352 00000368 0006          LRETR     ; [CPU_] 
    1353                      ; return occurs ; [] 
    1354                      .dwattr $C$DW$37, DW_AT_TI_end_file("C:/ti/controlSUITE/device_support/F2837xD/v170/F2837xD_common/so
    1355                      .dwattr $C$DW$37, DW_AT_TI_end_line(0x121)
    1356                      .dwattr $C$DW$37, DW_AT_TI_end_column(0x01)
    1357                      .dwendentry
    1358                      .dwendtag $C$DW$37
    1359              
    1360 00000369               .sect   ".text"
    1361                      .clink
    1362                      .global _Sdfm_configureExternalreset
    1363              
    1364              $C$DW$50        .dwtag  DW_TAG_subprogram
    1365                      .dwattr $C$DW$50, DW_AT_name("Sdfm_configureExternalreset")
    1366                      .dwattr $C$DW$50, DW_AT_low_pc(_Sdfm_configureExternalreset)
    1367                      .dwattr $C$DW$50, DW_AT_high_pc(0x00)
    1368                      .dwattr $C$DW$50, DW_AT_TI_symbol_name("_Sdfm_configureExternalreset")
    1369                      .dwattr $C$DW$50, DW_AT_external
    1370                      .dwattr $C$DW$50, DW_AT_TI_begin_file("C:/ti/controlSUITE/device_support/F2837xD/v170/F2837xD_common/
    1371                      .dwattr $C$DW$50, DW_AT_TI_begin_line(0x131)
    1372                      .dwattr $C$DW$50, DW_AT_TI_begin_column(0x06)
    1373                      .dwattr $C$DW$50, DW_AT_TI_max_frame_size(-4)
    1374                      .dwpsn  file "C:/ti/controlSUITE/device_support/F2837xD/v170/F2837xD_common/source/F2837xD_sdfm_drive
    1375              
    1376                      .dwfde $C$DW$CIE, _Sdfm_configureExternalreset
    1377              $C$DW$51        .dwtag  DW_TAG_formal_parameter
TMS320C2000 Assembler PC v15.12.1 Sun May 28 10:39:54 2017

Tools Copyright (c) 1996-2015 Texas Instruments Incorporated
F2837xD_sdfm_drivers.asm                                             PAGE   30

    1378                      .dwattr $C$DW$51, DW_AT_name("sdfmNumber")
    1379                      .dwattr $C$DW$51, DW_AT_TI_symbol_name("_sdfmNumber")
    1380                      .dwattr $C$DW$51, DW_AT_type(*$C$DW$T$19)
    1381                      .dwattr $C$DW$51, DW_AT_location[DW_OP_reg0]
    1382              
    1383              $C$DW$52        .dwtag  DW_TAG_formal_parameter
    1384                      .dwattr $C$DW$52, DW_AT_name("filter1_Config_ext_reset")
    1385                      .dwattr $C$DW$52, DW_AT_TI_symbol_name("_filter1_Config_ext_reset")
    1386                      .dwattr $C$DW$52, DW_AT_type(*$C$DW$T$19)
    1387                      .dwattr $C$DW$52, DW_AT_location[DW_OP_reg1]
    1388              
    1389              $C$DW$53        .dwtag  DW_TAG_formal_parameter
    1390                      .dwattr $C$DW$53, DW_AT_name("filter2_Config_ext_reset")
    1391                      .dwattr $C$DW$53, DW_AT_TI_symbol_name("_filter2_Config_ext_reset")
    1392                      .dwattr $C$DW$53, DW_AT_type(*$C$DW$T$19)
    1393                      .dwattr $C$DW$53, DW_AT_location[DW_OP_reg12]
    1394              
    1395              $C$DW$54        .dwtag  DW_TAG_formal_parameter
    1396                      .dwattr $C$DW$54, DW_AT_name("filter3_Config_ext_reset")
    1397                      .dwattr $C$DW$54, DW_AT_TI_symbol_name("_filter3_Config_ext_reset")
    1398                      .dwattr $C$DW$54, DW_AT_type(*$C$DW$T$19)
    1399                      .dwattr $C$DW$54, DW_AT_location[DW_OP_reg14]
    1400              
    1401              $C$DW$55        .dwtag  DW_TAG_formal_parameter
    1402                      .dwattr $C$DW$55, DW_AT_name("filter4_Config_ext_reset")
    1403                      .dwattr $C$DW$55, DW_AT_TI_symbol_name("_filter4_Config_ext_reset")
    1404                      .dwattr $C$DW$55, DW_AT_type(*$C$DW$T$19)
    1405                      .dwattr $C$DW$55, DW_AT_location[DW_OP_breg20 -5]
    1406              
    1407              
    1408              ;***************************************************************
    1409              ;* FNAME: _Sdfm_configureExternalreset  FR SIZE:   2           *
    1410              ;*                                                             *
    1411              ;* FUNCTION ENVIRONMENT                                        *
    1412              ;*                                                             *
    1413              ;* FUNCTION PROPERTIES                                         *
    1414              ;*                            0 Parameter,  0 Auto,  2 SOE     *
    1415              ;***************************************************************
    1416              
    1417              _Sdfm_configureExternalreset:
    1418              ;* AR6   assigned to $O$C1
    1419              ;* PL    assigned to _filter1_Config_ext_reset
    1420              $C$DW$56        .dwtag  DW_TAG_variable
    1421                      .dwattr $C$DW$56, DW_AT_name("filter1_Config_ext_reset")
    1422                      .dwattr $C$DW$56, DW_AT_TI_symbol_name("_filter1_Config_ext_reset")
    1423                      .dwattr $C$DW$56, DW_AT_type(*$C$DW$T$101)
    1424                      .dwattr $C$DW$56, DW_AT_location[DW_OP_reg2]
    1425              
    1426              ;* AR4   assigned to _filter2_Config_ext_reset
    1427              $C$DW$57        .dwtag  DW_TAG_variable
    1428                      .dwattr $C$DW$57, DW_AT_name("filter2_Config_ext_reset")
    1429                      .dwattr $C$DW$57, DW_AT_TI_symbol_name("_filter2_Config_ext_reset")
    1430                      .dwattr $C$DW$57, DW_AT_type(*$C$DW$T$101)
    1431                      .dwattr $C$DW$57, DW_AT_location[DW_OP_reg12]
    1432              
TMS320C2000 Assembler PC v15.12.1 Sun May 28 10:39:54 2017

Tools Copyright (c) 1996-2015 Texas Instruments Incorporated
F2837xD_sdfm_drivers.asm                                             PAGE   31

    1433              ;* AR5   assigned to _filter3_Config_ext_reset
    1434              $C$DW$58        .dwtag  DW_TAG_variable
    1435                      .dwattr $C$DW$58, DW_AT_name("filter3_Config_ext_reset")
    1436                      .dwattr $C$DW$58, DW_AT_TI_symbol_name("_filter3_Config_ext_reset")
    1437                      .dwattr $C$DW$58, DW_AT_type(*$C$DW$T$101)
    1438                      .dwattr $C$DW$58, DW_AT_location[DW_OP_reg14]
    1439              
    1440              ;* AR7   assigned to _filter4_Config_ext_reset
    1441              $C$DW$59        .dwtag  DW_TAG_variable
    1442                      .dwattr $C$DW$59, DW_AT_name("filter4_Config_ext_reset")
    1443                      .dwattr $C$DW$59, DW_AT_TI_symbol_name("_filter4_Config_ext_reset")
    1444                      .dwattr $C$DW$59, DW_AT_type(*$C$DW$T$101)
    1445                      .dwattr $C$DW$59, DW_AT_location[DW_OP_reg18]
    1446              
    1447                      .dwcfi  cfa_offset, -2
    1448                      .dwcfi  save_reg_to_mem, 26, 0
    1449 00000369 B2BD          MOVL      *SP++,XAR1            ; [CPU_] 
    1450                      .dwcfi  save_reg_to_mem, 7, 2
    1451                      .dwcfi  cfa_offset, -4
    1452 0000036a 27A8          MOV       PL,AH                 ; [CPU_] |306| 
    1453 0000036b 8045          MOVZ      AR7,*-SP[5]           ; [CPU_] |306| 
    1454 0000036c 7622   EALLOW
    1455 0000036d 2901          CLRC      SXM                   ; [CPU_] 
    1456                      .dwpsn  file "C:/ti/controlSUITE/device_support/F2837xD/v170/F2837xD_common/source/F2837xD_sdfm_drive
    1457 0000036e 7680!         MOVL      XAR6,#_SDFM           ; [CPU_U] |309| 
         0000036f 0000 
    1458 00000370 5603          MOV       ACC,AL << 1           ; [CPU_] |309| 
         00000371 01A9 
    1459 00000372 5601          ADDL      XAR6,ACC              ; [CPU_] |309| 
         00000373 00A6 
    1460 00000374 CCAB          AND       AL,PL,#0x0001         ; [CPU_] |309| 
         00000375 0001 
    1461 00000376 C4C6          MOVL      XAR6,*+XAR6[0]        ; [CPU_] |309| 
    1462 00000377 D011          MOVB      XAR0,#17              ; [CPU_] |309| 
    1463 00000378 FF8B          LSL       AL,12                 ; [CPU_] |309| 
    1464 00000379 D111          MOVB      XAR1,#17              ; [CPU_] |309| 
    1465 0000037a CD96          AND       AH,*+XAR6[AR0],#0xefff ; [CPU_] |309| 
         0000037b EFFF 
    1466 0000037c CAA8          OR        AL,AH                 ; [CPU_] |309| 
    1467                      .dwpsn  file "C:/ti/controlSUITE/device_support/F2837xD/v170/F2837xD_common/source/F2837xD_sdfm_drive
    1468 0000037d D021          MOVB      XAR0,#33              ; [CPU_] |310| 
    1469                      .dwpsn  file "C:/ti/controlSUITE/device_support/F2837xD/v170/F2837xD_common/source/F2837xD_sdfm_drive
    1470 0000037e 969E          MOV       *+XAR6[AR1],AL        ; [CPU_] |309| 
    1471                      .dwpsn  file "C:/ti/controlSUITE/device_support/F2837xD/v170/F2837xD_common/source/F2837xD_sdfm_drive
    1472 0000037f CCA4          AND       AL,AR4,#0x0001        ; [CPU_] |310| 
         00000380 0001 
    1473 00000381 D121          MOVB      XAR1,#33              ; [CPU_] |310| 
    1474 00000382 FF8B          LSL       AL,12                 ; [CPU_] |310| 
    1475 00000383 CD96          AND       AH,*+XAR6[AR0],#0xefff ; [CPU_] |310| 
         00000384 EFFF 
    1476 00000385 CAA8          OR        AL,AH                 ; [CPU_] |310| 
    1477                      .dwpsn  file "C:/ti/controlSUITE/device_support/F2837xD/v170/F2837xD_common/source/F2837xD_sdfm_drive
    1478 00000386 D031          MOVB      XAR0,#49              ; [CPU_] |311| 
    1479 00000387 CDA5          AND       AH,AR5,#0x0001        ; [CPU_] |311| 
         00000388 0001 
TMS320C2000 Assembler PC v15.12.1 Sun May 28 10:39:54 2017

Tools Copyright (c) 1996-2015 Texas Instruments Incorporated
F2837xD_sdfm_drivers.asm                                             PAGE   32

    1480 00000389 FF9B          LSL       AH,12                 ; [CPU_] |311| 
    1481                      .dwpsn  file "C:/ti/controlSUITE/device_support/F2837xD/v170/F2837xD_common/source/F2837xD_sdfm_drive
    1482 0000038a 969E          MOV       *+XAR6[AR1],AL        ; [CPU_] |310| 
    1483                      .dwpsn  file "C:/ti/controlSUITE/device_support/F2837xD/v170/F2837xD_common/source/F2837xD_sdfm_drive
    1484 0000038b D131          MOVB      XAR1,#49              ; [CPU_] |311| 
    1485 0000038c CC96          AND       AL,*+XAR6[AR0],#0xefff ; [CPU_] |311| 
         0000038d EFFF 
    1486 0000038e CBA9          OR        AH,AL                 ; [CPU_] |311| 
    1487                      .dwpsn  file "C:/ti/controlSUITE/device_support/F2837xD/v170/F2837xD_common/source/F2837xD_sdfm_drive
    1488 0000038f D041          MOVB      XAR0,#65              ; [CPU_] |312| 
    1489 00000390 CCA7          AND       AL,AR7,#0x0001        ; [CPU_] |312| 
         00000391 0001 
    1490 00000392 FF8B          LSL       AL,12                 ; [CPU_] |312| 
    1491                      .dwpsn  file "C:/ti/controlSUITE/device_support/F2837xD/v170/F2837xD_common/source/F2837xD_sdfm_drive
    1492 00000393 979E          MOV       *+XAR6[AR1],AH        ; [CPU_] |311| 
    1493                      .dwpsn  file "C:/ti/controlSUITE/device_support/F2837xD/v170/F2837xD_common/source/F2837xD_sdfm_drive
    1494 00000394 CD96          AND       AH,*+XAR6[AR0],#0xefff ; [CPU_] |312| 
         00000395 EFFF 
    1495 00000396 D041          MOVB      XAR0,#65              ; [CPU_] |312| 
    1496 00000397 CAA8          OR        AL,AH                 ; [CPU_] |312| 
    1497 00000398 9696          MOV       *+XAR6[AR0],AL        ; [CPU_] |312| 
    1498 00000399 761A   EDIS
    1499 0000039a FF69          SPM       #0                    ; [CPU_] 
    1500 0000039b 8BBE          MOVL      XAR1,*--SP            ; [CPU_] 
    1501                      .dwcfi  cfa_offset, -2
    1502                      .dwcfi  restore_reg, 7
    1503              $C$DW$60        .dwtag  DW_TAG_TI_branch
    1504                      .dwattr $C$DW$60, DW_AT_low_pc(0x00)
    1505                      .dwattr $C$DW$60, DW_AT_TI_return
    1506              
    1507 0000039c 0006          LRETR     ; [CPU_] 
    1508                      ; return occurs ; [] 
    1509                      .dwattr $C$DW$50, DW_AT_TI_end_file("C:/ti/controlSUITE/device_support/F2837xD/v170/F2837xD_common/so
    1510                      .dwattr $C$DW$50, DW_AT_TI_end_line(0x13b)
    1511                      .dwattr $C$DW$50, DW_AT_TI_end_column(0x01)
    1512                      .dwendentry
    1513                      .dwendtag $C$DW$50
    1514              
    1515 0000039d               .sect   ".text"
    1516                      .clink
    1517                      .global _Sdfm_enableMFE
    1518              
    1519              $C$DW$61        .dwtag  DW_TAG_subprogram
    1520                      .dwattr $C$DW$61, DW_AT_name("Sdfm_enableMFE")
    1521                      .dwattr $C$DW$61, DW_AT_low_pc(_Sdfm_enableMFE)
    1522                      .dwattr $C$DW$61, DW_AT_high_pc(0x00)
    1523                      .dwattr $C$DW$61, DW_AT_TI_symbol_name("_Sdfm_enableMFE")
    1524                      .dwattr $C$DW$61, DW_AT_external
    1525                      .dwattr $C$DW$61, DW_AT_TI_begin_file("C:/ti/controlSUITE/device_support/F2837xD/v170/F2837xD_common/
    1526                      .dwattr $C$DW$61, DW_AT_TI_begin_line(0x145)
    1527                      .dwattr $C$DW$61, DW_AT_TI_begin_column(0x06)
    1528                      .dwattr $C$DW$61, DW_AT_TI_max_frame_size(-2)
    1529                      .dwpsn  file "C:/ti/controlSUITE/device_support/F2837xD/v170/F2837xD_common/source/F2837xD_sdfm_drive
    1530              
    1531                      .dwfde $C$DW$CIE, _Sdfm_enableMFE
TMS320C2000 Assembler PC v15.12.1 Sun May 28 10:39:54 2017

Tools Copyright (c) 1996-2015 Texas Instruments Incorporated
F2837xD_sdfm_drivers.asm                                             PAGE   33

    1532              $C$DW$62        .dwtag  DW_TAG_formal_parameter
    1533                      .dwattr $C$DW$62, DW_AT_name("sdfmNumber")
    1534                      .dwattr $C$DW$62, DW_AT_TI_symbol_name("_sdfmNumber")
    1535                      .dwattr $C$DW$62, DW_AT_type(*$C$DW$T$19)
    1536                      .dwattr $C$DW$62, DW_AT_location[DW_OP_reg0]
    1537              
    1538              
    1539              ;***************************************************************
    1540              ;* FNAME: _Sdfm_enableMFE               FR SIZE:   0           *
    1541              ;*                                                             *
    1542              ;* FUNCTION ENVIRONMENT                                        *
    1543              ;*                                                             *
    1544              ;* FUNCTION PROPERTIES                                         *
    1545              ;*                            0 Parameter,  0 Auto,  0 SOE     *
    1546              ;***************************************************************
    1547              
    1548 0000039d       _Sdfm_enableMFE:
    1549                      .dwcfi  cfa_offset, -2
    1550                      .dwcfi  save_reg_to_mem, 26, 0
    1551 0000039d 7622   EALLOW
    1552 0000039e 2901          CLRC      SXM                   ; [CPU_] 
    1553                      .dwpsn  file "C:/ti/controlSUITE/device_support/F2837xD/v170/F2837xD_common/source/F2837xD_sdfm_drive
    1554 0000039f 8F00!         MOVL      XAR4,#_SDFM           ; [CPU_U] |329| 
         000003a0 0000 
    1555 000003a1 5603          MOV       ACC,AL << 1           ; [CPU_] |329| 
         000003a2 01A9 
    1556 000003a3 5601          ADDL      XAR4,ACC              ; [CPU_] |329| 
         000003a4 00A4 
    1557 000003a5 8AC4          MOVL      XAR4,*+XAR4[0]        ; [CPU_] |329| 
    1558 000003a6 1AF4          OR        *+XAR4[6],#0x0800     ; [CPU_] |329| 
         000003a7 0800 
    1559 000003a8 761A   EDIS
    1560 000003a9 FF69          SPM       #0                    ; [CPU_] 
    1561              $C$DW$63        .dwtag  DW_TAG_TI_branch
    1562                      .dwattr $C$DW$63, DW_AT_low_pc(0x00)
    1563                      .dwattr $C$DW$63, DW_AT_TI_return
    1564              
    1565 000003aa 0006          LRETR     ; [CPU_] 
    1566                      ; return occurs ; [] 
    1567                      .dwattr $C$DW$61, DW_AT_TI_end_file("C:/ti/controlSUITE/device_support/F2837xD/v170/F2837xD_common/so
    1568                      .dwattr $C$DW$61, DW_AT_TI_end_line(0x14c)
    1569                      .dwattr $C$DW$61, DW_AT_TI_end_column(0x01)
    1570                      .dwendentry
    1571                      .dwendtag $C$DW$61
    1572              
    1573 000003ab               .sect   ".text"
    1574                      .clink
    1575                      .global _SDFM_disableMFE
    1576              
    1577              $C$DW$64        .dwtag  DW_TAG_subprogram
    1578                      .dwattr $C$DW$64, DW_AT_name("SDFM_disableMFE")
    1579                      .dwattr $C$DW$64, DW_AT_low_pc(_SDFM_disableMFE)
    1580                      .dwattr $C$DW$64, DW_AT_high_pc(0x00)
    1581                      .dwattr $C$DW$64, DW_AT_TI_symbol_name("_SDFM_disableMFE")
    1582                      .dwattr $C$DW$64, DW_AT_external
TMS320C2000 Assembler PC v15.12.1 Sun May 28 10:39:54 2017

Tools Copyright (c) 1996-2015 Texas Instruments Incorporated
F2837xD_sdfm_drivers.asm                                             PAGE   34

    1583                      .dwattr $C$DW$64, DW_AT_TI_begin_file("C:/ti/controlSUITE/device_support/F2837xD/v170/F2837xD_common/
    1584                      .dwattr $C$DW$64, DW_AT_TI_begin_line(0x156)
    1585                      .dwattr $C$DW$64, DW_AT_TI_begin_column(0x06)
    1586                      .dwattr $C$DW$64, DW_AT_TI_max_frame_size(-2)
    1587                      .dwpsn  file "C:/ti/controlSUITE/device_support/F2837xD/v170/F2837xD_common/source/F2837xD_sdfm_drive
    1588              
    1589                      .dwfde $C$DW$CIE, _SDFM_disableMFE
    1590              $C$DW$65        .dwtag  DW_TAG_formal_parameter
    1591                      .dwattr $C$DW$65, DW_AT_name("sdfmNumber")
    1592                      .dwattr $C$DW$65, DW_AT_TI_symbol_name("_sdfmNumber")
    1593                      .dwattr $C$DW$65, DW_AT_type(*$C$DW$T$19)
    1594                      .dwattr $C$DW$65, DW_AT_location[DW_OP_reg0]
    1595              
    1596              
    1597              ;***************************************************************
    1598              ;* FNAME: _SDFM_disableMFE              FR SIZE:   0           *
    1599              ;*                                                             *
    1600              ;* FUNCTION ENVIRONMENT                                        *
    1601              ;*                                                             *
    1602              ;* FUNCTION PROPERTIES                                         *
    1603              ;*                            0 Parameter,  0 Auto,  0 SOE     *
    1604              ;***************************************************************
    1605              
    1606 000003ab       _SDFM_disableMFE:
    1607                      .dwcfi  cfa_offset, -2
    1608                      .dwcfi  save_reg_to_mem, 26, 0
    1609 000003ab 7622   EALLOW
    1610 000003ac 2901          CLRC      SXM                   ; [CPU_] 
    1611                      .dwpsn  file "C:/ti/controlSUITE/device_support/F2837xD/v170/F2837xD_common/source/F2837xD_sdfm_drive
    1612 000003ad 8F00!         MOVL      XAR4,#_SDFM           ; [CPU_U] |346| 
         000003ae 0000 
    1613 000003af 5603          MOV       ACC,AL << 1           ; [CPU_] |346| 
         000003b0 01A9 
    1614 000003b1 5601          ADDL      XAR4,ACC              ; [CPU_] |346| 
         000003b2 00A4 
    1615 000003b3 8AC4          MOVL      XAR4,*+XAR4[0]        ; [CPU_] |346| 
    1616 000003b4 18F4          AND       *+XAR4[6],#0xf7ff     ; [CPU_] |346| 
         000003b5 F7FF 
    1617 000003b6 761A   EDIS
    1618 000003b7 FF69          SPM       #0                    ; [CPU_] 
    1619              $C$DW$66        .dwtag  DW_TAG_TI_branch
    1620                      .dwattr $C$DW$66, DW_AT_low_pc(0x00)
    1621                      .dwattr $C$DW$66, DW_AT_TI_return
    1622              
    1623 000003b8 0006          LRETR     ; [CPU_] 
    1624                      ; return occurs ; [] 
    1625                      .dwattr $C$DW$64, DW_AT_TI_end_file("C:/ti/controlSUITE/device_support/F2837xD/v170/F2837xD_common/so
    1626                      .dwattr $C$DW$64, DW_AT_TI_end_line(0x15d)
    1627                      .dwattr $C$DW$64, DW_AT_TI_end_column(0x01)
    1628                      .dwendentry
    1629                      .dwendtag $C$DW$64
    1630              
    1631 000003b9               .sect   ".text"
    1632                      .clink
    1633                      .global _Sdfm_enableMIE
TMS320C2000 Assembler PC v15.12.1 Sun May 28 10:39:54 2017

Tools Copyright (c) 1996-2015 Texas Instruments Incorporated
F2837xD_sdfm_drivers.asm                                             PAGE   35

    1634              
    1635              $C$DW$67        .dwtag  DW_TAG_subprogram
    1636                      .dwattr $C$DW$67, DW_AT_name("Sdfm_enableMIE")
    1637                      .dwattr $C$DW$67, DW_AT_low_pc(_Sdfm_enableMIE)
    1638                      .dwattr $C$DW$67, DW_AT_high_pc(0x00)
    1639                      .dwattr $C$DW$67, DW_AT_TI_symbol_name("_Sdfm_enableMIE")
    1640                      .dwattr $C$DW$67, DW_AT_external
    1641                      .dwattr $C$DW$67, DW_AT_TI_begin_file("C:/ti/controlSUITE/device_support/F2837xD/v170/F2837xD_common/
    1642                      .dwattr $C$DW$67, DW_AT_TI_begin_line(0x167)
    1643                      .dwattr $C$DW$67, DW_AT_TI_begin_column(0x06)
    1644                      .dwattr $C$DW$67, DW_AT_TI_max_frame_size(-2)
    1645                      .dwpsn  file "C:/ti/controlSUITE/device_support/F2837xD/v170/F2837xD_common/source/F2837xD_sdfm_drive
    1646              
    1647                      .dwfde $C$DW$CIE, _Sdfm_enableMIE
    1648              $C$DW$68        .dwtag  DW_TAG_formal_parameter
    1649                      .dwattr $C$DW$68, DW_AT_name("sdfmNumber")
    1650                      .dwattr $C$DW$68, DW_AT_TI_symbol_name("_sdfmNumber")
    1651                      .dwattr $C$DW$68, DW_AT_type(*$C$DW$T$19)
    1652                      .dwattr $C$DW$68, DW_AT_location[DW_OP_reg0]
    1653              
    1654              
    1655              ;***************************************************************
    1656              ;* FNAME: _Sdfm_enableMIE               FR SIZE:   0           *
    1657              ;*                                                             *
    1658              ;* FUNCTION ENVIRONMENT                                        *
    1659              ;*                                                             *
    1660              ;* FUNCTION PROPERTIES                                         *
    1661              ;*                            0 Parameter,  0 Auto,  0 SOE     *
    1662              ;***************************************************************
    1663              
    1664 000003b9       _Sdfm_enableMIE:
    1665                      .dwcfi  cfa_offset, -2
    1666                      .dwcfi  save_reg_to_mem, 26, 0
    1667 000003b9 7622   EALLOW
    1668 000003ba 2901          CLRC      SXM                   ; [CPU_] 
    1669                      .dwpsn  file "C:/ti/controlSUITE/device_support/F2837xD/v170/F2837xD_common/source/F2837xD_sdfm_drive
    1670 000003bb 8F00!         MOVL      XAR4,#_SDFM           ; [CPU_U] |363| 
         000003bc 0000 
    1671 000003bd 5603          MOV       ACC,AL << 1           ; [CPU_] |363| 
         000003be 01A9 
    1672 000003bf 5601          ADDL      XAR4,ACC              ; [CPU_] |363| 
         000003c0 00A4 
    1673 000003c1 8AC4          MOVL      XAR4,*+XAR4[0]        ; [CPU_] |363| 
    1674 000003c2 1AE4          OR        *+XAR4[4],#0x2000     ; [CPU_] |363| 
         000003c3 2000 
    1675 000003c4 761A   EDIS
    1676 000003c5 FF69          SPM       #0                    ; [CPU_] 
    1677              $C$DW$69        .dwtag  DW_TAG_TI_branch
    1678                      .dwattr $C$DW$69, DW_AT_low_pc(0x00)
    1679                      .dwattr $C$DW$69, DW_AT_TI_return
    1680              
    1681 000003c6 0006          LRETR     ; [CPU_] 
    1682                      ; return occurs ; [] 
    1683                      .dwattr $C$DW$67, DW_AT_TI_end_file("C:/ti/controlSUITE/device_support/F2837xD/v170/F2837xD_common/so
    1684                      .dwattr $C$DW$67, DW_AT_TI_end_line(0x16d)
TMS320C2000 Assembler PC v15.12.1 Sun May 28 10:39:54 2017

Tools Copyright (c) 1996-2015 Texas Instruments Incorporated
F2837xD_sdfm_drivers.asm                                             PAGE   36

    1685                      .dwattr $C$DW$67, DW_AT_TI_end_column(0x01)
    1686                      .dwendentry
    1687                      .dwendtag $C$DW$67
    1688              
    1689 000003c7               .sect   ".text"
    1690                      .clink
    1691                      .global _Sdfm_disableMIE
    1692              
    1693              $C$DW$70        .dwtag  DW_TAG_subprogram
    1694                      .dwattr $C$DW$70, DW_AT_name("Sdfm_disableMIE")
    1695                      .dwattr $C$DW$70, DW_AT_low_pc(_Sdfm_disableMIE)
    1696                      .dwattr $C$DW$70, DW_AT_high_pc(0x00)
    1697                      .dwattr $C$DW$70, DW_AT_TI_symbol_name("_Sdfm_disableMIE")
    1698                      .dwattr $C$DW$70, DW_AT_external
    1699                      .dwattr $C$DW$70, DW_AT_TI_begin_file("C:/ti/controlSUITE/device_support/F2837xD/v170/F2837xD_common/
    1700                      .dwattr $C$DW$70, DW_AT_TI_begin_line(0x177)
    1701                      .dwattr $C$DW$70, DW_AT_TI_begin_column(0x06)
    1702                      .dwattr $C$DW$70, DW_AT_TI_max_frame_size(-2)
    1703                      .dwpsn  file "C:/ti/controlSUITE/device_support/F2837xD/v170/F2837xD_common/source/F2837xD_sdfm_drive
    1704              
    1705                      .dwfde $C$DW$CIE, _Sdfm_disableMIE
    1706              $C$DW$71        .dwtag  DW_TAG_formal_parameter
    1707                      .dwattr $C$DW$71, DW_AT_name("sdfmNumber")
    1708                      .dwattr $C$DW$71, DW_AT_TI_symbol_name("_sdfmNumber")
    1709                      .dwattr $C$DW$71, DW_AT_type(*$C$DW$T$19)
    1710                      .dwattr $C$DW$71, DW_AT_location[DW_OP_reg0]
    1711              
    1712              
    1713              ;***************************************************************
    1714              ;* FNAME: _Sdfm_disableMIE              FR SIZE:   0           *
    1715              ;*                                                             *
    1716              ;* FUNCTION ENVIRONMENT                                        *
    1717              ;*                                                             *
    1718              ;* FUNCTION PROPERTIES                                         *
    1719              ;*                            0 Parameter,  0 Auto,  0 SOE     *
    1720              ;***************************************************************
    1721              
    1722 000003c7       _Sdfm_disableMIE:
    1723                      .dwcfi  cfa_offset, -2
    1724                      .dwcfi  save_reg_to_mem, 26, 0
    1725 000003c7 7622   EALLOW
    1726 000003c8 2901          CLRC      SXM                   ; [CPU_] 
    1727                      .dwpsn  file "C:/ti/controlSUITE/device_support/F2837xD/v170/F2837xD_common/source/F2837xD_sdfm_drive
    1728 000003c9 8F00!         MOVL      XAR4,#_SDFM           ; [CPU_U] |379| 
         000003ca 0000 
    1729 000003cb 5603          MOV       ACC,AL << 1           ; [CPU_] |379| 
         000003cc 01A9 
    1730 000003cd 5601          ADDL      XAR4,ACC              ; [CPU_] |379| 
         000003ce 00A4 
    1731 000003cf 8AC4          MOVL      XAR4,*+XAR4[0]        ; [CPU_] |379| 
    1732 000003d0 18E4          AND       *+XAR4[4],#0xdfff     ; [CPU_] |379| 
         000003d1 DFFF 
    1733 000003d2 761A   EDIS
    1734 000003d3 FF69          SPM       #0                    ; [CPU_] 
    1735              $C$DW$72        .dwtag  DW_TAG_TI_branch
TMS320C2000 Assembler PC v15.12.1 Sun May 28 10:39:54 2017

Tools Copyright (c) 1996-2015 Texas Instruments Incorporated
F2837xD_sdfm_drivers.asm                                             PAGE   37

    1736                      .dwattr $C$DW$72, DW_AT_low_pc(0x00)
    1737                      .dwattr $C$DW$72, DW_AT_TI_return
    1738              
    1739 000003d4 0006          LRETR     ; [CPU_] 
    1740                      ; return occurs ; [] 
    1741                      .dwattr $C$DW$70, DW_AT_TI_end_file("C:/ti/controlSUITE/device_support/F2837xD/v170/F2837xD_common/so
    1742                      .dwattr $C$DW$70, DW_AT_TI_end_line(0x17d)
    1743                      .dwattr $C$DW$70, DW_AT_TI_end_column(0x01)
    1744                      .dwendentry
    1745                      .dwendtag $C$DW$70
    1746              
    1747 000003d5               .sect   ".text"
    1748                      .clink
    1749                      .global _Sdfm_readFlagRegister
    1750              
    1751              $C$DW$73        .dwtag  DW_TAG_subprogram
    1752                      .dwattr $C$DW$73, DW_AT_name("Sdfm_readFlagRegister")
    1753                      .dwattr $C$DW$73, DW_AT_low_pc(_Sdfm_readFlagRegister)
    1754                      .dwattr $C$DW$73, DW_AT_high_pc(0x00)
    1755                      .dwattr $C$DW$73, DW_AT_TI_symbol_name("_Sdfm_readFlagRegister")
    1756                      .dwattr $C$DW$73, DW_AT_external
    1757                      .dwattr $C$DW$73, DW_AT_type(*$C$DW$T$55)
    1758                      .dwattr $C$DW$73, DW_AT_TI_begin_file("C:/ti/controlSUITE/device_support/F2837xD/v170/F2837xD_common/
    1759                      .dwattr $C$DW$73, DW_AT_TI_begin_line(0x186)
    1760                      .dwattr $C$DW$73, DW_AT_TI_begin_column(0x08)
    1761                      .dwattr $C$DW$73, DW_AT_TI_max_frame_size(-2)
    1762                      .dwpsn  file "C:/ti/controlSUITE/device_support/F2837xD/v170/F2837xD_common/source/F2837xD_sdfm_drive
    1763              
    1764                      .dwfde $C$DW$CIE, _Sdfm_readFlagRegister
    1765              $C$DW$74        .dwtag  DW_TAG_formal_parameter
    1766                      .dwattr $C$DW$74, DW_AT_name("sdfmNumber")
    1767                      .dwattr $C$DW$74, DW_AT_TI_symbol_name("_sdfmNumber")
    1768                      .dwattr $C$DW$74, DW_AT_type(*$C$DW$T$19)
    1769                      .dwattr $C$DW$74, DW_AT_location[DW_OP_reg0]
    1770              
    1771              
    1772              ;***************************************************************
    1773              ;* FNAME: _Sdfm_readFlagRegister        FR SIZE:   0           *
    1774              ;*                                                             *
    1775              ;* FUNCTION ENVIRONMENT                                        *
    1776              ;*                                                             *
    1777              ;* FUNCTION PROPERTIES                                         *
    1778              ;*                            0 Parameter,  0 Auto,  0 SOE     *
    1779              ;***************************************************************
    1780              
    1781 000003d5       _Sdfm_readFlagRegister:
    1782                      .dwcfi  cfa_offset, -2
    1783                      .dwcfi  save_reg_to_mem, 26, 0
    1784 000003d5 2901          CLRC      SXM                   ; [CPU_] 
    1785                      .dwpsn  file "C:/ti/controlSUITE/device_support/F2837xD/v170/F2837xD_common/source/F2837xD_sdfm_drive
    1786 000003d6 8F00!         MOVL      XAR4,#_SDFM           ; [CPU_U] |392| 
         000003d7 0000 
    1787 000003d8 5603          MOV       ACC,AL << 1           ; [CPU_] |392| 
         000003d9 01A9 
    1788 000003da 5601          ADDL      XAR4,ACC              ; [CPU_] |392| 
TMS320C2000 Assembler PC v15.12.1 Sun May 28 10:39:54 2017

Tools Copyright (c) 1996-2015 Texas Instruments Incorporated
F2837xD_sdfm_drivers.asm                                             PAGE   38

         000003db 00A4 
    1789 000003dc 8AC4          MOVL      XAR4,*+XAR4[0]        ; [CPU_] |392| 
    1790 000003dd 06C4          MOVL      ACC,*+XAR4[0]         ; [CPU_] |392| 
    1791              $C$DW$75        .dwtag  DW_TAG_TI_branch
    1792                      .dwattr $C$DW$75, DW_AT_low_pc(0x00)
    1793                      .dwattr $C$DW$75, DW_AT_TI_return
    1794              
    1795 000003de 0006          LRETR     ; [CPU_] 
    1796                      ; return occurs ; [] 
    1797                      .dwattr $C$DW$73, DW_AT_TI_end_file("C:/ti/controlSUITE/device_support/F2837xD/v170/F2837xD_common/so
    1798                      .dwattr $C$DW$73, DW_AT_TI_end_line(0x189)
    1799                      .dwattr $C$DW$73, DW_AT_TI_end_column(0x01)
    1800                      .dwendentry
    1801                      .dwendtag $C$DW$73
    1802              
    1803 000003df               .sect   ".text"
    1804                      .clink
    1805                      .global _Sdfm_clearFlagRegister
    1806              
    1807              $C$DW$76        .dwtag  DW_TAG_subprogram
    1808                      .dwattr $C$DW$76, DW_AT_name("Sdfm_clearFlagRegister")
    1809                      .dwattr $C$DW$76, DW_AT_low_pc(_Sdfm_clearFlagRegister)
    1810                      .dwattr $C$DW$76, DW_AT_high_pc(0x00)
    1811                      .dwattr $C$DW$76, DW_AT_TI_symbol_name("_Sdfm_clearFlagRegister")
    1812                      .dwattr $C$DW$76, DW_AT_external
    1813                      .dwattr $C$DW$76, DW_AT_TI_begin_file("C:/ti/controlSUITE/device_support/F2837xD/v170/F2837xD_common/
    1814                      .dwattr $C$DW$76, DW_AT_TI_begin_line(0x192)
    1815                      .dwattr $C$DW$76, DW_AT_TI_begin_column(0x06)
    1816                      .dwattr $C$DW$76, DW_AT_TI_max_frame_size(-2)
    1817                      .dwpsn  file "C:/ti/controlSUITE/device_support/F2837xD/v170/F2837xD_common/source/F2837xD_sdfm_drive
    1818              
    1819                      .dwfde $C$DW$CIE, _Sdfm_clearFlagRegister
    1820              $C$DW$77        .dwtag  DW_TAG_formal_parameter
    1821                      .dwattr $C$DW$77, DW_AT_name("sdfmNumber")
    1822                      .dwattr $C$DW$77, DW_AT_TI_symbol_name("_sdfmNumber")
    1823                      .dwattr $C$DW$77, DW_AT_type(*$C$DW$T$19)
    1824                      .dwattr $C$DW$77, DW_AT_location[DW_OP_reg12]
    1825              
    1826              $C$DW$78        .dwtag  DW_TAG_formal_parameter
    1827                      .dwattr $C$DW$78, DW_AT_name("sdfmReadFlagRegister")
    1828                      .dwattr $C$DW$78, DW_AT_TI_symbol_name("_sdfmReadFlagRegister")
    1829                      .dwattr $C$DW$78, DW_AT_type(*$C$DW$T$55)
    1830                      .dwattr $C$DW$78, DW_AT_location[DW_OP_reg0]
    1831              
    1832              
    1833              ;***************************************************************
    1834              ;* FNAME: _Sdfm_clearFlagRegister       FR SIZE:   0           *
    1835              ;*                                                             *
    1836              ;* FUNCTION ENVIRONMENT                                        *
    1837              ;*                                                             *
    1838              ;* FUNCTION PROPERTIES                                         *
    1839              ;*                            0 Parameter,  0 Auto,  0 SOE     *
    1840              ;***************************************************************
    1841              
    1842              _Sdfm_clearFlagRegister:
TMS320C2000 Assembler PC v15.12.1 Sun May 28 10:39:54 2017

Tools Copyright (c) 1996-2015 Texas Instruments Incorporated
F2837xD_sdfm_drivers.asm                                             PAGE   39

    1843              ;* AR6   assigned to _sdfmReadFlagRegister
    1844              $C$DW$79        .dwtag  DW_TAG_variable
    1845                      .dwattr $C$DW$79, DW_AT_name("sdfmReadFlagRegister")
    1846                      .dwattr $C$DW$79, DW_AT_TI_symbol_name("_sdfmReadFlagRegister")
    1847                      .dwattr $C$DW$79, DW_AT_type(*$C$DW$T$105)
    1848                      .dwattr $C$DW$79, DW_AT_location[DW_OP_reg16]
    1849              
    1850                      .dwcfi  cfa_offset, -2
    1851                      .dwcfi  save_reg_to_mem, 26, 0
    1852 000003df 1EA6          MOVL      XAR6,ACC              ; [CPU_] |403| 
    1853 000003e0 2901          CLRC      SXM                   ; [CPU_] 
    1854                      .dwpsn  file "C:/ti/controlSUITE/device_support/F2837xD/v170/F2837xD_common/source/F2837xD_sdfm_drive
    1855 000003e1 5603          MOV       ACC,AR4 << 1          ; [CPU_] |404| 
         000003e2 01A4 
    1856 000003e3 8F00!         MOVL      XAR4,#_SDFM           ; [CPU_U] |404| 
         000003e4 0000 
    1857 000003e5 5601          ADDL      XAR4,ACC              ; [CPU_] |404| 
         000003e6 00A4 
    1858 000003e7 8AC4          MOVL      XAR4,*+XAR4[0]        ; [CPU_] |404| 
    1859 000003e8 C2D4          MOVL      *+XAR4[2],XAR6        ; [CPU_] |404| 
    1860              $C$DW$80        .dwtag  DW_TAG_TI_branch
    1861                      .dwattr $C$DW$80, DW_AT_low_pc(0x00)
    1862                      .dwattr $C$DW$80, DW_AT_TI_return
    1863              
    1864 000003e9 0006          LRETR     ; [CPU_] 
    1865                      ; return occurs ; [] 
    1866                      .dwattr $C$DW$76, DW_AT_TI_end_file("C:/ti/controlSUITE/device_support/F2837xD/v170/F2837xD_common/so
    1867                      .dwattr $C$DW$76, DW_AT_TI_end_line(0x195)
    1868                      .dwattr $C$DW$76, DW_AT_TI_end_column(0x01)
    1869                      .dwendentry
    1870                      .dwendtag $C$DW$76
    1871              
    1872              ;**************************************************************
    1873              ;* UNDEFINED EXTERNAL REFERENCES                              *
    1874              ;**************************************************************
    1875                      .global _SDFM
    1876              
    1877              ;***************************************************************
    1878              ;* TYPE INFORMATION                                            *
    1879              ;***************************************************************
    1880              
    1881              $C$DW$T$20      .dwtag  DW_TAG_structure_type
    1882                      .dwattr $C$DW$T$20, DW_AT_name("SDCMPH1_BITS")
    1883                      .dwattr $C$DW$T$20, DW_AT_byte_size(0x01)
    1884              $C$DW$81        .dwtag  DW_TAG_member
    1885                      .dwattr $C$DW$81, DW_AT_type(*$C$DW$T$19)
    1886                      .dwattr $C$DW$81, DW_AT_name("HLT")
    1887                      .dwattr $C$DW$81, DW_AT_TI_symbol_name("_HLT")
    1888                      .dwattr $C$DW$81, DW_AT_bit_offset(0x01)
    1889                      .dwattr $C$DW$81, DW_AT_bit_size(0x0f)
    1890                      .dwattr $C$DW$81, DW_AT_data_member_location[DW_OP_plus_uconst 0x0]
    1891                      .dwattr $C$DW$81, DW_AT_accessibility(DW_ACCESS_public)
    1892              
    1893              $C$DW$82        .dwtag  DW_TAG_member
    1894                      .dwattr $C$DW$82, DW_AT_type(*$C$DW$T$19)
TMS320C2000 Assembler PC v15.12.1 Sun May 28 10:39:54 2017

Tools Copyright (c) 1996-2015 Texas Instruments Incorporated
F2837xD_sdfm_drivers.asm                                             PAGE   40

    1895                      .dwattr $C$DW$82, DW_AT_name("rsvd1")
    1896                      .dwattr $C$DW$82, DW_AT_TI_symbol_name("_rsvd1")
    1897                      .dwattr $C$DW$82, DW_AT_bit_offset(0x00)
    1898                      .dwattr $C$DW$82, DW_AT_bit_size(0x01)
    1899                      .dwattr $C$DW$82, DW_AT_data_member_location[DW_OP_plus_uconst 0x0]
    1900                      .dwattr $C$DW$82, DW_AT_accessibility(DW_ACCESS_public)
    1901              
    1902                      .dwendtag $C$DW$T$20
    1903              
    1904              
    1905              $C$DW$T$21      .dwtag  DW_TAG_union_type
    1906                      .dwattr $C$DW$T$21, DW_AT_name("SDCMPH1_REG")
    1907                      .dwattr $C$DW$T$21, DW_AT_byte_size(0x01)
    1908              $C$DW$83        .dwtag  DW_TAG_member
    1909                      .dwattr $C$DW$83, DW_AT_type(*$C$DW$T$19)
    1910                      .dwattr $C$DW$83, DW_AT_name("all")
    1911                      .dwattr $C$DW$83, DW_AT_TI_symbol_name("_all")
    1912                      .dwattr $C$DW$83, DW_AT_data_member_location[DW_OP_plus_uconst 0x0]
    1913                      .dwattr $C$DW$83, DW_AT_accessibility(DW_ACCESS_public)
    1914              
    1915              $C$DW$84        .dwtag  DW_TAG_member
    1916                      .dwattr $C$DW$84, DW_AT_type(*$C$DW$T$20)
    1917                      .dwattr $C$DW$84, DW_AT_name("bit")
    1918                      .dwattr $C$DW$84, DW_AT_TI_symbol_name("_bit")
    1919                      .dwattr $C$DW$84, DW_AT_data_member_location[DW_OP_plus_uconst 0x0]
    1920                      .dwattr $C$DW$84, DW_AT_accessibility(DW_ACCESS_public)
    1921              
    1922                      .dwendtag $C$DW$T$21
    1923              
    1924              
    1925              $C$DW$T$22      .dwtag  DW_TAG_structure_type
    1926                      .dwattr $C$DW$T$22, DW_AT_name("SDCMPH2_BITS")
    1927                      .dwattr $C$DW$T$22, DW_AT_byte_size(0x01)
    1928              $C$DW$85        .dwtag  DW_TAG_member
    1929                      .dwattr $C$DW$85, DW_AT_type(*$C$DW$T$19)
    1930                      .dwattr $C$DW$85, DW_AT_name("HLT")
    1931                      .dwattr $C$DW$85, DW_AT_TI_symbol_name("_HLT")
    1932                      .dwattr $C$DW$85, DW_AT_bit_offset(0x01)
    1933                      .dwattr $C$DW$85, DW_AT_bit_size(0x0f)
    1934                      .dwattr $C$DW$85, DW_AT_data_member_location[DW_OP_plus_uconst 0x0]
    1935                      .dwattr $C$DW$85, DW_AT_accessibility(DW_ACCESS_public)
    1936              
    1937              $C$DW$86        .dwtag  DW_TAG_member
    1938                      .dwattr $C$DW$86, DW_AT_type(*$C$DW$T$19)
    1939                      .dwattr $C$DW$86, DW_AT_name("rsvd1")
    1940                      .dwattr $C$DW$86, DW_AT_TI_symbol_name("_rsvd1")
    1941                      .dwattr $C$DW$86, DW_AT_bit_offset(0x00)
    1942                      .dwattr $C$DW$86, DW_AT_bit_size(0x01)
    1943                      .dwattr $C$DW$86, DW_AT_data_member_location[DW_OP_plus_uconst 0x0]
    1944                      .dwattr $C$DW$86, DW_AT_accessibility(DW_ACCESS_public)
    1945              
    1946                      .dwendtag $C$DW$T$22
    1947              
    1948              
    1949              $C$DW$T$23      .dwtag  DW_TAG_union_type
TMS320C2000 Assembler PC v15.12.1 Sun May 28 10:39:54 2017

Tools Copyright (c) 1996-2015 Texas Instruments Incorporated
F2837xD_sdfm_drivers.asm                                             PAGE   41

    1950                      .dwattr $C$DW$T$23, DW_AT_name("SDCMPH2_REG")
    1951                      .dwattr $C$DW$T$23, DW_AT_byte_size(0x01)
    1952              $C$DW$87        .dwtag  DW_TAG_member
    1953                      .dwattr $C$DW$87, DW_AT_type(*$C$DW$T$19)
    1954                      .dwattr $C$DW$87, DW_AT_name("all")
    1955                      .dwattr $C$DW$87, DW_AT_TI_symbol_name("_all")
    1956                      .dwattr $C$DW$87, DW_AT_data_member_location[DW_OP_plus_uconst 0x0]
    1957                      .dwattr $C$DW$87, DW_AT_accessibility(DW_ACCESS_public)
    1958              
    1959              $C$DW$88        .dwtag  DW_TAG_member
    1960                      .dwattr $C$DW$88, DW_AT_type(*$C$DW$T$22)
    1961                      .dwattr $C$DW$88, DW_AT_name("bit")
    1962                      .dwattr $C$DW$88, DW_AT_TI_symbol_name("_bit")
    1963                      .dwattr $C$DW$88, DW_AT_data_member_location[DW_OP_plus_uconst 0x0]
    1964                      .dwattr $C$DW$88, DW_AT_accessibility(DW_ACCESS_public)
    1965              
    1966                      .dwendtag $C$DW$T$23
    1967              
    1968              
    1969              $C$DW$T$24      .dwtag  DW_TAG_structure_type
    1970                      .dwattr $C$DW$T$24, DW_AT_name("SDCMPH3_BITS")
    1971                      .dwattr $C$DW$T$24, DW_AT_byte_size(0x01)
    1972              $C$DW$89        .dwtag  DW_TAG_member
    1973                      .dwattr $C$DW$89, DW_AT_type(*$C$DW$T$19)
    1974                      .dwattr $C$DW$89, DW_AT_name("HLT")
    1975                      .dwattr $C$DW$89, DW_AT_TI_symbol_name("_HLT")
    1976                      .dwattr $C$DW$89, DW_AT_bit_offset(0x01)
    1977                      .dwattr $C$DW$89, DW_AT_bit_size(0x0f)
    1978                      .dwattr $C$DW$89, DW_AT_data_member_location[DW_OP_plus_uconst 0x0]
    1979                      .dwattr $C$DW$89, DW_AT_accessibility(DW_ACCESS_public)
    1980              
    1981              $C$DW$90        .dwtag  DW_TAG_member
    1982                      .dwattr $C$DW$90, DW_AT_type(*$C$DW$T$19)
    1983                      .dwattr $C$DW$90, DW_AT_name("rsvd1")
    1984                      .dwattr $C$DW$90, DW_AT_TI_symbol_name("_rsvd1")
    1985                      .dwattr $C$DW$90, DW_AT_bit_offset(0x00)
    1986                      .dwattr $C$DW$90, DW_AT_bit_size(0x01)
    1987                      .dwattr $C$DW$90, DW_AT_data_member_location[DW_OP_plus_uconst 0x0]
    1988                      .dwattr $C$DW$90, DW_AT_accessibility(DW_ACCESS_public)
    1989              
    1990                      .dwendtag $C$DW$T$24
    1991              
    1992              
    1993              $C$DW$T$25      .dwtag  DW_TAG_union_type
    1994                      .dwattr $C$DW$T$25, DW_AT_name("SDCMPH3_REG")
    1995                      .dwattr $C$DW$T$25, DW_AT_byte_size(0x01)
    1996              $C$DW$91        .dwtag  DW_TAG_member
    1997                      .dwattr $C$DW$91, DW_AT_type(*$C$DW$T$19)
    1998                      .dwattr $C$DW$91, DW_AT_name("all")
    1999                      .dwattr $C$DW$91, DW_AT_TI_symbol_name("_all")
    2000                      .dwattr $C$DW$91, DW_AT_data_member_location[DW_OP_plus_uconst 0x0]
    2001                      .dwattr $C$DW$91, DW_AT_accessibility(DW_ACCESS_public)
    2002              
    2003              $C$DW$92        .dwtag  DW_TAG_member
    2004                      .dwattr $C$DW$92, DW_AT_type(*$C$DW$T$24)
TMS320C2000 Assembler PC v15.12.1 Sun May 28 10:39:54 2017

Tools Copyright (c) 1996-2015 Texas Instruments Incorporated
F2837xD_sdfm_drivers.asm                                             PAGE   42

    2005                      .dwattr $C$DW$92, DW_AT_name("bit")
    2006                      .dwattr $C$DW$92, DW_AT_TI_symbol_name("_bit")
    2007                      .dwattr $C$DW$92, DW_AT_data_member_location[DW_OP_plus_uconst 0x0]
    2008                      .dwattr $C$DW$92, DW_AT_accessibility(DW_ACCESS_public)
    2009              
    2010                      .dwendtag $C$DW$T$25
    2011              
    2012              
    2013              $C$DW$T$26      .dwtag  DW_TAG_structure_type
    2014                      .dwattr $C$DW$T$26, DW_AT_name("SDCMPH4_BITS")
    2015                      .dwattr $C$DW$T$26, DW_AT_byte_size(0x01)
    2016              $C$DW$93        .dwtag  DW_TAG_member
    2017                      .dwattr $C$DW$93, DW_AT_type(*$C$DW$T$19)
    2018                      .dwattr $C$DW$93, DW_AT_name("HLT")
    2019                      .dwattr $C$DW$93, DW_AT_TI_symbol_name("_HLT")
    2020                      .dwattr $C$DW$93, DW_AT_bit_offset(0x01)
    2021                      .dwattr $C$DW$93, DW_AT_bit_size(0x0f)
    2022                      .dwattr $C$DW$93, DW_AT_data_member_location[DW_OP_plus_uconst 0x0]
    2023                      .dwattr $C$DW$93, DW_AT_accessibility(DW_ACCESS_public)
    2024              
    2025              $C$DW$94        .dwtag  DW_TAG_member
    2026                      .dwattr $C$DW$94, DW_AT_type(*$C$DW$T$19)
    2027                      .dwattr $C$DW$94, DW_AT_name("rsvd1")
    2028                      .dwattr $C$DW$94, DW_AT_TI_symbol_name("_rsvd1")
    2029                      .dwattr $C$DW$94, DW_AT_bit_offset(0x00)
    2030                      .dwattr $C$DW$94, DW_AT_bit_size(0x01)
    2031                      .dwattr $C$DW$94, DW_AT_data_member_location[DW_OP_plus_uconst 0x0]
    2032                      .dwattr $C$DW$94, DW_AT_accessibility(DW_ACCESS_public)
    2033              
    2034                      .dwendtag $C$DW$T$26
    2035              
    2036              
    2037              $C$DW$T$27      .dwtag  DW_TAG_union_type
    2038                      .dwattr $C$DW$T$27, DW_AT_name("SDCMPH4_REG")
    2039                      .dwattr $C$DW$T$27, DW_AT_byte_size(0x01)
    2040              $C$DW$95        .dwtag  DW_TAG_member
    2041                      .dwattr $C$DW$95, DW_AT_type(*$C$DW$T$19)
    2042                      .dwattr $C$DW$95, DW_AT_name("all")
    2043                      .dwattr $C$DW$95, DW_AT_TI_symbol_name("_all")
    2044                      .dwattr $C$DW$95, DW_AT_data_member_location[DW_OP_plus_uconst 0x0]
    2045                      .dwattr $C$DW$95, DW_AT_accessibility(DW_ACCESS_public)
    2046              
    2047              $C$DW$96        .dwtag  DW_TAG_member
    2048                      .dwattr $C$DW$96, DW_AT_type(*$C$DW$T$26)
    2049                      .dwattr $C$DW$96, DW_AT_name("bit")
    2050                      .dwattr $C$DW$96, DW_AT_TI_symbol_name("_bit")
    2051                      .dwattr $C$DW$96, DW_AT_data_member_location[DW_OP_plus_uconst 0x0]
    2052                      .dwattr $C$DW$96, DW_AT_accessibility(DW_ACCESS_public)
    2053              
    2054                      .dwendtag $C$DW$T$27
    2055              
    2056              
    2057              $C$DW$T$28      .dwtag  DW_TAG_structure_type
    2058                      .dwattr $C$DW$T$28, DW_AT_name("SDCMPL1_BITS")
    2059                      .dwattr $C$DW$T$28, DW_AT_byte_size(0x01)
TMS320C2000 Assembler PC v15.12.1 Sun May 28 10:39:54 2017

Tools Copyright (c) 1996-2015 Texas Instruments Incorporated
F2837xD_sdfm_drivers.asm                                             PAGE   43

    2060              $C$DW$97        .dwtag  DW_TAG_member
    2061                      .dwattr $C$DW$97, DW_AT_type(*$C$DW$T$19)
    2062                      .dwattr $C$DW$97, DW_AT_name("LLT")
    2063                      .dwattr $C$DW$97, DW_AT_TI_symbol_name("_LLT")
    2064                      .dwattr $C$DW$97, DW_AT_bit_offset(0x01)
    2065                      .dwattr $C$DW$97, DW_AT_bit_size(0x0f)
    2066                      .dwattr $C$DW$97, DW_AT_data_member_location[DW_OP_plus_uconst 0x0]
    2067                      .dwattr $C$DW$97, DW_AT_accessibility(DW_ACCESS_public)
    2068              
    2069              $C$DW$98        .dwtag  DW_TAG_member
    2070                      .dwattr $C$DW$98, DW_AT_type(*$C$DW$T$19)
    2071                      .dwattr $C$DW$98, DW_AT_name("rsvd1")
    2072                      .dwattr $C$DW$98, DW_AT_TI_symbol_name("_rsvd1")
    2073                      .dwattr $C$DW$98, DW_AT_bit_offset(0x00)
    2074                      .dwattr $C$DW$98, DW_AT_bit_size(0x01)
    2075                      .dwattr $C$DW$98, DW_AT_data_member_location[DW_OP_plus_uconst 0x0]
    2076                      .dwattr $C$DW$98, DW_AT_accessibility(DW_ACCESS_public)
    2077              
    2078                      .dwendtag $C$DW$T$28
    2079              
    2080              
    2081              $C$DW$T$29      .dwtag  DW_TAG_union_type
    2082                      .dwattr $C$DW$T$29, DW_AT_name("SDCMPL1_REG")
    2083                      .dwattr $C$DW$T$29, DW_AT_byte_size(0x01)
    2084              $C$DW$99        .dwtag  DW_TAG_member
    2085                      .dwattr $C$DW$99, DW_AT_type(*$C$DW$T$19)
    2086                      .dwattr $C$DW$99, DW_AT_name("all")
    2087                      .dwattr $C$DW$99, DW_AT_TI_symbol_name("_all")
    2088                      .dwattr $C$DW$99, DW_AT_data_member_location[DW_OP_plus_uconst 0x0]
    2089                      .dwattr $C$DW$99, DW_AT_accessibility(DW_ACCESS_public)
    2090              
    2091              $C$DW$100       .dwtag  DW_TAG_member
    2092                      .dwattr $C$DW$100, DW_AT_type(*$C$DW$T$28)
    2093                      .dwattr $C$DW$100, DW_AT_name("bit")
    2094                      .dwattr $C$DW$100, DW_AT_TI_symbol_name("_bit")
    2095                      .dwattr $C$DW$100, DW_AT_data_member_location[DW_OP_plus_uconst 0x0]
    2096                      .dwattr $C$DW$100, DW_AT_accessibility(DW_ACCESS_public)
    2097              
    2098                      .dwendtag $C$DW$T$29
    2099              
    2100              
    2101              $C$DW$T$30      .dwtag  DW_TAG_structure_type
    2102                      .dwattr $C$DW$T$30, DW_AT_name("SDCMPL2_BITS")
    2103                      .dwattr $C$DW$T$30, DW_AT_byte_size(0x01)
    2104              $C$DW$101       .dwtag  DW_TAG_member
    2105                      .dwattr $C$DW$101, DW_AT_type(*$C$DW$T$19)
    2106                      .dwattr $C$DW$101, DW_AT_name("LLT")
    2107                      .dwattr $C$DW$101, DW_AT_TI_symbol_name("_LLT")
    2108                      .dwattr $C$DW$101, DW_AT_bit_offset(0x01)
    2109                      .dwattr $C$DW$101, DW_AT_bit_size(0x0f)
    2110                      .dwattr $C$DW$101, DW_AT_data_member_location[DW_OP_plus_uconst 0x0]
    2111                      .dwattr $C$DW$101, DW_AT_accessibility(DW_ACCESS_public)
    2112              
    2113              $C$DW$102       .dwtag  DW_TAG_member
    2114                      .dwattr $C$DW$102, DW_AT_type(*$C$DW$T$19)
TMS320C2000 Assembler PC v15.12.1 Sun May 28 10:39:54 2017

Tools Copyright (c) 1996-2015 Texas Instruments Incorporated
F2837xD_sdfm_drivers.asm                                             PAGE   44

    2115                      .dwattr $C$DW$102, DW_AT_name("rsvd1")
    2116                      .dwattr $C$DW$102, DW_AT_TI_symbol_name("_rsvd1")
    2117                      .dwattr $C$DW$102, DW_AT_bit_offset(0x00)
    2118                      .dwattr $C$DW$102, DW_AT_bit_size(0x01)
    2119                      .dwattr $C$DW$102, DW_AT_data_member_location[DW_OP_plus_uconst 0x0]
    2120                      .dwattr $C$DW$102, DW_AT_accessibility(DW_ACCESS_public)
    2121              
    2122                      .dwendtag $C$DW$T$30
    2123              
    2124              
    2125              $C$DW$T$31      .dwtag  DW_TAG_union_type
    2126                      .dwattr $C$DW$T$31, DW_AT_name("SDCMPL2_REG")
    2127                      .dwattr $C$DW$T$31, DW_AT_byte_size(0x01)
    2128              $C$DW$103       .dwtag  DW_TAG_member
    2129                      .dwattr $C$DW$103, DW_AT_type(*$C$DW$T$19)
    2130                      .dwattr $C$DW$103, DW_AT_name("all")
    2131                      .dwattr $C$DW$103, DW_AT_TI_symbol_name("_all")
    2132                      .dwattr $C$DW$103, DW_AT_data_member_location[DW_OP_plus_uconst 0x0]
    2133                      .dwattr $C$DW$103, DW_AT_accessibility(DW_ACCESS_public)
    2134              
    2135              $C$DW$104       .dwtag  DW_TAG_member
    2136                      .dwattr $C$DW$104, DW_AT_type(*$C$DW$T$30)
    2137                      .dwattr $C$DW$104, DW_AT_name("bit")
    2138                      .dwattr $C$DW$104, DW_AT_TI_symbol_name("_bit")
    2139                      .dwattr $C$DW$104, DW_AT_data_member_location[DW_OP_plus_uconst 0x0]
    2140                      .dwattr $C$DW$104, DW_AT_accessibility(DW_ACCESS_public)
    2141              
    2142                      .dwendtag $C$DW$T$31
    2143              
    2144              
    2145              $C$DW$T$32      .dwtag  DW_TAG_structure_type
    2146                      .dwattr $C$DW$T$32, DW_AT_name("SDCMPL3_BITS")
    2147                      .dwattr $C$DW$T$32, DW_AT_byte_size(0x01)
    2148              $C$DW$105       .dwtag  DW_TAG_member
    2149                      .dwattr $C$DW$105, DW_AT_type(*$C$DW$T$19)
    2150                      .dwattr $C$DW$105, DW_AT_name("LLT")
    2151                      .dwattr $C$DW$105, DW_AT_TI_symbol_name("_LLT")
    2152                      .dwattr $C$DW$105, DW_AT_bit_offset(0x01)
    2153                      .dwattr $C$DW$105, DW_AT_bit_size(0x0f)
    2154                      .dwattr $C$DW$105, DW_AT_data_member_location[DW_OP_plus_uconst 0x0]
    2155                      .dwattr $C$DW$105, DW_AT_accessibility(DW_ACCESS_public)
    2156              
    2157              $C$DW$106       .dwtag  DW_TAG_member
    2158                      .dwattr $C$DW$106, DW_AT_type(*$C$DW$T$19)
    2159                      .dwattr $C$DW$106, DW_AT_name("rsvd1")
    2160                      .dwattr $C$DW$106, DW_AT_TI_symbol_name("_rsvd1")
    2161                      .dwattr $C$DW$106, DW_AT_bit_offset(0x00)
    2162                      .dwattr $C$DW$106, DW_AT_bit_size(0x01)
    2163                      .dwattr $C$DW$106, DW_AT_data_member_location[DW_OP_plus_uconst 0x0]
    2164                      .dwattr $C$DW$106, DW_AT_accessibility(DW_ACCESS_public)
    2165              
    2166                      .dwendtag $C$DW$T$32
    2167              
    2168              
    2169              $C$DW$T$33      .dwtag  DW_TAG_union_type
TMS320C2000 Assembler PC v15.12.1 Sun May 28 10:39:54 2017

Tools Copyright (c) 1996-2015 Texas Instruments Incorporated
F2837xD_sdfm_drivers.asm                                             PAGE   45

    2170                      .dwattr $C$DW$T$33, DW_AT_name("SDCMPL3_REG")
    2171                      .dwattr $C$DW$T$33, DW_AT_byte_size(0x01)
    2172              $C$DW$107       .dwtag  DW_TAG_member
    2173                      .dwattr $C$DW$107, DW_AT_type(*$C$DW$T$19)
    2174                      .dwattr $C$DW$107, DW_AT_name("all")
    2175                      .dwattr $C$DW$107, DW_AT_TI_symbol_name("_all")
    2176                      .dwattr $C$DW$107, DW_AT_data_member_location[DW_OP_plus_uconst 0x0]
    2177                      .dwattr $C$DW$107, DW_AT_accessibility(DW_ACCESS_public)
    2178              
    2179              $C$DW$108       .dwtag  DW_TAG_member
    2180                      .dwattr $C$DW$108, DW_AT_type(*$C$DW$T$32)
    2181                      .dwattr $C$DW$108, DW_AT_name("bit")
    2182                      .dwattr $C$DW$108, DW_AT_TI_symbol_name("_bit")
    2183                      .dwattr $C$DW$108, DW_AT_data_member_location[DW_OP_plus_uconst 0x0]
    2184                      .dwattr $C$DW$108, DW_AT_accessibility(DW_ACCESS_public)
    2185              
    2186                      .dwendtag $C$DW$T$33
    2187              
    2188              
    2189              $C$DW$T$34      .dwtag  DW_TAG_structure_type
    2190                      .dwattr $C$DW$T$34, DW_AT_name("SDCMPL4_BITS")
    2191                      .dwattr $C$DW$T$34, DW_AT_byte_size(0x01)
    2192              $C$DW$109       .dwtag  DW_TAG_member
    2193                      .dwattr $C$DW$109, DW_AT_type(*$C$DW$T$19)
    2194                      .dwattr $C$DW$109, DW_AT_name("LLT")
    2195                      .dwattr $C$DW$109, DW_AT_TI_symbol_name("_LLT")
    2196                      .dwattr $C$DW$109, DW_AT_bit_offset(0x01)
    2197                      .dwattr $C$DW$109, DW_AT_bit_size(0x0f)
    2198                      .dwattr $C$DW$109, DW_AT_data_member_location[DW_OP_plus_uconst 0x0]
    2199                      .dwattr $C$DW$109, DW_AT_accessibility(DW_ACCESS_public)
    2200              
    2201              $C$DW$110       .dwtag  DW_TAG_member
    2202                      .dwattr $C$DW$110, DW_AT_type(*$C$DW$T$19)
    2203                      .dwattr $C$DW$110, DW_AT_name("rsvd1")
    2204                      .dwattr $C$DW$110, DW_AT_TI_symbol_name("_rsvd1")
    2205                      .dwattr $C$DW$110, DW_AT_bit_offset(0x00)
    2206                      .dwattr $C$DW$110, DW_AT_bit_size(0x01)
    2207                      .dwattr $C$DW$110, DW_AT_data_member_location[DW_OP_plus_uconst 0x0]
    2208                      .dwattr $C$DW$110, DW_AT_accessibility(DW_ACCESS_public)
    2209              
    2210                      .dwendtag $C$DW$T$34
    2211              
    2212              
    2213              $C$DW$T$35      .dwtag  DW_TAG_union_type
    2214                      .dwattr $C$DW$T$35, DW_AT_name("SDCMPL4_REG")
    2215                      .dwattr $C$DW$T$35, DW_AT_byte_size(0x01)
    2216              $C$DW$111       .dwtag  DW_TAG_member
    2217                      .dwattr $C$DW$111, DW_AT_type(*$C$DW$T$19)
    2218                      .dwattr $C$DW$111, DW_AT_name("all")
    2219                      .dwattr $C$DW$111, DW_AT_TI_symbol_name("_all")
    2220                      .dwattr $C$DW$111, DW_AT_data_member_location[DW_OP_plus_uconst 0x0]
    2221                      .dwattr $C$DW$111, DW_AT_accessibility(DW_ACCESS_public)
    2222              
    2223              $C$DW$112       .dwtag  DW_TAG_member
    2224                      .dwattr $C$DW$112, DW_AT_type(*$C$DW$T$34)
TMS320C2000 Assembler PC v15.12.1 Sun May 28 10:39:54 2017

Tools Copyright (c) 1996-2015 Texas Instruments Incorporated
F2837xD_sdfm_drivers.asm                                             PAGE   46

    2225                      .dwattr $C$DW$112, DW_AT_name("bit")
    2226                      .dwattr $C$DW$112, DW_AT_TI_symbol_name("_bit")
    2227                      .dwattr $C$DW$112, DW_AT_data_member_location[DW_OP_plus_uconst 0x0]
    2228                      .dwattr $C$DW$112, DW_AT_accessibility(DW_ACCESS_public)
    2229              
    2230                      .dwendtag $C$DW$T$35
    2231              
    2232              
    2233              $C$DW$T$36      .dwtag  DW_TAG_structure_type
    2234                      .dwattr $C$DW$T$36, DW_AT_name("SDCPARM1_BITS")
    2235                      .dwattr $C$DW$T$36, DW_AT_byte_size(0x01)
    2236              $C$DW$113       .dwtag  DW_TAG_member
    2237                      .dwattr $C$DW$113, DW_AT_type(*$C$DW$T$19)
    2238                      .dwattr $C$DW$113, DW_AT_name("COSR")
    2239                      .dwattr $C$DW$113, DW_AT_TI_symbol_name("_COSR")
    2240                      .dwattr $C$DW$113, DW_AT_bit_offset(0x0b)
    2241                      .dwattr $C$DW$113, DW_AT_bit_size(0x05)
    2242                      .dwattr $C$DW$113, DW_AT_data_member_location[DW_OP_plus_uconst 0x0]
    2243                      .dwattr $C$DW$113, DW_AT_accessibility(DW_ACCESS_public)
    2244              
    2245              $C$DW$114       .dwtag  DW_TAG_member
    2246                      .dwattr $C$DW$114, DW_AT_type(*$C$DW$T$19)
    2247                      .dwattr $C$DW$114, DW_AT_name("IEH")
    2248                      .dwattr $C$DW$114, DW_AT_TI_symbol_name("_IEH")
    2249                      .dwattr $C$DW$114, DW_AT_bit_offset(0x0a)
    2250                      .dwattr $C$DW$114, DW_AT_bit_size(0x01)
    2251                      .dwattr $C$DW$114, DW_AT_data_member_location[DW_OP_plus_uconst 0x0]
    2252                      .dwattr $C$DW$114, DW_AT_accessibility(DW_ACCESS_public)
    2253              
    2254              $C$DW$115       .dwtag  DW_TAG_member
    2255                      .dwattr $C$DW$115, DW_AT_type(*$C$DW$T$19)
    2256                      .dwattr $C$DW$115, DW_AT_name("IEL")
    2257                      .dwattr $C$DW$115, DW_AT_TI_symbol_name("_IEL")
    2258                      .dwattr $C$DW$115, DW_AT_bit_offset(0x09)
    2259                      .dwattr $C$DW$115, DW_AT_bit_size(0x01)
    2260                      .dwattr $C$DW$115, DW_AT_data_member_location[DW_OP_plus_uconst 0x0]
    2261                      .dwattr $C$DW$115, DW_AT_accessibility(DW_ACCESS_public)
    2262              
    2263              $C$DW$116       .dwtag  DW_TAG_member
    2264                      .dwattr $C$DW$116, DW_AT_type(*$C$DW$T$19)
    2265                      .dwattr $C$DW$116, DW_AT_name("CS1_CS0")
    2266                      .dwattr $C$DW$116, DW_AT_TI_symbol_name("_CS1_CS0")
    2267                      .dwattr $C$DW$116, DW_AT_bit_offset(0x07)
    2268                      .dwattr $C$DW$116, DW_AT_bit_size(0x02)
    2269                      .dwattr $C$DW$116, DW_AT_data_member_location[DW_OP_plus_uconst 0x0]
    2270                      .dwattr $C$DW$116, DW_AT_accessibility(DW_ACCESS_public)
    2271              
    2272              $C$DW$117       .dwtag  DW_TAG_member
    2273                      .dwattr $C$DW$117, DW_AT_type(*$C$DW$T$19)
    2274                      .dwattr $C$DW$117, DW_AT_name("MFIE")
    2275                      .dwattr $C$DW$117, DW_AT_TI_symbol_name("_MFIE")
    2276                      .dwattr $C$DW$117, DW_AT_bit_offset(0x06)
    2277                      .dwattr $C$DW$117, DW_AT_bit_size(0x01)
    2278                      .dwattr $C$DW$117, DW_AT_data_member_location[DW_OP_plus_uconst 0x0]
    2279                      .dwattr $C$DW$117, DW_AT_accessibility(DW_ACCESS_public)
TMS320C2000 Assembler PC v15.12.1 Sun May 28 10:39:54 2017

Tools Copyright (c) 1996-2015 Texas Instruments Incorporated
F2837xD_sdfm_drivers.asm                                             PAGE   47

    2280              
    2281              $C$DW$118       .dwtag  DW_TAG_member
    2282                      .dwattr $C$DW$118, DW_AT_type(*$C$DW$T$19)
    2283                      .dwattr $C$DW$118, DW_AT_name("rsvd1")
    2284                      .dwattr $C$DW$118, DW_AT_TI_symbol_name("_rsvd1")
    2285                      .dwattr $C$DW$118, DW_AT_bit_offset(0x00)
    2286                      .dwattr $C$DW$118, DW_AT_bit_size(0x06)
    2287                      .dwattr $C$DW$118, DW_AT_data_member_location[DW_OP_plus_uconst 0x0]
    2288                      .dwattr $C$DW$118, DW_AT_accessibility(DW_ACCESS_public)
    2289              
    2290                      .dwendtag $C$DW$T$36
    2291              
    2292              
    2293              $C$DW$T$37      .dwtag  DW_TAG_union_type
    2294                      .dwattr $C$DW$T$37, DW_AT_name("SDCPARM1_REG")
    2295                      .dwattr $C$DW$T$37, DW_AT_byte_size(0x01)
    2296              $C$DW$119       .dwtag  DW_TAG_member
    2297                      .dwattr $C$DW$119, DW_AT_type(*$C$DW$T$19)
    2298                      .dwattr $C$DW$119, DW_AT_name("all")
    2299                      .dwattr $C$DW$119, DW_AT_TI_symbol_name("_all")
    2300                      .dwattr $C$DW$119, DW_AT_data_member_location[DW_OP_plus_uconst 0x0]
    2301                      .dwattr $C$DW$119, DW_AT_accessibility(DW_ACCESS_public)
    2302              
    2303              $C$DW$120       .dwtag  DW_TAG_member
    2304                      .dwattr $C$DW$120, DW_AT_type(*$C$DW$T$36)
    2305                      .dwattr $C$DW$120, DW_AT_name("bit")
    2306                      .dwattr $C$DW$120, DW_AT_TI_symbol_name("_bit")
    2307                      .dwattr $C$DW$120, DW_AT_data_member_location[DW_OP_plus_uconst 0x0]
    2308                      .dwattr $C$DW$120, DW_AT_accessibility(DW_ACCESS_public)
    2309              
    2310                      .dwendtag $C$DW$T$37
    2311              
    2312              
    2313              $C$DW$T$38      .dwtag  DW_TAG_structure_type
    2314                      .dwattr $C$DW$T$38, DW_AT_name("SDCPARM2_BITS")
    2315                      .dwattr $C$DW$T$38, DW_AT_byte_size(0x01)
    2316              $C$DW$121       .dwtag  DW_TAG_member
    2317                      .dwattr $C$DW$121, DW_AT_type(*$C$DW$T$19)
    2318                      .dwattr $C$DW$121, DW_AT_name("COSR")
    2319                      .dwattr $C$DW$121, DW_AT_TI_symbol_name("_COSR")
    2320                      .dwattr $C$DW$121, DW_AT_bit_offset(0x0b)
    2321                      .dwattr $C$DW$121, DW_AT_bit_size(0x05)
    2322                      .dwattr $C$DW$121, DW_AT_data_member_location[DW_OP_plus_uconst 0x0]
    2323                      .dwattr $C$DW$121, DW_AT_accessibility(DW_ACCESS_public)
    2324              
    2325              $C$DW$122       .dwtag  DW_TAG_member
    2326                      .dwattr $C$DW$122, DW_AT_type(*$C$DW$T$19)
    2327                      .dwattr $C$DW$122, DW_AT_name("IEH")
    2328                      .dwattr $C$DW$122, DW_AT_TI_symbol_name("_IEH")
    2329                      .dwattr $C$DW$122, DW_AT_bit_offset(0x0a)
    2330                      .dwattr $C$DW$122, DW_AT_bit_size(0x01)
    2331                      .dwattr $C$DW$122, DW_AT_data_member_location[DW_OP_plus_uconst 0x0]
    2332                      .dwattr $C$DW$122, DW_AT_accessibility(DW_ACCESS_public)
    2333              
    2334              $C$DW$123       .dwtag  DW_TAG_member
TMS320C2000 Assembler PC v15.12.1 Sun May 28 10:39:54 2017

Tools Copyright (c) 1996-2015 Texas Instruments Incorporated
F2837xD_sdfm_drivers.asm                                             PAGE   48

    2335                      .dwattr $C$DW$123, DW_AT_type(*$C$DW$T$19)
    2336                      .dwattr $C$DW$123, DW_AT_name("IEL")
    2337                      .dwattr $C$DW$123, DW_AT_TI_symbol_name("_IEL")
    2338                      .dwattr $C$DW$123, DW_AT_bit_offset(0x09)
    2339                      .dwattr $C$DW$123, DW_AT_bit_size(0x01)
    2340                      .dwattr $C$DW$123, DW_AT_data_member_location[DW_OP_plus_uconst 0x0]
    2341                      .dwattr $C$DW$123, DW_AT_accessibility(DW_ACCESS_public)
    2342              
    2343              $C$DW$124       .dwtag  DW_TAG_member
    2344                      .dwattr $C$DW$124, DW_AT_type(*$C$DW$T$19)
    2345                      .dwattr $C$DW$124, DW_AT_name("CS1_CS0")
    2346                      .dwattr $C$DW$124, DW_AT_TI_symbol_name("_CS1_CS0")
    2347                      .dwattr $C$DW$124, DW_AT_bit_offset(0x07)
    2348                      .dwattr $C$DW$124, DW_AT_bit_size(0x02)
    2349                      .dwattr $C$DW$124, DW_AT_data_member_location[DW_OP_plus_uconst 0x0]
    2350                      .dwattr $C$DW$124, DW_AT_accessibility(DW_ACCESS_public)
    2351              
    2352              $C$DW$125       .dwtag  DW_TAG_member
    2353                      .dwattr $C$DW$125, DW_AT_type(*$C$DW$T$19)
    2354                      .dwattr $C$DW$125, DW_AT_name("MFIE")
    2355                      .dwattr $C$DW$125, DW_AT_TI_symbol_name("_MFIE")
    2356                      .dwattr $C$DW$125, DW_AT_bit_offset(0x06)
    2357                      .dwattr $C$DW$125, DW_AT_bit_size(0x01)
    2358                      .dwattr $C$DW$125, DW_AT_data_member_location[DW_OP_plus_uconst 0x0]
    2359                      .dwattr $C$DW$125, DW_AT_accessibility(DW_ACCESS_public)
    2360              
    2361              $C$DW$126       .dwtag  DW_TAG_member
    2362                      .dwattr $C$DW$126, DW_AT_type(*$C$DW$T$19)
    2363                      .dwattr $C$DW$126, DW_AT_name("rsvd1")
    2364                      .dwattr $C$DW$126, DW_AT_TI_symbol_name("_rsvd1")
    2365                      .dwattr $C$DW$126, DW_AT_bit_offset(0x00)
    2366                      .dwattr $C$DW$126, DW_AT_bit_size(0x06)
    2367                      .dwattr $C$DW$126, DW_AT_data_member_location[DW_OP_plus_uconst 0x0]
    2368                      .dwattr $C$DW$126, DW_AT_accessibility(DW_ACCESS_public)
    2369              
    2370                      .dwendtag $C$DW$T$38
    2371              
    2372              
    2373              $C$DW$T$39      .dwtag  DW_TAG_union_type
    2374                      .dwattr $C$DW$T$39, DW_AT_name("SDCPARM2_REG")
    2375                      .dwattr $C$DW$T$39, DW_AT_byte_size(0x01)
    2376              $C$DW$127       .dwtag  DW_TAG_member
    2377                      .dwattr $C$DW$127, DW_AT_type(*$C$DW$T$19)
    2378                      .dwattr $C$DW$127, DW_AT_name("all")
    2379                      .dwattr $C$DW$127, DW_AT_TI_symbol_name("_all")
    2380                      .dwattr $C$DW$127, DW_AT_data_member_location[DW_OP_plus_uconst 0x0]
    2381                      .dwattr $C$DW$127, DW_AT_accessibility(DW_ACCESS_public)
    2382              
    2383              $C$DW$128       .dwtag  DW_TAG_member
    2384                      .dwattr $C$DW$128, DW_AT_type(*$C$DW$T$38)
    2385                      .dwattr $C$DW$128, DW_AT_name("bit")
    2386                      .dwattr $C$DW$128, DW_AT_TI_symbol_name("_bit")
    2387                      .dwattr $C$DW$128, DW_AT_data_member_location[DW_OP_plus_uconst 0x0]
    2388                      .dwattr $C$DW$128, DW_AT_accessibility(DW_ACCESS_public)
    2389              
TMS320C2000 Assembler PC v15.12.1 Sun May 28 10:39:54 2017

Tools Copyright (c) 1996-2015 Texas Instruments Incorporated
F2837xD_sdfm_drivers.asm                                             PAGE   49

    2390                      .dwendtag $C$DW$T$39
    2391              
    2392              
    2393              $C$DW$T$40      .dwtag  DW_TAG_structure_type
    2394                      .dwattr $C$DW$T$40, DW_AT_name("SDCPARM3_BITS")
    2395                      .dwattr $C$DW$T$40, DW_AT_byte_size(0x01)
    2396              $C$DW$129       .dwtag  DW_TAG_member
    2397                      .dwattr $C$DW$129, DW_AT_type(*$C$DW$T$19)
    2398                      .dwattr $C$DW$129, DW_AT_name("COSR")
    2399                      .dwattr $C$DW$129, DW_AT_TI_symbol_name("_COSR")
    2400                      .dwattr $C$DW$129, DW_AT_bit_offset(0x0b)
    2401                      .dwattr $C$DW$129, DW_AT_bit_size(0x05)
    2402                      .dwattr $C$DW$129, DW_AT_data_member_location[DW_OP_plus_uconst 0x0]
    2403                      .dwattr $C$DW$129, DW_AT_accessibility(DW_ACCESS_public)
    2404              
    2405              $C$DW$130       .dwtag  DW_TAG_member
    2406                      .dwattr $C$DW$130, DW_AT_type(*$C$DW$T$19)
    2407                      .dwattr $C$DW$130, DW_AT_name("IEH")
    2408                      .dwattr $C$DW$130, DW_AT_TI_symbol_name("_IEH")
    2409                      .dwattr $C$DW$130, DW_AT_bit_offset(0x0a)
    2410                      .dwattr $C$DW$130, DW_AT_bit_size(0x01)
    2411                      .dwattr $C$DW$130, DW_AT_data_member_location[DW_OP_plus_uconst 0x0]
    2412                      .dwattr $C$DW$130, DW_AT_accessibility(DW_ACCESS_public)
    2413              
    2414              $C$DW$131       .dwtag  DW_TAG_member
    2415                      .dwattr $C$DW$131, DW_AT_type(*$C$DW$T$19)
    2416                      .dwattr $C$DW$131, DW_AT_name("IEL")
    2417                      .dwattr $C$DW$131, DW_AT_TI_symbol_name("_IEL")
    2418                      .dwattr $C$DW$131, DW_AT_bit_offset(0x09)
    2419                      .dwattr $C$DW$131, DW_AT_bit_size(0x01)
    2420                      .dwattr $C$DW$131, DW_AT_data_member_location[DW_OP_plus_uconst 0x0]
    2421                      .dwattr $C$DW$131, DW_AT_accessibility(DW_ACCESS_public)
    2422              
    2423              $C$DW$132       .dwtag  DW_TAG_member
    2424                      .dwattr $C$DW$132, DW_AT_type(*$C$DW$T$19)
    2425                      .dwattr $C$DW$132, DW_AT_name("CS1_CS0")
    2426                      .dwattr $C$DW$132, DW_AT_TI_symbol_name("_CS1_CS0")
    2427                      .dwattr $C$DW$132, DW_AT_bit_offset(0x07)
    2428                      .dwattr $C$DW$132, DW_AT_bit_size(0x02)
    2429                      .dwattr $C$DW$132, DW_AT_data_member_location[DW_OP_plus_uconst 0x0]
    2430                      .dwattr $C$DW$132, DW_AT_accessibility(DW_ACCESS_public)
    2431              
    2432              $C$DW$133       .dwtag  DW_TAG_member
    2433                      .dwattr $C$DW$133, DW_AT_type(*$C$DW$T$19)
    2434                      .dwattr $C$DW$133, DW_AT_name("MFIE")
    2435                      .dwattr $C$DW$133, DW_AT_TI_symbol_name("_MFIE")
    2436                      .dwattr $C$DW$133, DW_AT_bit_offset(0x06)
    2437                      .dwattr $C$DW$133, DW_AT_bit_size(0x01)
    2438                      .dwattr $C$DW$133, DW_AT_data_member_location[DW_OP_plus_uconst 0x0]
    2439                      .dwattr $C$DW$133, DW_AT_accessibility(DW_ACCESS_public)
    2440              
    2441              $C$DW$134       .dwtag  DW_TAG_member
    2442                      .dwattr $C$DW$134, DW_AT_type(*$C$DW$T$19)
    2443                      .dwattr $C$DW$134, DW_AT_name("rsvd1")
    2444                      .dwattr $C$DW$134, DW_AT_TI_symbol_name("_rsvd1")
TMS320C2000 Assembler PC v15.12.1 Sun May 28 10:39:54 2017

Tools Copyright (c) 1996-2015 Texas Instruments Incorporated
F2837xD_sdfm_drivers.asm                                             PAGE   50

    2445                      .dwattr $C$DW$134, DW_AT_bit_offset(0x00)
    2446                      .dwattr $C$DW$134, DW_AT_bit_size(0x06)
    2447                      .dwattr $C$DW$134, DW_AT_data_member_location[DW_OP_plus_uconst 0x0]
    2448                      .dwattr $C$DW$134, DW_AT_accessibility(DW_ACCESS_public)
    2449              
    2450                      .dwendtag $C$DW$T$40
    2451              
    2452              
    2453              $C$DW$T$41      .dwtag  DW_TAG_union_type
    2454                      .dwattr $C$DW$T$41, DW_AT_name("SDCPARM3_REG")
    2455                      .dwattr $C$DW$T$41, DW_AT_byte_size(0x01)
    2456              $C$DW$135       .dwtag  DW_TAG_member
    2457                      .dwattr $C$DW$135, DW_AT_type(*$C$DW$T$19)
    2458                      .dwattr $C$DW$135, DW_AT_name("all")
    2459                      .dwattr $C$DW$135, DW_AT_TI_symbol_name("_all")
    2460                      .dwattr $C$DW$135, DW_AT_data_member_location[DW_OP_plus_uconst 0x0]
    2461                      .dwattr $C$DW$135, DW_AT_accessibility(DW_ACCESS_public)
    2462              
    2463              $C$DW$136       .dwtag  DW_TAG_member
    2464                      .dwattr $C$DW$136, DW_AT_type(*$C$DW$T$40)
    2465                      .dwattr $C$DW$136, DW_AT_name("bit")
    2466                      .dwattr $C$DW$136, DW_AT_TI_symbol_name("_bit")
    2467                      .dwattr $C$DW$136, DW_AT_data_member_location[DW_OP_plus_uconst 0x0]
    2468                      .dwattr $C$DW$136, DW_AT_accessibility(DW_ACCESS_public)
    2469              
    2470                      .dwendtag $C$DW$T$41
    2471              
    2472              
    2473              $C$DW$T$42      .dwtag  DW_TAG_structure_type
    2474                      .dwattr $C$DW$T$42, DW_AT_name("SDCPARM4_BITS")
    2475                      .dwattr $C$DW$T$42, DW_AT_byte_size(0x01)
    2476              $C$DW$137       .dwtag  DW_TAG_member
    2477                      .dwattr $C$DW$137, DW_AT_type(*$C$DW$T$19)
    2478                      .dwattr $C$DW$137, DW_AT_name("COSR")
    2479                      .dwattr $C$DW$137, DW_AT_TI_symbol_name("_COSR")
    2480                      .dwattr $C$DW$137, DW_AT_bit_offset(0x0b)
    2481                      .dwattr $C$DW$137, DW_AT_bit_size(0x05)
    2482                      .dwattr $C$DW$137, DW_AT_data_member_location[DW_OP_plus_uconst 0x0]
    2483                      .dwattr $C$DW$137, DW_AT_accessibility(DW_ACCESS_public)
    2484              
    2485              $C$DW$138       .dwtag  DW_TAG_member
    2486                      .dwattr $C$DW$138, DW_AT_type(*$C$DW$T$19)
    2487                      .dwattr $C$DW$138, DW_AT_name("IEH")
    2488                      .dwattr $C$DW$138, DW_AT_TI_symbol_name("_IEH")
    2489                      .dwattr $C$DW$138, DW_AT_bit_offset(0x0a)
    2490                      .dwattr $C$DW$138, DW_AT_bit_size(0x01)
    2491                      .dwattr $C$DW$138, DW_AT_data_member_location[DW_OP_plus_uconst 0x0]
    2492                      .dwattr $C$DW$138, DW_AT_accessibility(DW_ACCESS_public)
    2493              
    2494              $C$DW$139       .dwtag  DW_TAG_member
    2495                      .dwattr $C$DW$139, DW_AT_type(*$C$DW$T$19)
    2496                      .dwattr $C$DW$139, DW_AT_name("IEL")
    2497                      .dwattr $C$DW$139, DW_AT_TI_symbol_name("_IEL")
    2498                      .dwattr $C$DW$139, DW_AT_bit_offset(0x09)
    2499                      .dwattr $C$DW$139, DW_AT_bit_size(0x01)
TMS320C2000 Assembler PC v15.12.1 Sun May 28 10:39:54 2017

Tools Copyright (c) 1996-2015 Texas Instruments Incorporated
F2837xD_sdfm_drivers.asm                                             PAGE   51

    2500                      .dwattr $C$DW$139, DW_AT_data_member_location[DW_OP_plus_uconst 0x0]
    2501                      .dwattr $C$DW$139, DW_AT_accessibility(DW_ACCESS_public)
    2502              
    2503              $C$DW$140       .dwtag  DW_TAG_member
    2504                      .dwattr $C$DW$140, DW_AT_type(*$C$DW$T$19)
    2505                      .dwattr $C$DW$140, DW_AT_name("CS1_CS0")
    2506                      .dwattr $C$DW$140, DW_AT_TI_symbol_name("_CS1_CS0")
    2507                      .dwattr $C$DW$140, DW_AT_bit_offset(0x07)
    2508                      .dwattr $C$DW$140, DW_AT_bit_size(0x02)
    2509                      .dwattr $C$DW$140, DW_AT_data_member_location[DW_OP_plus_uconst 0x0]
    2510                      .dwattr $C$DW$140, DW_AT_accessibility(DW_ACCESS_public)
    2511              
    2512              $C$DW$141       .dwtag  DW_TAG_member
    2513                      .dwattr $C$DW$141, DW_AT_type(*$C$DW$T$19)
    2514                      .dwattr $C$DW$141, DW_AT_name("MFIE")
    2515                      .dwattr $C$DW$141, DW_AT_TI_symbol_name("_MFIE")
    2516                      .dwattr $C$DW$141, DW_AT_bit_offset(0x06)
    2517                      .dwattr $C$DW$141, DW_AT_bit_size(0x01)
    2518                      .dwattr $C$DW$141, DW_AT_data_member_location[DW_OP_plus_uconst 0x0]
    2519                      .dwattr $C$DW$141, DW_AT_accessibility(DW_ACCESS_public)
    2520              
    2521              $C$DW$142       .dwtag  DW_TAG_member
    2522                      .dwattr $C$DW$142, DW_AT_type(*$C$DW$T$19)
    2523                      .dwattr $C$DW$142, DW_AT_name("rsvd1")
    2524                      .dwattr $C$DW$142, DW_AT_TI_symbol_name("_rsvd1")
    2525                      .dwattr $C$DW$142, DW_AT_bit_offset(0x00)
    2526                      .dwattr $C$DW$142, DW_AT_bit_size(0x06)
    2527                      .dwattr $C$DW$142, DW_AT_data_member_location[DW_OP_plus_uconst 0x0]
    2528                      .dwattr $C$DW$142, DW_AT_accessibility(DW_ACCESS_public)
    2529              
    2530                      .dwendtag $C$DW$T$42
    2531              
    2532              
    2533              $C$DW$T$43      .dwtag  DW_TAG_union_type
    2534                      .dwattr $C$DW$T$43, DW_AT_name("SDCPARM4_REG")
    2535                      .dwattr $C$DW$T$43, DW_AT_byte_size(0x01)
    2536              $C$DW$143       .dwtag  DW_TAG_member
    2537                      .dwattr $C$DW$143, DW_AT_type(*$C$DW$T$19)
    2538                      .dwattr $C$DW$143, DW_AT_name("all")
    2539                      .dwattr $C$DW$143, DW_AT_TI_symbol_name("_all")
    2540                      .dwattr $C$DW$143, DW_AT_data_member_location[DW_OP_plus_uconst 0x0]
    2541                      .dwattr $C$DW$143, DW_AT_accessibility(DW_ACCESS_public)
    2542              
    2543              $C$DW$144       .dwtag  DW_TAG_member
    2544                      .dwattr $C$DW$144, DW_AT_type(*$C$DW$T$42)
    2545                      .dwattr $C$DW$144, DW_AT_name("bit")
    2546                      .dwattr $C$DW$144, DW_AT_TI_symbol_name("_bit")
    2547                      .dwattr $C$DW$144, DW_AT_data_member_location[DW_OP_plus_uconst 0x0]
    2548                      .dwattr $C$DW$144, DW_AT_accessibility(DW_ACCESS_public)
    2549              
    2550                      .dwendtag $C$DW$T$43
    2551              
    2552              
    2553              $C$DW$T$44      .dwtag  DW_TAG_structure_type
    2554                      .dwattr $C$DW$T$44, DW_AT_name("SDCTLPARM1_BITS")
TMS320C2000 Assembler PC v15.12.1 Sun May 28 10:39:54 2017

Tools Copyright (c) 1996-2015 Texas Instruments Incorporated
F2837xD_sdfm_drivers.asm                                             PAGE   52

    2555                      .dwattr $C$DW$T$44, DW_AT_byte_size(0x01)
    2556              $C$DW$145       .dwtag  DW_TAG_member
    2557                      .dwattr $C$DW$145, DW_AT_type(*$C$DW$T$19)
    2558                      .dwattr $C$DW$145, DW_AT_name("MOD")
    2559                      .dwattr $C$DW$145, DW_AT_TI_symbol_name("_MOD")
    2560                      .dwattr $C$DW$145, DW_AT_bit_offset(0x0e)
    2561                      .dwattr $C$DW$145, DW_AT_bit_size(0x02)
    2562                      .dwattr $C$DW$145, DW_AT_data_member_location[DW_OP_plus_uconst 0x0]
    2563                      .dwattr $C$DW$145, DW_AT_accessibility(DW_ACCESS_public)
    2564              
    2565              $C$DW$146       .dwtag  DW_TAG_member
    2566                      .dwattr $C$DW$146, DW_AT_type(*$C$DW$T$19)
    2567                      .dwattr $C$DW$146, DW_AT_name("rsvd1")
    2568                      .dwattr $C$DW$146, DW_AT_TI_symbol_name("_rsvd1")
    2569                      .dwattr $C$DW$146, DW_AT_bit_offset(0x0d)
    2570                      .dwattr $C$DW$146, DW_AT_bit_size(0x01)
    2571                      .dwattr $C$DW$146, DW_AT_data_member_location[DW_OP_plus_uconst 0x0]
    2572                      .dwattr $C$DW$146, DW_AT_accessibility(DW_ACCESS_public)
    2573              
    2574              $C$DW$147       .dwtag  DW_TAG_member
    2575                      .dwattr $C$DW$147, DW_AT_type(*$C$DW$T$19)
    2576                      .dwattr $C$DW$147, DW_AT_name("rsvd2")
    2577                      .dwattr $C$DW$147, DW_AT_TI_symbol_name("_rsvd2")
    2578                      .dwattr $C$DW$147, DW_AT_bit_offset(0x0c)
    2579                      .dwattr $C$DW$147, DW_AT_bit_size(0x01)
    2580                      .dwattr $C$DW$147, DW_AT_data_member_location[DW_OP_plus_uconst 0x0]
    2581                      .dwattr $C$DW$147, DW_AT_accessibility(DW_ACCESS_public)
    2582              
    2583              $C$DW$148       .dwtag  DW_TAG_member
    2584                      .dwattr $C$DW$148, DW_AT_type(*$C$DW$T$19)
    2585                      .dwattr $C$DW$148, DW_AT_name("rsvd3")
    2586                      .dwattr $C$DW$148, DW_AT_TI_symbol_name("_rsvd3")
    2587                      .dwattr $C$DW$148, DW_AT_bit_offset(0x0b)
    2588                      .dwattr $C$DW$148, DW_AT_bit_size(0x01)
    2589                      .dwattr $C$DW$148, DW_AT_data_member_location[DW_OP_plus_uconst 0x0]
    2590                      .dwattr $C$DW$148, DW_AT_accessibility(DW_ACCESS_public)
    2591              
    2592              $C$DW$149       .dwtag  DW_TAG_member
    2593                      .dwattr $C$DW$149, DW_AT_type(*$C$DW$T$19)
    2594                      .dwattr $C$DW$149, DW_AT_name("rsvd4")
    2595                      .dwattr $C$DW$149, DW_AT_TI_symbol_name("_rsvd4")
    2596                      .dwattr $C$DW$149, DW_AT_bit_offset(0x00)
    2597                      .dwattr $C$DW$149, DW_AT_bit_size(0x0b)
    2598                      .dwattr $C$DW$149, DW_AT_data_member_location[DW_OP_plus_uconst 0x0]
    2599                      .dwattr $C$DW$149, DW_AT_accessibility(DW_ACCESS_public)
    2600              
    2601                      .dwendtag $C$DW$T$44
    2602              
    2603              
    2604              $C$DW$T$45      .dwtag  DW_TAG_union_type
    2605                      .dwattr $C$DW$T$45, DW_AT_name("SDCTLPARM1_REG")
    2606                      .dwattr $C$DW$T$45, DW_AT_byte_size(0x01)
    2607              $C$DW$150       .dwtag  DW_TAG_member
    2608                      .dwattr $C$DW$150, DW_AT_type(*$C$DW$T$19)
    2609                      .dwattr $C$DW$150, DW_AT_name("all")
TMS320C2000 Assembler PC v15.12.1 Sun May 28 10:39:54 2017

Tools Copyright (c) 1996-2015 Texas Instruments Incorporated
F2837xD_sdfm_drivers.asm                                             PAGE   53

    2610                      .dwattr $C$DW$150, DW_AT_TI_symbol_name("_all")
    2611                      .dwattr $C$DW$150, DW_AT_data_member_location[DW_OP_plus_uconst 0x0]
    2612                      .dwattr $C$DW$150, DW_AT_accessibility(DW_ACCESS_public)
    2613              
    2614              $C$DW$151       .dwtag  DW_TAG_member
    2615                      .dwattr $C$DW$151, DW_AT_type(*$C$DW$T$44)
    2616                      .dwattr $C$DW$151, DW_AT_name("bit")
    2617                      .dwattr $C$DW$151, DW_AT_TI_symbol_name("_bit")
    2618                      .dwattr $C$DW$151, DW_AT_data_member_location[DW_OP_plus_uconst 0x0]
    2619                      .dwattr $C$DW$151, DW_AT_accessibility(DW_ACCESS_public)
    2620              
    2621                      .dwendtag $C$DW$T$45
    2622              
    2623              
    2624              $C$DW$T$46      .dwtag  DW_TAG_structure_type
    2625                      .dwattr $C$DW$T$46, DW_AT_name("SDCTLPARM2_BITS")
    2626                      .dwattr $C$DW$T$46, DW_AT_byte_size(0x01)
    2627              $C$DW$152       .dwtag  DW_TAG_member
    2628                      .dwattr $C$DW$152, DW_AT_type(*$C$DW$T$19)
    2629                      .dwattr $C$DW$152, DW_AT_name("MOD")
    2630                      .dwattr $C$DW$152, DW_AT_TI_symbol_name("_MOD")
    2631                      .dwattr $C$DW$152, DW_AT_bit_offset(0x0e)
    2632                      .dwattr $C$DW$152, DW_AT_bit_size(0x02)
    2633                      .dwattr $C$DW$152, DW_AT_data_member_location[DW_OP_plus_uconst 0x0]
    2634                      .dwattr $C$DW$152, DW_AT_accessibility(DW_ACCESS_public)
    2635              
    2636              $C$DW$153       .dwtag  DW_TAG_member
    2637                      .dwattr $C$DW$153, DW_AT_type(*$C$DW$T$19)
    2638                      .dwattr $C$DW$153, DW_AT_name("rsvd1")
    2639                      .dwattr $C$DW$153, DW_AT_TI_symbol_name("_rsvd1")
    2640                      .dwattr $C$DW$153, DW_AT_bit_offset(0x0d)
    2641                      .dwattr $C$DW$153, DW_AT_bit_size(0x01)
    2642                      .dwattr $C$DW$153, DW_AT_data_member_location[DW_OP_plus_uconst 0x0]
    2643                      .dwattr $C$DW$153, DW_AT_accessibility(DW_ACCESS_public)
    2644              
    2645              $C$DW$154       .dwtag  DW_TAG_member
    2646                      .dwattr $C$DW$154, DW_AT_type(*$C$DW$T$19)
    2647                      .dwattr $C$DW$154, DW_AT_name("rsvd2")
    2648                      .dwattr $C$DW$154, DW_AT_TI_symbol_name("_rsvd2")
    2649                      .dwattr $C$DW$154, DW_AT_bit_offset(0x0c)
    2650                      .dwattr $C$DW$154, DW_AT_bit_size(0x01)
    2651                      .dwattr $C$DW$154, DW_AT_data_member_location[DW_OP_plus_uconst 0x0]
    2652                      .dwattr $C$DW$154, DW_AT_accessibility(DW_ACCESS_public)
    2653              
    2654              $C$DW$155       .dwtag  DW_TAG_member
    2655                      .dwattr $C$DW$155, DW_AT_type(*$C$DW$T$19)
    2656                      .dwattr $C$DW$155, DW_AT_name("rsvd3")
    2657                      .dwattr $C$DW$155, DW_AT_TI_symbol_name("_rsvd3")
    2658                      .dwattr $C$DW$155, DW_AT_bit_offset(0x0b)
    2659                      .dwattr $C$DW$155, DW_AT_bit_size(0x01)
    2660                      .dwattr $C$DW$155, DW_AT_data_member_location[DW_OP_plus_uconst 0x0]
    2661                      .dwattr $C$DW$155, DW_AT_accessibility(DW_ACCESS_public)
    2662              
    2663              $C$DW$156       .dwtag  DW_TAG_member
    2664                      .dwattr $C$DW$156, DW_AT_type(*$C$DW$T$19)
TMS320C2000 Assembler PC v15.12.1 Sun May 28 10:39:54 2017

Tools Copyright (c) 1996-2015 Texas Instruments Incorporated
F2837xD_sdfm_drivers.asm                                             PAGE   54

    2665                      .dwattr $C$DW$156, DW_AT_name("MS")
    2666                      .dwattr $C$DW$156, DW_AT_TI_symbol_name("_MS")
    2667                      .dwattr $C$DW$156, DW_AT_bit_offset(0x00)
    2668                      .dwattr $C$DW$156, DW_AT_bit_size(0x0b)
    2669                      .dwattr $C$DW$156, DW_AT_data_member_location[DW_OP_plus_uconst 0x0]
    2670                      .dwattr $C$DW$156, DW_AT_accessibility(DW_ACCESS_public)
    2671              
    2672                      .dwendtag $C$DW$T$46
    2673              
    2674              
    2675              $C$DW$T$47      .dwtag  DW_TAG_union_type
    2676                      .dwattr $C$DW$T$47, DW_AT_name("SDCTLPARM2_REG")
    2677                      .dwattr $C$DW$T$47, DW_AT_byte_size(0x01)
    2678              $C$DW$157       .dwtag  DW_TAG_member
    2679                      .dwattr $C$DW$157, DW_AT_type(*$C$DW$T$19)
    2680                      .dwattr $C$DW$157, DW_AT_name("all")
    2681                      .dwattr $C$DW$157, DW_AT_TI_symbol_name("_all")
    2682                      .dwattr $C$DW$157, DW_AT_data_member_location[DW_OP_plus_uconst 0x0]
    2683                      .dwattr $C$DW$157, DW_AT_accessibility(DW_ACCESS_public)
    2684              
    2685              $C$DW$158       .dwtag  DW_TAG_member
    2686                      .dwattr $C$DW$158, DW_AT_type(*$C$DW$T$46)
    2687                      .dwattr $C$DW$158, DW_AT_name("bit")
    2688                      .dwattr $C$DW$158, DW_AT_TI_symbol_name("_bit")
    2689                      .dwattr $C$DW$158, DW_AT_data_member_location[DW_OP_plus_uconst 0x0]
    2690                      .dwattr $C$DW$158, DW_AT_accessibility(DW_ACCESS_public)
    2691              
    2692                      .dwendtag $C$DW$T$47
    2693              
    2694              
    2695              $C$DW$T$48      .dwtag  DW_TAG_structure_type
    2696                      .dwattr $C$DW$T$48, DW_AT_name("SDCTLPARM3_BITS")
    2697                      .dwattr $C$DW$T$48, DW_AT_byte_size(0x01)
    2698              $C$DW$159       .dwtag  DW_TAG_member
    2699                      .dwattr $C$DW$159, DW_AT_type(*$C$DW$T$19)
    2700                      .dwattr $C$DW$159, DW_AT_name("MOD")
    2701                      .dwattr $C$DW$159, DW_AT_TI_symbol_name("_MOD")
    2702                      .dwattr $C$DW$159, DW_AT_bit_offset(0x0e)
    2703                      .dwattr $C$DW$159, DW_AT_bit_size(0x02)
    2704                      .dwattr $C$DW$159, DW_AT_data_member_location[DW_OP_plus_uconst 0x0]
    2705                      .dwattr $C$DW$159, DW_AT_accessibility(DW_ACCESS_public)
    2706              
    2707              $C$DW$160       .dwtag  DW_TAG_member
    2708                      .dwattr $C$DW$160, DW_AT_type(*$C$DW$T$19)
    2709                      .dwattr $C$DW$160, DW_AT_name("rsvd1")
    2710                      .dwattr $C$DW$160, DW_AT_TI_symbol_name("_rsvd1")
    2711                      .dwattr $C$DW$160, DW_AT_bit_offset(0x0d)
    2712                      .dwattr $C$DW$160, DW_AT_bit_size(0x01)
    2713                      .dwattr $C$DW$160, DW_AT_data_member_location[DW_OP_plus_uconst 0x0]
    2714                      .dwattr $C$DW$160, DW_AT_accessibility(DW_ACCESS_public)
    2715              
    2716              $C$DW$161       .dwtag  DW_TAG_member
    2717                      .dwattr $C$DW$161, DW_AT_type(*$C$DW$T$19)
    2718                      .dwattr $C$DW$161, DW_AT_name("rsvd2")
    2719                      .dwattr $C$DW$161, DW_AT_TI_symbol_name("_rsvd2")
TMS320C2000 Assembler PC v15.12.1 Sun May 28 10:39:54 2017

Tools Copyright (c) 1996-2015 Texas Instruments Incorporated
F2837xD_sdfm_drivers.asm                                             PAGE   55

    2720                      .dwattr $C$DW$161, DW_AT_bit_offset(0x0c)
    2721                      .dwattr $C$DW$161, DW_AT_bit_size(0x01)
    2722                      .dwattr $C$DW$161, DW_AT_data_member_location[DW_OP_plus_uconst 0x0]
    2723                      .dwattr $C$DW$161, DW_AT_accessibility(DW_ACCESS_public)
    2724              
    2725              $C$DW$162       .dwtag  DW_TAG_member
    2726                      .dwattr $C$DW$162, DW_AT_type(*$C$DW$T$19)
    2727                      .dwattr $C$DW$162, DW_AT_name("rsvd3")
    2728                      .dwattr $C$DW$162, DW_AT_TI_symbol_name("_rsvd3")
    2729                      .dwattr $C$DW$162, DW_AT_bit_offset(0x0b)
    2730                      .dwattr $C$DW$162, DW_AT_bit_size(0x01)
    2731                      .dwattr $C$DW$162, DW_AT_data_member_location[DW_OP_plus_uconst 0x0]
    2732                      .dwattr $C$DW$162, DW_AT_accessibility(DW_ACCESS_public)
    2733              
    2734              $C$DW$163       .dwtag  DW_TAG_member
    2735                      .dwattr $C$DW$163, DW_AT_type(*$C$DW$T$19)
    2736                      .dwattr $C$DW$163, DW_AT_name("MS")
    2737                      .dwattr $C$DW$163, DW_AT_TI_symbol_name("_MS")
    2738                      .dwattr $C$DW$163, DW_AT_bit_offset(0x00)
    2739                      .dwattr $C$DW$163, DW_AT_bit_size(0x0b)
    2740                      .dwattr $C$DW$163, DW_AT_data_member_location[DW_OP_plus_uconst 0x0]
    2741                      .dwattr $C$DW$163, DW_AT_accessibility(DW_ACCESS_public)
    2742              
    2743                      .dwendtag $C$DW$T$48
    2744              
    2745              
    2746              $C$DW$T$49      .dwtag  DW_TAG_union_type
    2747                      .dwattr $C$DW$T$49, DW_AT_name("SDCTLPARM3_REG")
    2748                      .dwattr $C$DW$T$49, DW_AT_byte_size(0x01)
    2749              $C$DW$164       .dwtag  DW_TAG_member
    2750                      .dwattr $C$DW$164, DW_AT_type(*$C$DW$T$19)
    2751                      .dwattr $C$DW$164, DW_AT_name("all")
    2752                      .dwattr $C$DW$164, DW_AT_TI_symbol_name("_all")
    2753                      .dwattr $C$DW$164, DW_AT_data_member_location[DW_OP_plus_uconst 0x0]
    2754                      .dwattr $C$DW$164, DW_AT_accessibility(DW_ACCESS_public)
    2755              
    2756              $C$DW$165       .dwtag  DW_TAG_member
    2757                      .dwattr $C$DW$165, DW_AT_type(*$C$DW$T$48)
    2758                      .dwattr $C$DW$165, DW_AT_name("bit")
    2759                      .dwattr $C$DW$165, DW_AT_TI_symbol_name("_bit")
    2760                      .dwattr $C$DW$165, DW_AT_data_member_location[DW_OP_plus_uconst 0x0]
    2761                      .dwattr $C$DW$165, DW_AT_accessibility(DW_ACCESS_public)
    2762              
    2763                      .dwendtag $C$DW$T$49
    2764              
    2765              
    2766              $C$DW$T$50      .dwtag  DW_TAG_structure_type
    2767                      .dwattr $C$DW$T$50, DW_AT_name("SDCTLPARM4_BITS")
    2768                      .dwattr $C$DW$T$50, DW_AT_byte_size(0x01)
    2769              $C$DW$166       .dwtag  DW_TAG_member
    2770                      .dwattr $C$DW$166, DW_AT_type(*$C$DW$T$19)
    2771                      .dwattr $C$DW$166, DW_AT_name("MOD")
    2772                      .dwattr $C$DW$166, DW_AT_TI_symbol_name("_MOD")
    2773                      .dwattr $C$DW$166, DW_AT_bit_offset(0x0e)
    2774                      .dwattr $C$DW$166, DW_AT_bit_size(0x02)
TMS320C2000 Assembler PC v15.12.1 Sun May 28 10:39:54 2017

Tools Copyright (c) 1996-2015 Texas Instruments Incorporated
F2837xD_sdfm_drivers.asm                                             PAGE   56

    2775                      .dwattr $C$DW$166, DW_AT_data_member_location[DW_OP_plus_uconst 0x0]
    2776                      .dwattr $C$DW$166, DW_AT_accessibility(DW_ACCESS_public)
    2777              
    2778              $C$DW$167       .dwtag  DW_TAG_member
    2779                      .dwattr $C$DW$167, DW_AT_type(*$C$DW$T$19)
    2780                      .dwattr $C$DW$167, DW_AT_name("rsvd1")
    2781                      .dwattr $C$DW$167, DW_AT_TI_symbol_name("_rsvd1")
    2782                      .dwattr $C$DW$167, DW_AT_bit_offset(0x0d)
    2783                      .dwattr $C$DW$167, DW_AT_bit_size(0x01)
    2784                      .dwattr $C$DW$167, DW_AT_data_member_location[DW_OP_plus_uconst 0x0]
    2785                      .dwattr $C$DW$167, DW_AT_accessibility(DW_ACCESS_public)
    2786              
    2787              $C$DW$168       .dwtag  DW_TAG_member
    2788                      .dwattr $C$DW$168, DW_AT_type(*$C$DW$T$19)
    2789                      .dwattr $C$DW$168, DW_AT_name("rsvd2")
    2790                      .dwattr $C$DW$168, DW_AT_TI_symbol_name("_rsvd2")
    2791                      .dwattr $C$DW$168, DW_AT_bit_offset(0x0c)
    2792                      .dwattr $C$DW$168, DW_AT_bit_size(0x01)
    2793                      .dwattr $C$DW$168, DW_AT_data_member_location[DW_OP_plus_uconst 0x0]
    2794                      .dwattr $C$DW$168, DW_AT_accessibility(DW_ACCESS_public)
    2795              
    2796              $C$DW$169       .dwtag  DW_TAG_member
    2797                      .dwattr $C$DW$169, DW_AT_type(*$C$DW$T$19)
    2798                      .dwattr $C$DW$169, DW_AT_name("rsvd3")
    2799                      .dwattr $C$DW$169, DW_AT_TI_symbol_name("_rsvd3")
    2800                      .dwattr $C$DW$169, DW_AT_bit_offset(0x0b)
    2801                      .dwattr $C$DW$169, DW_AT_bit_size(0x01)
    2802                      .dwattr $C$DW$169, DW_AT_data_member_location[DW_OP_plus_uconst 0x0]
    2803                      .dwattr $C$DW$169, DW_AT_accessibility(DW_ACCESS_public)
    2804              
    2805              $C$DW$170       .dwtag  DW_TAG_member
    2806                      .dwattr $C$DW$170, DW_AT_type(*$C$DW$T$19)
    2807                      .dwattr $C$DW$170, DW_AT_name("MS")
    2808                      .dwattr $C$DW$170, DW_AT_TI_symbol_name("_MS")
    2809                      .dwattr $C$DW$170, DW_AT_bit_offset(0x00)
    2810                      .dwattr $C$DW$170, DW_AT_bit_size(0x0b)
    2811                      .dwattr $C$DW$170, DW_AT_data_member_location[DW_OP_plus_uconst 0x0]
    2812                      .dwattr $C$DW$170, DW_AT_accessibility(DW_ACCESS_public)
    2813              
    2814                      .dwendtag $C$DW$T$50
    2815              
    2816              
    2817              $C$DW$T$51      .dwtag  DW_TAG_union_type
    2818                      .dwattr $C$DW$T$51, DW_AT_name("SDCTLPARM4_REG")
    2819                      .dwattr $C$DW$T$51, DW_AT_byte_size(0x01)
    2820              $C$DW$171       .dwtag  DW_TAG_member
    2821                      .dwattr $C$DW$171, DW_AT_type(*$C$DW$T$19)
    2822                      .dwattr $C$DW$171, DW_AT_name("all")
    2823                      .dwattr $C$DW$171, DW_AT_TI_symbol_name("_all")
    2824                      .dwattr $C$DW$171, DW_AT_data_member_location[DW_OP_plus_uconst 0x0]
    2825                      .dwattr $C$DW$171, DW_AT_accessibility(DW_ACCESS_public)
    2826              
    2827              $C$DW$172       .dwtag  DW_TAG_member
    2828                      .dwattr $C$DW$172, DW_AT_type(*$C$DW$T$50)
    2829                      .dwattr $C$DW$172, DW_AT_name("bit")
TMS320C2000 Assembler PC v15.12.1 Sun May 28 10:39:54 2017

Tools Copyright (c) 1996-2015 Texas Instruments Incorporated
F2837xD_sdfm_drivers.asm                                             PAGE   57

    2830                      .dwattr $C$DW$172, DW_AT_TI_symbol_name("_bit")
    2831                      .dwattr $C$DW$172, DW_AT_data_member_location[DW_OP_plus_uconst 0x0]
    2832                      .dwattr $C$DW$172, DW_AT_accessibility(DW_ACCESS_public)
    2833              
    2834                      .dwendtag $C$DW$T$51
    2835              
    2836              
    2837              $C$DW$T$52      .dwtag  DW_TAG_structure_type
    2838                      .dwattr $C$DW$T$52, DW_AT_name("SDCTL_BITS")
    2839                      .dwattr $C$DW$T$52, DW_AT_byte_size(0x01)
    2840              $C$DW$173       .dwtag  DW_TAG_member
    2841                      .dwattr $C$DW$173, DW_AT_type(*$C$DW$T$19)
    2842                      .dwattr $C$DW$173, DW_AT_name("rsvd1")
    2843                      .dwattr $C$DW$173, DW_AT_TI_symbol_name("_rsvd1")
    2844                      .dwattr $C$DW$173, DW_AT_bit_offset(0x03)
    2845                      .dwattr $C$DW$173, DW_AT_bit_size(0x0d)
    2846                      .dwattr $C$DW$173, DW_AT_data_member_location[DW_OP_plus_uconst 0x0]
    2847                      .dwattr $C$DW$173, DW_AT_accessibility(DW_ACCESS_public)
    2848              
    2849              $C$DW$174       .dwtag  DW_TAG_member
    2850                      .dwattr $C$DW$174, DW_AT_type(*$C$DW$T$19)
    2851                      .dwattr $C$DW$174, DW_AT_name("MIE")
    2852                      .dwattr $C$DW$174, DW_AT_TI_symbol_name("_MIE")
    2853                      .dwattr $C$DW$174, DW_AT_bit_offset(0x02)
    2854                      .dwattr $C$DW$174, DW_AT_bit_size(0x01)
    2855                      .dwattr $C$DW$174, DW_AT_data_member_location[DW_OP_plus_uconst 0x0]
    2856                      .dwattr $C$DW$174, DW_AT_accessibility(DW_ACCESS_public)
    2857              
    2858              $C$DW$175       .dwtag  DW_TAG_member
    2859                      .dwattr $C$DW$175, DW_AT_type(*$C$DW$T$19)
    2860                      .dwattr $C$DW$175, DW_AT_name("rsvd2")
    2861                      .dwattr $C$DW$175, DW_AT_TI_symbol_name("_rsvd2")
    2862                      .dwattr $C$DW$175, DW_AT_bit_offset(0x01)
    2863                      .dwattr $C$DW$175, DW_AT_bit_size(0x01)
    2864                      .dwattr $C$DW$175, DW_AT_data_member_location[DW_OP_plus_uconst 0x0]
    2865                      .dwattr $C$DW$175, DW_AT_accessibility(DW_ACCESS_public)
    2866              
    2867              $C$DW$176       .dwtag  DW_TAG_member
    2868                      .dwattr $C$DW$176, DW_AT_type(*$C$DW$T$19)
    2869                      .dwattr $C$DW$176, DW_AT_name("rsvd3")
    2870                      .dwattr $C$DW$176, DW_AT_TI_symbol_name("_rsvd3")
    2871                      .dwattr $C$DW$176, DW_AT_bit_offset(0x00)
    2872                      .dwattr $C$DW$176, DW_AT_bit_size(0x01)
    2873                      .dwattr $C$DW$176, DW_AT_data_member_location[DW_OP_plus_uconst 0x0]
    2874                      .dwattr $C$DW$176, DW_AT_accessibility(DW_ACCESS_public)
    2875              
    2876                      .dwendtag $C$DW$T$52
    2877              
    2878              
    2879              $C$DW$T$53      .dwtag  DW_TAG_union_type
    2880                      .dwattr $C$DW$T$53, DW_AT_name("SDCTL_REG")
    2881                      .dwattr $C$DW$T$53, DW_AT_byte_size(0x01)
    2882              $C$DW$177       .dwtag  DW_TAG_member
    2883                      .dwattr $C$DW$177, DW_AT_type(*$C$DW$T$19)
    2884                      .dwattr $C$DW$177, DW_AT_name("all")
TMS320C2000 Assembler PC v15.12.1 Sun May 28 10:39:54 2017

Tools Copyright (c) 1996-2015 Texas Instruments Incorporated
F2837xD_sdfm_drivers.asm                                             PAGE   58

    2885                      .dwattr $C$DW$177, DW_AT_TI_symbol_name("_all")
    2886                      .dwattr $C$DW$177, DW_AT_data_member_location[DW_OP_plus_uconst 0x0]
    2887                      .dwattr $C$DW$177, DW_AT_accessibility(DW_ACCESS_public)
    2888              
    2889              $C$DW$178       .dwtag  DW_TAG_member
    2890                      .dwattr $C$DW$178, DW_AT_type(*$C$DW$T$52)
    2891                      .dwattr $C$DW$178, DW_AT_name("bit")
    2892                      .dwattr $C$DW$178, DW_AT_TI_symbol_name("_bit")
    2893                      .dwattr $C$DW$178, DW_AT_data_member_location[DW_OP_plus_uconst 0x0]
    2894                      .dwattr $C$DW$178, DW_AT_accessibility(DW_ACCESS_public)
    2895              
    2896                      .dwendtag $C$DW$T$53
    2897              
    2898              
    2899              $C$DW$T$54      .dwtag  DW_TAG_structure_type
    2900                      .dwattr $C$DW$T$54, DW_AT_name("SDDATA1_BITS")
    2901                      .dwattr $C$DW$T$54, DW_AT_byte_size(0x02)
    2902              $C$DW$179       .dwtag  DW_TAG_member
    2903                      .dwattr $C$DW$179, DW_AT_type(*$C$DW$T$19)
    2904                      .dwattr $C$DW$179, DW_AT_name("DATA16")
    2905                      .dwattr $C$DW$179, DW_AT_TI_symbol_name("_DATA16")
    2906                      .dwattr $C$DW$179, DW_AT_bit_offset(0x00)
    2907                      .dwattr $C$DW$179, DW_AT_bit_size(0x10)
    2908                      .dwattr $C$DW$179, DW_AT_data_member_location[DW_OP_plus_uconst 0x0]
    2909                      .dwattr $C$DW$179, DW_AT_accessibility(DW_ACCESS_public)
    2910              
    2911              $C$DW$180       .dwtag  DW_TAG_member
    2912                      .dwattr $C$DW$180, DW_AT_type(*$C$DW$T$19)
    2913                      .dwattr $C$DW$180, DW_AT_name("DATA32HI")
    2914                      .dwattr $C$DW$180, DW_AT_TI_symbol_name("_DATA32HI")
    2915                      .dwattr $C$DW$180, DW_AT_bit_offset(0x00)
    2916                      .dwattr $C$DW$180, DW_AT_bit_size(0x10)
    2917                      .dwattr $C$DW$180, DW_AT_data_member_location[DW_OP_plus_uconst 0x1]
    2918                      .dwattr $C$DW$180, DW_AT_accessibility(DW_ACCESS_public)
    2919              
    2920                      .dwendtag $C$DW$T$54
    2921              
    2922              
    2923              $C$DW$T$56      .dwtag  DW_TAG_union_type
    2924                      .dwattr $C$DW$T$56, DW_AT_name("SDDATA1_REG")
    2925                      .dwattr $C$DW$T$56, DW_AT_byte_size(0x02)
    2926              $C$DW$181       .dwtag  DW_TAG_member
    2927                      .dwattr $C$DW$181, DW_AT_type(*$C$DW$T$55)
    2928                      .dwattr $C$DW$181, DW_AT_name("all")
    2929                      .dwattr $C$DW$181, DW_AT_TI_symbol_name("_all")
    2930                      .dwattr $C$DW$181, DW_AT_data_member_location[DW_OP_plus_uconst 0x0]
    2931                      .dwattr $C$DW$181, DW_AT_accessibility(DW_ACCESS_public)
    2932              
    2933              $C$DW$182       .dwtag  DW_TAG_member
    2934                      .dwattr $C$DW$182, DW_AT_type(*$C$DW$T$54)
    2935                      .dwattr $C$DW$182, DW_AT_name("bit")
    2936                      .dwattr $C$DW$182, DW_AT_TI_symbol_name("_bit")
    2937                      .dwattr $C$DW$182, DW_AT_data_member_location[DW_OP_plus_uconst 0x0]
    2938                      .dwattr $C$DW$182, DW_AT_accessibility(DW_ACCESS_public)
    2939              
TMS320C2000 Assembler PC v15.12.1 Sun May 28 10:39:54 2017

Tools Copyright (c) 1996-2015 Texas Instruments Incorporated
F2837xD_sdfm_drivers.asm                                             PAGE   59

    2940                      .dwendtag $C$DW$T$56
    2941              
    2942              
    2943              $C$DW$T$57      .dwtag  DW_TAG_structure_type
    2944                      .dwattr $C$DW$T$57, DW_AT_name("SDDATA2_BITS")
    2945                      .dwattr $C$DW$T$57, DW_AT_byte_size(0x02)
    2946              $C$DW$183       .dwtag  DW_TAG_member
    2947                      .dwattr $C$DW$183, DW_AT_type(*$C$DW$T$19)
    2948                      .dwattr $C$DW$183, DW_AT_name("DATA16")
    2949                      .dwattr $C$DW$183, DW_AT_TI_symbol_name("_DATA16")
    2950                      .dwattr $C$DW$183, DW_AT_bit_offset(0x00)
    2951                      .dwattr $C$DW$183, DW_AT_bit_size(0x10)
    2952                      .dwattr $C$DW$183, DW_AT_data_member_location[DW_OP_plus_uconst 0x0]
    2953                      .dwattr $C$DW$183, DW_AT_accessibility(DW_ACCESS_public)
    2954              
    2955              $C$DW$184       .dwtag  DW_TAG_member
    2956                      .dwattr $C$DW$184, DW_AT_type(*$C$DW$T$19)
    2957                      .dwattr $C$DW$184, DW_AT_name("DATA32HI")
    2958                      .dwattr $C$DW$184, DW_AT_TI_symbol_name("_DATA32HI")
    2959                      .dwattr $C$DW$184, DW_AT_bit_offset(0x00)
    2960                      .dwattr $C$DW$184, DW_AT_bit_size(0x10)
    2961                      .dwattr $C$DW$184, DW_AT_data_member_location[DW_OP_plus_uconst 0x1]
    2962                      .dwattr $C$DW$184, DW_AT_accessibility(DW_ACCESS_public)
    2963              
    2964                      .dwendtag $C$DW$T$57
    2965              
    2966              
    2967              $C$DW$T$58      .dwtag  DW_TAG_union_type
    2968                      .dwattr $C$DW$T$58, DW_AT_name("SDDATA2_REG")
    2969                      .dwattr $C$DW$T$58, DW_AT_byte_size(0x02)
    2970              $C$DW$185       .dwtag  DW_TAG_member
    2971                      .dwattr $C$DW$185, DW_AT_type(*$C$DW$T$55)
    2972                      .dwattr $C$DW$185, DW_AT_name("all")
    2973                      .dwattr $C$DW$185, DW_AT_TI_symbol_name("_all")
    2974                      .dwattr $C$DW$185, DW_AT_data_member_location[DW_OP_plus_uconst 0x0]
    2975                      .dwattr $C$DW$185, DW_AT_accessibility(DW_ACCESS_public)
    2976              
    2977              $C$DW$186       .dwtag  DW_TAG_member
    2978                      .dwattr $C$DW$186, DW_AT_type(*$C$DW$T$57)
    2979                      .dwattr $C$DW$186, DW_AT_name("bit")
    2980                      .dwattr $C$DW$186, DW_AT_TI_symbol_name("_bit")
    2981                      .dwattr $C$DW$186, DW_AT_data_member_location[DW_OP_plus_uconst 0x0]
    2982                      .dwattr $C$DW$186, DW_AT_accessibility(DW_ACCESS_public)
    2983              
    2984                      .dwendtag $C$DW$T$58
    2985              
    2986              
    2987              $C$DW$T$59      .dwtag  DW_TAG_structure_type
    2988                      .dwattr $C$DW$T$59, DW_AT_name("SDDATA3_BITS")
    2989                      .dwattr $C$DW$T$59, DW_AT_byte_size(0x02)
    2990              $C$DW$187       .dwtag  DW_TAG_member
    2991                      .dwattr $C$DW$187, DW_AT_type(*$C$DW$T$19)
    2992                      .dwattr $C$DW$187, DW_AT_name("DATA16")
    2993                      .dwattr $C$DW$187, DW_AT_TI_symbol_name("_DATA16")
    2994                      .dwattr $C$DW$187, DW_AT_bit_offset(0x00)
TMS320C2000 Assembler PC v15.12.1 Sun May 28 10:39:54 2017

Tools Copyright (c) 1996-2015 Texas Instruments Incorporated
F2837xD_sdfm_drivers.asm                                             PAGE   60

    2995                      .dwattr $C$DW$187, DW_AT_bit_size(0x10)
    2996                      .dwattr $C$DW$187, DW_AT_data_member_location[DW_OP_plus_uconst 0x0]
    2997                      .dwattr $C$DW$187, DW_AT_accessibility(DW_ACCESS_public)
    2998              
    2999              $C$DW$188       .dwtag  DW_TAG_member
    3000                      .dwattr $C$DW$188, DW_AT_type(*$C$DW$T$19)
    3001                      .dwattr $C$DW$188, DW_AT_name("DATA32HI")
    3002                      .dwattr $C$DW$188, DW_AT_TI_symbol_name("_DATA32HI")
    3003                      .dwattr $C$DW$188, DW_AT_bit_offset(0x00)
    3004                      .dwattr $C$DW$188, DW_AT_bit_size(0x10)
    3005                      .dwattr $C$DW$188, DW_AT_data_member_location[DW_OP_plus_uconst 0x1]
    3006                      .dwattr $C$DW$188, DW_AT_accessibility(DW_ACCESS_public)
    3007              
    3008                      .dwendtag $C$DW$T$59
    3009              
    3010              
    3011              $C$DW$T$60      .dwtag  DW_TAG_union_type
    3012                      .dwattr $C$DW$T$60, DW_AT_name("SDDATA3_REG")
    3013                      .dwattr $C$DW$T$60, DW_AT_byte_size(0x02)
    3014              $C$DW$189       .dwtag  DW_TAG_member
    3015                      .dwattr $C$DW$189, DW_AT_type(*$C$DW$T$55)
    3016                      .dwattr $C$DW$189, DW_AT_name("all")
    3017                      .dwattr $C$DW$189, DW_AT_TI_symbol_name("_all")
    3018                      .dwattr $C$DW$189, DW_AT_data_member_location[DW_OP_plus_uconst 0x0]
    3019                      .dwattr $C$DW$189, DW_AT_accessibility(DW_ACCESS_public)
    3020              
    3021              $C$DW$190       .dwtag  DW_TAG_member
    3022                      .dwattr $C$DW$190, DW_AT_type(*$C$DW$T$59)
    3023                      .dwattr $C$DW$190, DW_AT_name("bit")
    3024                      .dwattr $C$DW$190, DW_AT_TI_symbol_name("_bit")
    3025                      .dwattr $C$DW$190, DW_AT_data_member_location[DW_OP_plus_uconst 0x0]
    3026                      .dwattr $C$DW$190, DW_AT_accessibility(DW_ACCESS_public)
    3027              
    3028                      .dwendtag $C$DW$T$60
    3029              
    3030              
    3031              $C$DW$T$61      .dwtag  DW_TAG_structure_type
    3032                      .dwattr $C$DW$T$61, DW_AT_name("SDDATA4_BITS")
    3033                      .dwattr $C$DW$T$61, DW_AT_byte_size(0x02)
    3034              $C$DW$191       .dwtag  DW_TAG_member
    3035                      .dwattr $C$DW$191, DW_AT_type(*$C$DW$T$19)
    3036                      .dwattr $C$DW$191, DW_AT_name("DATA16")
    3037                      .dwattr $C$DW$191, DW_AT_TI_symbol_name("_DATA16")
    3038                      .dwattr $C$DW$191, DW_AT_bit_offset(0x00)
    3039                      .dwattr $C$DW$191, DW_AT_bit_size(0x10)
    3040                      .dwattr $C$DW$191, DW_AT_data_member_location[DW_OP_plus_uconst 0x0]
    3041                      .dwattr $C$DW$191, DW_AT_accessibility(DW_ACCESS_public)
    3042              
    3043              $C$DW$192       .dwtag  DW_TAG_member
    3044                      .dwattr $C$DW$192, DW_AT_type(*$C$DW$T$19)
    3045                      .dwattr $C$DW$192, DW_AT_name("DATA32HI")
    3046                      .dwattr $C$DW$192, DW_AT_TI_symbol_name("_DATA32HI")
    3047                      .dwattr $C$DW$192, DW_AT_bit_offset(0x00)
    3048                      .dwattr $C$DW$192, DW_AT_bit_size(0x10)
    3049                      .dwattr $C$DW$192, DW_AT_data_member_location[DW_OP_plus_uconst 0x1]
TMS320C2000 Assembler PC v15.12.1 Sun May 28 10:39:54 2017

Tools Copyright (c) 1996-2015 Texas Instruments Incorporated
F2837xD_sdfm_drivers.asm                                             PAGE   61

    3050                      .dwattr $C$DW$192, DW_AT_accessibility(DW_ACCESS_public)
    3051              
    3052                      .dwendtag $C$DW$T$61
    3053              
    3054              
    3055              $C$DW$T$62      .dwtag  DW_TAG_union_type
    3056                      .dwattr $C$DW$T$62, DW_AT_name("SDDATA4_REG")
    3057                      .dwattr $C$DW$T$62, DW_AT_byte_size(0x02)
    3058              $C$DW$193       .dwtag  DW_TAG_member
    3059                      .dwattr $C$DW$193, DW_AT_type(*$C$DW$T$55)
    3060                      .dwattr $C$DW$193, DW_AT_name("all")
    3061                      .dwattr $C$DW$193, DW_AT_TI_symbol_name("_all")
    3062                      .dwattr $C$DW$193, DW_AT_data_member_location[DW_OP_plus_uconst 0x0]
    3063                      .dwattr $C$DW$193, DW_AT_accessibility(DW_ACCESS_public)
    3064              
    3065              $C$DW$194       .dwtag  DW_TAG_member
    3066                      .dwattr $C$DW$194, DW_AT_type(*$C$DW$T$61)
    3067                      .dwattr $C$DW$194, DW_AT_name("bit")
    3068                      .dwattr $C$DW$194, DW_AT_TI_symbol_name("_bit")
    3069                      .dwattr $C$DW$194, DW_AT_data_member_location[DW_OP_plus_uconst 0x0]
    3070                      .dwattr $C$DW$194, DW_AT_accessibility(DW_ACCESS_public)
    3071              
    3072                      .dwendtag $C$DW$T$62
    3073              
    3074              
    3075              $C$DW$T$63      .dwtag  DW_TAG_structure_type
    3076                      .dwattr $C$DW$T$63, DW_AT_name("SDDFPARM1_BITS")
    3077                      .dwattr $C$DW$T$63, DW_AT_byte_size(0x01)
    3078              $C$DW$195       .dwtag  DW_TAG_member
    3079                      .dwattr $C$DW$195, DW_AT_type(*$C$DW$T$19)
    3080                      .dwattr $C$DW$195, DW_AT_name("DOSR")
    3081                      .dwattr $C$DW$195, DW_AT_TI_symbol_name("_DOSR")
    3082                      .dwattr $C$DW$195, DW_AT_bit_offset(0x08)
    3083                      .dwattr $C$DW$195, DW_AT_bit_size(0x08)
    3084                      .dwattr $C$DW$195, DW_AT_data_member_location[DW_OP_plus_uconst 0x0]
    3085                      .dwattr $C$DW$195, DW_AT_accessibility(DW_ACCESS_public)
    3086              
    3087              $C$DW$196       .dwtag  DW_TAG_member
    3088                      .dwattr $C$DW$196, DW_AT_type(*$C$DW$T$19)
    3089                      .dwattr $C$DW$196, DW_AT_name("FEN")
    3090                      .dwattr $C$DW$196, DW_AT_TI_symbol_name("_FEN")
    3091                      .dwattr $C$DW$196, DW_AT_bit_offset(0x07)
    3092                      .dwattr $C$DW$196, DW_AT_bit_size(0x01)
    3093                      .dwattr $C$DW$196, DW_AT_data_member_location[DW_OP_plus_uconst 0x0]
    3094                      .dwattr $C$DW$196, DW_AT_accessibility(DW_ACCESS_public)
    3095              
    3096              $C$DW$197       .dwtag  DW_TAG_member
    3097                      .dwattr $C$DW$197, DW_AT_type(*$C$DW$T$19)
    3098                      .dwattr $C$DW$197, DW_AT_name("AE")
    3099                      .dwattr $C$DW$197, DW_AT_TI_symbol_name("_AE")
    3100                      .dwattr $C$DW$197, DW_AT_bit_offset(0x06)
    3101                      .dwattr $C$DW$197, DW_AT_bit_size(0x01)
    3102                      .dwattr $C$DW$197, DW_AT_data_member_location[DW_OP_plus_uconst 0x0]
    3103                      .dwattr $C$DW$197, DW_AT_accessibility(DW_ACCESS_public)
    3104              
TMS320C2000 Assembler PC v15.12.1 Sun May 28 10:39:54 2017

Tools Copyright (c) 1996-2015 Texas Instruments Incorporated
F2837xD_sdfm_drivers.asm                                             PAGE   62

    3105              $C$DW$198       .dwtag  DW_TAG_member
    3106                      .dwattr $C$DW$198, DW_AT_type(*$C$DW$T$19)
    3107                      .dwattr $C$DW$198, DW_AT_name("SST")
    3108                      .dwattr $C$DW$198, DW_AT_TI_symbol_name("_SST")
    3109                      .dwattr $C$DW$198, DW_AT_bit_offset(0x04)
    3110                      .dwattr $C$DW$198, DW_AT_bit_size(0x02)
    3111                      .dwattr $C$DW$198, DW_AT_data_member_location[DW_OP_plus_uconst 0x0]
    3112                      .dwattr $C$DW$198, DW_AT_accessibility(DW_ACCESS_public)
    3113              
    3114              $C$DW$199       .dwtag  DW_TAG_member
    3115                      .dwattr $C$DW$199, DW_AT_type(*$C$DW$T$19)
    3116                      .dwattr $C$DW$199, DW_AT_name("FILRESEN")
    3117                      .dwattr $C$DW$199, DW_AT_TI_symbol_name("_FILRESEN")
    3118                      .dwattr $C$DW$199, DW_AT_bit_offset(0x03)
    3119                      .dwattr $C$DW$199, DW_AT_bit_size(0x01)
    3120                      .dwattr $C$DW$199, DW_AT_data_member_location[DW_OP_plus_uconst 0x0]
    3121                      .dwattr $C$DW$199, DW_AT_accessibility(DW_ACCESS_public)
    3122              
    3123              $C$DW$200       .dwtag  DW_TAG_member
    3124                      .dwattr $C$DW$200, DW_AT_type(*$C$DW$T$19)
    3125                      .dwattr $C$DW$200, DW_AT_name("rsvd1")
    3126                      .dwattr $C$DW$200, DW_AT_TI_symbol_name("_rsvd1")
    3127                      .dwattr $C$DW$200, DW_AT_bit_offset(0x00)
    3128                      .dwattr $C$DW$200, DW_AT_bit_size(0x03)
    3129                      .dwattr $C$DW$200, DW_AT_data_member_location[DW_OP_plus_uconst 0x0]
    3130                      .dwattr $C$DW$200, DW_AT_accessibility(DW_ACCESS_public)
    3131              
    3132                      .dwendtag $C$DW$T$63
    3133              
    3134              
    3135              $C$DW$T$64      .dwtag  DW_TAG_union_type
    3136                      .dwattr $C$DW$T$64, DW_AT_name("SDDFPARM1_REG")
    3137                      .dwattr $C$DW$T$64, DW_AT_byte_size(0x01)
    3138              $C$DW$201       .dwtag  DW_TAG_member
    3139                      .dwattr $C$DW$201, DW_AT_type(*$C$DW$T$19)
    3140                      .dwattr $C$DW$201, DW_AT_name("all")
    3141                      .dwattr $C$DW$201, DW_AT_TI_symbol_name("_all")
    3142                      .dwattr $C$DW$201, DW_AT_data_member_location[DW_OP_plus_uconst 0x0]
    3143                      .dwattr $C$DW$201, DW_AT_accessibility(DW_ACCESS_public)
    3144              
    3145              $C$DW$202       .dwtag  DW_TAG_member
    3146                      .dwattr $C$DW$202, DW_AT_type(*$C$DW$T$63)
    3147                      .dwattr $C$DW$202, DW_AT_name("bit")
    3148                      .dwattr $C$DW$202, DW_AT_TI_symbol_name("_bit")
    3149                      .dwattr $C$DW$202, DW_AT_data_member_location[DW_OP_plus_uconst 0x0]
    3150                      .dwattr $C$DW$202, DW_AT_accessibility(DW_ACCESS_public)
    3151              
    3152                      .dwendtag $C$DW$T$64
    3153              
    3154              
    3155              $C$DW$T$65      .dwtag  DW_TAG_structure_type
    3156                      .dwattr $C$DW$T$65, DW_AT_name("SDDFPARM2_BITS")
    3157                      .dwattr $C$DW$T$65, DW_AT_byte_size(0x01)
    3158              $C$DW$203       .dwtag  DW_TAG_member
    3159                      .dwattr $C$DW$203, DW_AT_type(*$C$DW$T$19)
TMS320C2000 Assembler PC v15.12.1 Sun May 28 10:39:54 2017

Tools Copyright (c) 1996-2015 Texas Instruments Incorporated
F2837xD_sdfm_drivers.asm                                             PAGE   63

    3160                      .dwattr $C$DW$203, DW_AT_name("DOSR")
    3161                      .dwattr $C$DW$203, DW_AT_TI_symbol_name("_DOSR")
    3162                      .dwattr $C$DW$203, DW_AT_bit_offset(0x08)
    3163                      .dwattr $C$DW$203, DW_AT_bit_size(0x08)
    3164                      .dwattr $C$DW$203, DW_AT_data_member_location[DW_OP_plus_uconst 0x0]
    3165                      .dwattr $C$DW$203, DW_AT_accessibility(DW_ACCESS_public)
    3166              
    3167              $C$DW$204       .dwtag  DW_TAG_member
    3168                      .dwattr $C$DW$204, DW_AT_type(*$C$DW$T$19)
    3169                      .dwattr $C$DW$204, DW_AT_name("FEN")
    3170                      .dwattr $C$DW$204, DW_AT_TI_symbol_name("_FEN")
    3171                      .dwattr $C$DW$204, DW_AT_bit_offset(0x07)
    3172                      .dwattr $C$DW$204, DW_AT_bit_size(0x01)
    3173                      .dwattr $C$DW$204, DW_AT_data_member_location[DW_OP_plus_uconst 0x0]
    3174                      .dwattr $C$DW$204, DW_AT_accessibility(DW_ACCESS_public)
    3175              
    3176              $C$DW$205       .dwtag  DW_TAG_member
    3177                      .dwattr $C$DW$205, DW_AT_type(*$C$DW$T$19)
    3178                      .dwattr $C$DW$205, DW_AT_name("AE")
    3179                      .dwattr $C$DW$205, DW_AT_TI_symbol_name("_AE")
    3180                      .dwattr $C$DW$205, DW_AT_bit_offset(0x06)
    3181                      .dwattr $C$DW$205, DW_AT_bit_size(0x01)
    3182                      .dwattr $C$DW$205, DW_AT_data_member_location[DW_OP_plus_uconst 0x0]
    3183                      .dwattr $C$DW$205, DW_AT_accessibility(DW_ACCESS_public)
    3184              
    3185              $C$DW$206       .dwtag  DW_TAG_member
    3186                      .dwattr $C$DW$206, DW_AT_type(*$C$DW$T$19)
    3187                      .dwattr $C$DW$206, DW_AT_name("SST")
    3188                      .dwattr $C$DW$206, DW_AT_TI_symbol_name("_SST")
    3189                      .dwattr $C$DW$206, DW_AT_bit_offset(0x04)
    3190                      .dwattr $C$DW$206, DW_AT_bit_size(0x02)
    3191                      .dwattr $C$DW$206, DW_AT_data_member_location[DW_OP_plus_uconst 0x0]
    3192                      .dwattr $C$DW$206, DW_AT_accessibility(DW_ACCESS_public)
    3193              
    3194              $C$DW$207       .dwtag  DW_TAG_member
    3195                      .dwattr $C$DW$207, DW_AT_type(*$C$DW$T$19)
    3196                      .dwattr $C$DW$207, DW_AT_name("FILRESEN")
    3197                      .dwattr $C$DW$207, DW_AT_TI_symbol_name("_FILRESEN")
    3198                      .dwattr $C$DW$207, DW_AT_bit_offset(0x03)
    3199                      .dwattr $C$DW$207, DW_AT_bit_size(0x01)
    3200                      .dwattr $C$DW$207, DW_AT_data_member_location[DW_OP_plus_uconst 0x0]
    3201                      .dwattr $C$DW$207, DW_AT_accessibility(DW_ACCESS_public)
    3202              
    3203              $C$DW$208       .dwtag  DW_TAG_member
    3204                      .dwattr $C$DW$208, DW_AT_type(*$C$DW$T$19)
    3205                      .dwattr $C$DW$208, DW_AT_name("rsvd1")
    3206                      .dwattr $C$DW$208, DW_AT_TI_symbol_name("_rsvd1")
    3207                      .dwattr $C$DW$208, DW_AT_bit_offset(0x00)
    3208                      .dwattr $C$DW$208, DW_AT_bit_size(0x03)
    3209                      .dwattr $C$DW$208, DW_AT_data_member_location[DW_OP_plus_uconst 0x0]
    3210                      .dwattr $C$DW$208, DW_AT_accessibility(DW_ACCESS_public)
    3211              
    3212                      .dwendtag $C$DW$T$65
    3213              
    3214              
TMS320C2000 Assembler PC v15.12.1 Sun May 28 10:39:54 2017

Tools Copyright (c) 1996-2015 Texas Instruments Incorporated
F2837xD_sdfm_drivers.asm                                             PAGE   64

    3215              $C$DW$T$66      .dwtag  DW_TAG_union_type
    3216                      .dwattr $C$DW$T$66, DW_AT_name("SDDFPARM2_REG")
    3217                      .dwattr $C$DW$T$66, DW_AT_byte_size(0x01)
    3218              $C$DW$209       .dwtag  DW_TAG_member
    3219                      .dwattr $C$DW$209, DW_AT_type(*$C$DW$T$19)
    3220                      .dwattr $C$DW$209, DW_AT_name("all")
    3221                      .dwattr $C$DW$209, DW_AT_TI_symbol_name("_all")
    3222                      .dwattr $C$DW$209, DW_AT_data_member_location[DW_OP_plus_uconst 0x0]
    3223                      .dwattr $C$DW$209, DW_AT_accessibility(DW_ACCESS_public)
    3224              
    3225              $C$DW$210       .dwtag  DW_TAG_member
    3226                      .dwattr $C$DW$210, DW_AT_type(*$C$DW$T$65)
    3227                      .dwattr $C$DW$210, DW_AT_name("bit")
    3228                      .dwattr $C$DW$210, DW_AT_TI_symbol_name("_bit")
    3229                      .dwattr $C$DW$210, DW_AT_data_member_location[DW_OP_plus_uconst 0x0]
    3230                      .dwattr $C$DW$210, DW_AT_accessibility(DW_ACCESS_public)
    3231              
    3232                      .dwendtag $C$DW$T$66
    3233              
    3234              
    3235              $C$DW$T$67      .dwtag  DW_TAG_structure_type
    3236                      .dwattr $C$DW$T$67, DW_AT_name("SDDFPARM3_BITS")
    3237                      .dwattr $C$DW$T$67, DW_AT_byte_size(0x01)
    3238              $C$DW$211       .dwtag  DW_TAG_member
    3239                      .dwattr $C$DW$211, DW_AT_type(*$C$DW$T$19)
    3240                      .dwattr $C$DW$211, DW_AT_name("DOSR")
    3241                      .dwattr $C$DW$211, DW_AT_TI_symbol_name("_DOSR")
    3242                      .dwattr $C$DW$211, DW_AT_bit_offset(0x08)
    3243                      .dwattr $C$DW$211, DW_AT_bit_size(0x08)
    3244                      .dwattr $C$DW$211, DW_AT_data_member_location[DW_OP_plus_uconst 0x0]
    3245                      .dwattr $C$DW$211, DW_AT_accessibility(DW_ACCESS_public)
    3246              
    3247              $C$DW$212       .dwtag  DW_TAG_member
    3248                      .dwattr $C$DW$212, DW_AT_type(*$C$DW$T$19)
    3249                      .dwattr $C$DW$212, DW_AT_name("FEN")
    3250                      .dwattr $C$DW$212, DW_AT_TI_symbol_name("_FEN")
    3251                      .dwattr $C$DW$212, DW_AT_bit_offset(0x07)
    3252                      .dwattr $C$DW$212, DW_AT_bit_size(0x01)
    3253                      .dwattr $C$DW$212, DW_AT_data_member_location[DW_OP_plus_uconst 0x0]
    3254                      .dwattr $C$DW$212, DW_AT_accessibility(DW_ACCESS_public)
    3255              
    3256              $C$DW$213       .dwtag  DW_TAG_member
    3257                      .dwattr $C$DW$213, DW_AT_type(*$C$DW$T$19)
    3258                      .dwattr $C$DW$213, DW_AT_name("AE")
    3259                      .dwattr $C$DW$213, DW_AT_TI_symbol_name("_AE")
    3260                      .dwattr $C$DW$213, DW_AT_bit_offset(0x06)
    3261                      .dwattr $C$DW$213, DW_AT_bit_size(0x01)
    3262                      .dwattr $C$DW$213, DW_AT_data_member_location[DW_OP_plus_uconst 0x0]
    3263                      .dwattr $C$DW$213, DW_AT_accessibility(DW_ACCESS_public)
    3264              
    3265              $C$DW$214       .dwtag  DW_TAG_member
    3266                      .dwattr $C$DW$214, DW_AT_type(*$C$DW$T$19)
    3267                      .dwattr $C$DW$214, DW_AT_name("SST")
    3268                      .dwattr $C$DW$214, DW_AT_TI_symbol_name("_SST")
    3269                      .dwattr $C$DW$214, DW_AT_bit_offset(0x04)
TMS320C2000 Assembler PC v15.12.1 Sun May 28 10:39:54 2017

Tools Copyright (c) 1996-2015 Texas Instruments Incorporated
F2837xD_sdfm_drivers.asm                                             PAGE   65

    3270                      .dwattr $C$DW$214, DW_AT_bit_size(0x02)
    3271                      .dwattr $C$DW$214, DW_AT_data_member_location[DW_OP_plus_uconst 0x0]
    3272                      .dwattr $C$DW$214, DW_AT_accessibility(DW_ACCESS_public)
    3273              
    3274              $C$DW$215       .dwtag  DW_TAG_member
    3275                      .dwattr $C$DW$215, DW_AT_type(*$C$DW$T$19)
    3276                      .dwattr $C$DW$215, DW_AT_name("FILRESEN")
    3277                      .dwattr $C$DW$215, DW_AT_TI_symbol_name("_FILRESEN")
    3278                      .dwattr $C$DW$215, DW_AT_bit_offset(0x03)
    3279                      .dwattr $C$DW$215, DW_AT_bit_size(0x01)
    3280                      .dwattr $C$DW$215, DW_AT_data_member_location[DW_OP_plus_uconst 0x0]
    3281                      .dwattr $C$DW$215, DW_AT_accessibility(DW_ACCESS_public)
    3282              
    3283              $C$DW$216       .dwtag  DW_TAG_member
    3284                      .dwattr $C$DW$216, DW_AT_type(*$C$DW$T$19)
    3285                      .dwattr $C$DW$216, DW_AT_name("rsvd1")
    3286                      .dwattr $C$DW$216, DW_AT_TI_symbol_name("_rsvd1")
    3287                      .dwattr $C$DW$216, DW_AT_bit_offset(0x00)
    3288                      .dwattr $C$DW$216, DW_AT_bit_size(0x03)
    3289                      .dwattr $C$DW$216, DW_AT_data_member_location[DW_OP_plus_uconst 0x0]
    3290                      .dwattr $C$DW$216, DW_AT_accessibility(DW_ACCESS_public)
    3291              
    3292                      .dwendtag $C$DW$T$67
    3293              
    3294              
    3295              $C$DW$T$68      .dwtag  DW_TAG_union_type
    3296                      .dwattr $C$DW$T$68, DW_AT_name("SDDFPARM3_REG")
    3297                      .dwattr $C$DW$T$68, DW_AT_byte_size(0x01)
    3298              $C$DW$217       .dwtag  DW_TAG_member
    3299                      .dwattr $C$DW$217, DW_AT_type(*$C$DW$T$19)
    3300                      .dwattr $C$DW$217, DW_AT_name("all")
    3301                      .dwattr $C$DW$217, DW_AT_TI_symbol_name("_all")
    3302                      .dwattr $C$DW$217, DW_AT_data_member_location[DW_OP_plus_uconst 0x0]
    3303                      .dwattr $C$DW$217, DW_AT_accessibility(DW_ACCESS_public)
    3304              
    3305              $C$DW$218       .dwtag  DW_TAG_member
    3306                      .dwattr $C$DW$218, DW_AT_type(*$C$DW$T$67)
    3307                      .dwattr $C$DW$218, DW_AT_name("bit")
    3308                      .dwattr $C$DW$218, DW_AT_TI_symbol_name("_bit")
    3309                      .dwattr $C$DW$218, DW_AT_data_member_location[DW_OP_plus_uconst 0x0]
    3310                      .dwattr $C$DW$218, DW_AT_accessibility(DW_ACCESS_public)
    3311              
    3312                      .dwendtag $C$DW$T$68
    3313              
    3314              
    3315              $C$DW$T$69      .dwtag  DW_TAG_structure_type
    3316                      .dwattr $C$DW$T$69, DW_AT_name("SDDFPARM4_BITS")
    3317                      .dwattr $C$DW$T$69, DW_AT_byte_size(0x01)
    3318              $C$DW$219       .dwtag  DW_TAG_member
    3319                      .dwattr $C$DW$219, DW_AT_type(*$C$DW$T$19)
    3320                      .dwattr $C$DW$219, DW_AT_name("DOSR")
    3321                      .dwattr $C$DW$219, DW_AT_TI_symbol_name("_DOSR")
    3322                      .dwattr $C$DW$219, DW_AT_bit_offset(0x08)
    3323                      .dwattr $C$DW$219, DW_AT_bit_size(0x08)
    3324                      .dwattr $C$DW$219, DW_AT_data_member_location[DW_OP_plus_uconst 0x0]
TMS320C2000 Assembler PC v15.12.1 Sun May 28 10:39:54 2017

Tools Copyright (c) 1996-2015 Texas Instruments Incorporated
F2837xD_sdfm_drivers.asm                                             PAGE   66

    3325                      .dwattr $C$DW$219, DW_AT_accessibility(DW_ACCESS_public)
    3326              
    3327              $C$DW$220       .dwtag  DW_TAG_member
    3328                      .dwattr $C$DW$220, DW_AT_type(*$C$DW$T$19)
    3329                      .dwattr $C$DW$220, DW_AT_name("FEN")
    3330                      .dwattr $C$DW$220, DW_AT_TI_symbol_name("_FEN")
    3331                      .dwattr $C$DW$220, DW_AT_bit_offset(0x07)
    3332                      .dwattr $C$DW$220, DW_AT_bit_size(0x01)
    3333                      .dwattr $C$DW$220, DW_AT_data_member_location[DW_OP_plus_uconst 0x0]
    3334                      .dwattr $C$DW$220, DW_AT_accessibility(DW_ACCESS_public)
    3335              
    3336              $C$DW$221       .dwtag  DW_TAG_member
    3337                      .dwattr $C$DW$221, DW_AT_type(*$C$DW$T$19)
    3338                      .dwattr $C$DW$221, DW_AT_name("AE")
    3339                      .dwattr $C$DW$221, DW_AT_TI_symbol_name("_AE")
    3340                      .dwattr $C$DW$221, DW_AT_bit_offset(0x06)
    3341                      .dwattr $C$DW$221, DW_AT_bit_size(0x01)
    3342                      .dwattr $C$DW$221, DW_AT_data_member_location[DW_OP_plus_uconst 0x0]
    3343                      .dwattr $C$DW$221, DW_AT_accessibility(DW_ACCESS_public)
    3344              
    3345              $C$DW$222       .dwtag  DW_TAG_member
    3346                      .dwattr $C$DW$222, DW_AT_type(*$C$DW$T$19)
    3347                      .dwattr $C$DW$222, DW_AT_name("SST")
    3348                      .dwattr $C$DW$222, DW_AT_TI_symbol_name("_SST")
    3349                      .dwattr $C$DW$222, DW_AT_bit_offset(0x04)
    3350                      .dwattr $C$DW$222, DW_AT_bit_size(0x02)
    3351                      .dwattr $C$DW$222, DW_AT_data_member_location[DW_OP_plus_uconst 0x0]
    3352                      .dwattr $C$DW$222, DW_AT_accessibility(DW_ACCESS_public)
    3353              
    3354              $C$DW$223       .dwtag  DW_TAG_member
    3355                      .dwattr $C$DW$223, DW_AT_type(*$C$DW$T$19)
    3356                      .dwattr $C$DW$223, DW_AT_name("FILRESEN")
    3357                      .dwattr $C$DW$223, DW_AT_TI_symbol_name("_FILRESEN")
    3358                      .dwattr $C$DW$223, DW_AT_bit_offset(0x03)
    3359                      .dwattr $C$DW$223, DW_AT_bit_size(0x01)
    3360                      .dwattr $C$DW$223, DW_AT_data_member_location[DW_OP_plus_uconst 0x0]
    3361                      .dwattr $C$DW$223, DW_AT_accessibility(DW_ACCESS_public)
    3362              
    3363              $C$DW$224       .dwtag  DW_TAG_member
    3364                      .dwattr $C$DW$224, DW_AT_type(*$C$DW$T$19)
    3365                      .dwattr $C$DW$224, DW_AT_name("rsvd1")
    3366                      .dwattr $C$DW$224, DW_AT_TI_symbol_name("_rsvd1")
    3367                      .dwattr $C$DW$224, DW_AT_bit_offset(0x00)
    3368                      .dwattr $C$DW$224, DW_AT_bit_size(0x03)
    3369                      .dwattr $C$DW$224, DW_AT_data_member_location[DW_OP_plus_uconst 0x0]
    3370                      .dwattr $C$DW$224, DW_AT_accessibility(DW_ACCESS_public)
    3371              
    3372                      .dwendtag $C$DW$T$69
    3373              
    3374              
    3375              $C$DW$T$70      .dwtag  DW_TAG_union_type
    3376                      .dwattr $C$DW$T$70, DW_AT_name("SDDFPARM4_REG")
    3377                      .dwattr $C$DW$T$70, DW_AT_byte_size(0x01)
    3378              $C$DW$225       .dwtag  DW_TAG_member
    3379                      .dwattr $C$DW$225, DW_AT_type(*$C$DW$T$19)
TMS320C2000 Assembler PC v15.12.1 Sun May 28 10:39:54 2017

Tools Copyright (c) 1996-2015 Texas Instruments Incorporated
F2837xD_sdfm_drivers.asm                                             PAGE   67

    3380                      .dwattr $C$DW$225, DW_AT_name("all")
    3381                      .dwattr $C$DW$225, DW_AT_TI_symbol_name("_all")
    3382                      .dwattr $C$DW$225, DW_AT_data_member_location[DW_OP_plus_uconst 0x0]
    3383                      .dwattr $C$DW$225, DW_AT_accessibility(DW_ACCESS_public)
    3384              
    3385              $C$DW$226       .dwtag  DW_TAG_member
    3386                      .dwattr $C$DW$226, DW_AT_type(*$C$DW$T$69)
    3387                      .dwattr $C$DW$226, DW_AT_name("bit")
    3388                      .dwattr $C$DW$226, DW_AT_TI_symbol_name("_bit")
    3389                      .dwattr $C$DW$226, DW_AT_data_member_location[DW_OP_plus_uconst 0x0]
    3390                      .dwattr $C$DW$226, DW_AT_accessibility(DW_ACCESS_public)
    3391              
    3392                      .dwendtag $C$DW$T$70
    3393              
    3394              
    3395              $C$DW$T$74      .dwtag  DW_TAG_structure_type
    3396                      .dwattr $C$DW$T$74, DW_AT_name("SDFM_REGS")
    3397                      .dwattr $C$DW$T$74, DW_AT_byte_size(0x80)
    3398              $C$DW$227       .dwtag  DW_TAG_member
    3399                      .dwattr $C$DW$227, DW_AT_type(*$C$DW$T$78)
    3400                      .dwattr $C$DW$227, DW_AT_name("SDIFLG")
    3401                      .dwattr $C$DW$227, DW_AT_TI_symbol_name("_SDIFLG")
    3402                      .dwattr $C$DW$227, DW_AT_data_member_location[DW_OP_plus_uconst 0x0]
    3403                      .dwattr $C$DW$227, DW_AT_accessibility(DW_ACCESS_public)
    3404              
    3405              $C$DW$228       .dwtag  DW_TAG_member
    3406                      .dwattr $C$DW$228, DW_AT_type(*$C$DW$T$76)
    3407                      .dwattr $C$DW$228, DW_AT_name("SDIFLGCLR")
    3408                      .dwattr $C$DW$228, DW_AT_TI_symbol_name("_SDIFLGCLR")
    3409                      .dwattr $C$DW$228, DW_AT_data_member_location[DW_OP_plus_uconst 0x2]
    3410                      .dwattr $C$DW$228, DW_AT_accessibility(DW_ACCESS_public)
    3411              
    3412              $C$DW$229       .dwtag  DW_TAG_member
    3413                      .dwattr $C$DW$229, DW_AT_type(*$C$DW$T$53)
    3414                      .dwattr $C$DW$229, DW_AT_name("SDCTL")
    3415                      .dwattr $C$DW$229, DW_AT_TI_symbol_name("_SDCTL")
    3416                      .dwattr $C$DW$229, DW_AT_data_member_location[DW_OP_plus_uconst 0x4]
    3417                      .dwattr $C$DW$229, DW_AT_accessibility(DW_ACCESS_public)
    3418              
    3419              $C$DW$230       .dwtag  DW_TAG_member
    3420                      .dwattr $C$DW$230, DW_AT_type(*$C$DW$T$19)
    3421                      .dwattr $C$DW$230, DW_AT_name("rsvd1")
    3422                      .dwattr $C$DW$230, DW_AT_TI_symbol_name("_rsvd1")
    3423                      .dwattr $C$DW$230, DW_AT_data_member_location[DW_OP_plus_uconst 0x5]
    3424                      .dwattr $C$DW$230, DW_AT_accessibility(DW_ACCESS_public)
    3425              
    3426              $C$DW$231       .dwtag  DW_TAG_member
    3427                      .dwattr $C$DW$231, DW_AT_type(*$C$DW$T$88)
    3428                      .dwattr $C$DW$231, DW_AT_name("SDMFILEN")
    3429                      .dwattr $C$DW$231, DW_AT_TI_symbol_name("_SDMFILEN")
    3430                      .dwattr $C$DW$231, DW_AT_data_member_location[DW_OP_plus_uconst 0x6]
    3431                      .dwattr $C$DW$231, DW_AT_accessibility(DW_ACCESS_public)
    3432              
    3433              $C$DW$232       .dwtag  DW_TAG_member
    3434                      .dwattr $C$DW$232, DW_AT_type(*$C$DW$T$71)
TMS320C2000 Assembler PC v15.12.1 Sun May 28 10:39:54 2017

Tools Copyright (c) 1996-2015 Texas Instruments Incorporated
F2837xD_sdfm_drivers.asm                                             PAGE   68

    3435                      .dwattr $C$DW$232, DW_AT_name("rsvd2")
    3436                      .dwattr $C$DW$232, DW_AT_TI_symbol_name("_rsvd2")
    3437                      .dwattr $C$DW$232, DW_AT_data_member_location[DW_OP_plus_uconst 0x7]
    3438                      .dwattr $C$DW$232, DW_AT_accessibility(DW_ACCESS_public)
    3439              
    3440              $C$DW$233       .dwtag  DW_TAG_member
    3441                      .dwattr $C$DW$233, DW_AT_type(*$C$DW$T$45)
    3442                      .dwattr $C$DW$233, DW_AT_name("SDCTLPARM1")
    3443                      .dwattr $C$DW$233, DW_AT_TI_symbol_name("_SDCTLPARM1")
    3444                      .dwattr $C$DW$233, DW_AT_data_member_location[DW_OP_plus_uconst 0x10]
    3445                      .dwattr $C$DW$233, DW_AT_accessibility(DW_ACCESS_public)
    3446              
    3447              $C$DW$234       .dwtag  DW_TAG_member
    3448                      .dwattr $C$DW$234, DW_AT_type(*$C$DW$T$64)
    3449                      .dwattr $C$DW$234, DW_AT_name("SDDFPARM1")
    3450                      .dwattr $C$DW$234, DW_AT_TI_symbol_name("_SDDFPARM1")
    3451                      .dwattr $C$DW$234, DW_AT_data_member_location[DW_OP_plus_uconst 0x11]
    3452                      .dwattr $C$DW$234, DW_AT_accessibility(DW_ACCESS_public)
    3453              
    3454              $C$DW$235       .dwtag  DW_TAG_member
    3455                      .dwattr $C$DW$235, DW_AT_type(*$C$DW$T$80)
    3456                      .dwattr $C$DW$235, DW_AT_name("SDIPARM1")
    3457                      .dwattr $C$DW$235, DW_AT_TI_symbol_name("_SDIPARM1")
    3458                      .dwattr $C$DW$235, DW_AT_data_member_location[DW_OP_plus_uconst 0x12]
    3459                      .dwattr $C$DW$235, DW_AT_accessibility(DW_ACCESS_public)
    3460              
    3461              $C$DW$236       .dwtag  DW_TAG_member
    3462                      .dwattr $C$DW$236, DW_AT_type(*$C$DW$T$21)
    3463                      .dwattr $C$DW$236, DW_AT_name("SDCMPH1")
    3464                      .dwattr $C$DW$236, DW_AT_TI_symbol_name("_SDCMPH1")
    3465                      .dwattr $C$DW$236, DW_AT_data_member_location[DW_OP_plus_uconst 0x13]
    3466                      .dwattr $C$DW$236, DW_AT_accessibility(DW_ACCESS_public)
    3467              
    3468              $C$DW$237       .dwtag  DW_TAG_member
    3469                      .dwattr $C$DW$237, DW_AT_type(*$C$DW$T$29)
    3470                      .dwattr $C$DW$237, DW_AT_name("SDCMPL1")
    3471                      .dwattr $C$DW$237, DW_AT_TI_symbol_name("_SDCMPL1")
    3472                      .dwattr $C$DW$237, DW_AT_data_member_location[DW_OP_plus_uconst 0x14]
    3473                      .dwattr $C$DW$237, DW_AT_accessibility(DW_ACCESS_public)
    3474              
    3475              $C$DW$238       .dwtag  DW_TAG_member
    3476                      .dwattr $C$DW$238, DW_AT_type(*$C$DW$T$37)
    3477                      .dwattr $C$DW$238, DW_AT_name("SDCPARM1")
    3478                      .dwattr $C$DW$238, DW_AT_TI_symbol_name("_SDCPARM1")
    3479                      .dwattr $C$DW$238, DW_AT_data_member_location[DW_OP_plus_uconst 0x15]
    3480                      .dwattr $C$DW$238, DW_AT_accessibility(DW_ACCESS_public)
    3481              
    3482              $C$DW$239       .dwtag  DW_TAG_member
    3483                      .dwattr $C$DW$239, DW_AT_type(*$C$DW$T$56)
    3484                      .dwattr $C$DW$239, DW_AT_name("SDDATA1")
    3485                      .dwattr $C$DW$239, DW_AT_TI_symbol_name("_SDDATA1")
    3486                      .dwattr $C$DW$239, DW_AT_data_member_location[DW_OP_plus_uconst 0x16]
    3487                      .dwattr $C$DW$239, DW_AT_accessibility(DW_ACCESS_public)
    3488              
    3489              $C$DW$240       .dwtag  DW_TAG_member
TMS320C2000 Assembler PC v15.12.1 Sun May 28 10:39:54 2017

Tools Copyright (c) 1996-2015 Texas Instruments Incorporated
F2837xD_sdfm_drivers.asm                                             PAGE   69

    3490                      .dwattr $C$DW$240, DW_AT_type(*$C$DW$T$72)
    3491                      .dwattr $C$DW$240, DW_AT_name("rsvd3")
    3492                      .dwattr $C$DW$240, DW_AT_TI_symbol_name("_rsvd3")
    3493                      .dwattr $C$DW$240, DW_AT_data_member_location[DW_OP_plus_uconst 0x18]
    3494                      .dwattr $C$DW$240, DW_AT_accessibility(DW_ACCESS_public)
    3495              
    3496              $C$DW$241       .dwtag  DW_TAG_member
    3497                      .dwattr $C$DW$241, DW_AT_type(*$C$DW$T$47)
    3498                      .dwattr $C$DW$241, DW_AT_name("SDCTLPARM2")
    3499                      .dwattr $C$DW$241, DW_AT_TI_symbol_name("_SDCTLPARM2")
    3500                      .dwattr $C$DW$241, DW_AT_data_member_location[DW_OP_plus_uconst 0x20]
    3501                      .dwattr $C$DW$241, DW_AT_accessibility(DW_ACCESS_public)
    3502              
    3503              $C$DW$242       .dwtag  DW_TAG_member
    3504                      .dwattr $C$DW$242, DW_AT_type(*$C$DW$T$66)
    3505                      .dwattr $C$DW$242, DW_AT_name("SDDFPARM2")
    3506                      .dwattr $C$DW$242, DW_AT_TI_symbol_name("_SDDFPARM2")
    3507                      .dwattr $C$DW$242, DW_AT_data_member_location[DW_OP_plus_uconst 0x21]
    3508                      .dwattr $C$DW$242, DW_AT_accessibility(DW_ACCESS_public)
    3509              
    3510              $C$DW$243       .dwtag  DW_TAG_member
    3511                      .dwattr $C$DW$243, DW_AT_type(*$C$DW$T$82)
    3512                      .dwattr $C$DW$243, DW_AT_name("SDIPARM2")
    3513                      .dwattr $C$DW$243, DW_AT_TI_symbol_name("_SDIPARM2")
    3514                      .dwattr $C$DW$243, DW_AT_data_member_location[DW_OP_plus_uconst 0x22]
    3515                      .dwattr $C$DW$243, DW_AT_accessibility(DW_ACCESS_public)
    3516              
    3517              $C$DW$244       .dwtag  DW_TAG_member
    3518                      .dwattr $C$DW$244, DW_AT_type(*$C$DW$T$23)
    3519                      .dwattr $C$DW$244, DW_AT_name("SDCMPH2")
    3520                      .dwattr $C$DW$244, DW_AT_TI_symbol_name("_SDCMPH2")
    3521                      .dwattr $C$DW$244, DW_AT_data_member_location[DW_OP_plus_uconst 0x23]
    3522                      .dwattr $C$DW$244, DW_AT_accessibility(DW_ACCESS_public)
    3523              
    3524              $C$DW$245       .dwtag  DW_TAG_member
    3525                      .dwattr $C$DW$245, DW_AT_type(*$C$DW$T$31)
    3526                      .dwattr $C$DW$245, DW_AT_name("SDCMPL2")
    3527                      .dwattr $C$DW$245, DW_AT_TI_symbol_name("_SDCMPL2")
    3528                      .dwattr $C$DW$245, DW_AT_data_member_location[DW_OP_plus_uconst 0x24]
    3529                      .dwattr $C$DW$245, DW_AT_accessibility(DW_ACCESS_public)
    3530              
    3531              $C$DW$246       .dwtag  DW_TAG_member
    3532                      .dwattr $C$DW$246, DW_AT_type(*$C$DW$T$39)
    3533                      .dwattr $C$DW$246, DW_AT_name("SDCPARM2")
    3534                      .dwattr $C$DW$246, DW_AT_TI_symbol_name("_SDCPARM2")
    3535                      .dwattr $C$DW$246, DW_AT_data_member_location[DW_OP_plus_uconst 0x25]
    3536                      .dwattr $C$DW$246, DW_AT_accessibility(DW_ACCESS_public)
    3537              
    3538              $C$DW$247       .dwtag  DW_TAG_member
    3539                      .dwattr $C$DW$247, DW_AT_type(*$C$DW$T$58)
    3540                      .dwattr $C$DW$247, DW_AT_name("SDDATA2")
    3541                      .dwattr $C$DW$247, DW_AT_TI_symbol_name("_SDDATA2")
    3542                      .dwattr $C$DW$247, DW_AT_data_member_location[DW_OP_plus_uconst 0x26]
    3543                      .dwattr $C$DW$247, DW_AT_accessibility(DW_ACCESS_public)
    3544              
TMS320C2000 Assembler PC v15.12.1 Sun May 28 10:39:54 2017

Tools Copyright (c) 1996-2015 Texas Instruments Incorporated
F2837xD_sdfm_drivers.asm                                             PAGE   70

    3545              $C$DW$248       .dwtag  DW_TAG_member
    3546                      .dwattr $C$DW$248, DW_AT_type(*$C$DW$T$72)
    3547                      .dwattr $C$DW$248, DW_AT_name("rsvd4")
    3548                      .dwattr $C$DW$248, DW_AT_TI_symbol_name("_rsvd4")
    3549                      .dwattr $C$DW$248, DW_AT_data_member_location[DW_OP_plus_uconst 0x28]
    3550                      .dwattr $C$DW$248, DW_AT_accessibility(DW_ACCESS_public)
    3551              
    3552              $C$DW$249       .dwtag  DW_TAG_member
    3553                      .dwattr $C$DW$249, DW_AT_type(*$C$DW$T$49)
    3554                      .dwattr $C$DW$249, DW_AT_name("SDCTLPARM3")
    3555                      .dwattr $C$DW$249, DW_AT_TI_symbol_name("_SDCTLPARM3")
    3556                      .dwattr $C$DW$249, DW_AT_data_member_location[DW_OP_plus_uconst 0x30]
    3557                      .dwattr $C$DW$249, DW_AT_accessibility(DW_ACCESS_public)
    3558              
    3559              $C$DW$250       .dwtag  DW_TAG_member
    3560                      .dwattr $C$DW$250, DW_AT_type(*$C$DW$T$68)
    3561                      .dwattr $C$DW$250, DW_AT_name("SDDFPARM3")
    3562                      .dwattr $C$DW$250, DW_AT_TI_symbol_name("_SDDFPARM3")
    3563                      .dwattr $C$DW$250, DW_AT_data_member_location[DW_OP_plus_uconst 0x31]
    3564                      .dwattr $C$DW$250, DW_AT_accessibility(DW_ACCESS_public)
    3565              
    3566              $C$DW$251       .dwtag  DW_TAG_member
    3567                      .dwattr $C$DW$251, DW_AT_type(*$C$DW$T$84)
    3568                      .dwattr $C$DW$251, DW_AT_name("SDIPARM3")
    3569                      .dwattr $C$DW$251, DW_AT_TI_symbol_name("_SDIPARM3")
    3570                      .dwattr $C$DW$251, DW_AT_data_member_location[DW_OP_plus_uconst 0x32]
    3571                      .dwattr $C$DW$251, DW_AT_accessibility(DW_ACCESS_public)
    3572              
    3573              $C$DW$252       .dwtag  DW_TAG_member
    3574                      .dwattr $C$DW$252, DW_AT_type(*$C$DW$T$25)
    3575                      .dwattr $C$DW$252, DW_AT_name("SDCMPH3")
    3576                      .dwattr $C$DW$252, DW_AT_TI_symbol_name("_SDCMPH3")
    3577                      .dwattr $C$DW$252, DW_AT_data_member_location[DW_OP_plus_uconst 0x33]
    3578                      .dwattr $C$DW$252, DW_AT_accessibility(DW_ACCESS_public)
    3579              
    3580              $C$DW$253       .dwtag  DW_TAG_member
    3581                      .dwattr $C$DW$253, DW_AT_type(*$C$DW$T$33)
    3582                      .dwattr $C$DW$253, DW_AT_name("SDCMPL3")
    3583                      .dwattr $C$DW$253, DW_AT_TI_symbol_name("_SDCMPL3")
    3584                      .dwattr $C$DW$253, DW_AT_data_member_location[DW_OP_plus_uconst 0x34]
    3585                      .dwattr $C$DW$253, DW_AT_accessibility(DW_ACCESS_public)
    3586              
    3587              $C$DW$254       .dwtag  DW_TAG_member
    3588                      .dwattr $C$DW$254, DW_AT_type(*$C$DW$T$41)
    3589                      .dwattr $C$DW$254, DW_AT_name("SDCPARM3")
    3590                      .dwattr $C$DW$254, DW_AT_TI_symbol_name("_SDCPARM3")
    3591                      .dwattr $C$DW$254, DW_AT_data_member_location[DW_OP_plus_uconst 0x35]
    3592                      .dwattr $C$DW$254, DW_AT_accessibility(DW_ACCESS_public)
    3593              
    3594              $C$DW$255       .dwtag  DW_TAG_member
    3595                      .dwattr $C$DW$255, DW_AT_type(*$C$DW$T$60)
    3596                      .dwattr $C$DW$255, DW_AT_name("SDDATA3")
    3597                      .dwattr $C$DW$255, DW_AT_TI_symbol_name("_SDDATA3")
    3598                      .dwattr $C$DW$255, DW_AT_data_member_location[DW_OP_plus_uconst 0x36]
    3599                      .dwattr $C$DW$255, DW_AT_accessibility(DW_ACCESS_public)
TMS320C2000 Assembler PC v15.12.1 Sun May 28 10:39:54 2017

Tools Copyright (c) 1996-2015 Texas Instruments Incorporated
F2837xD_sdfm_drivers.asm                                             PAGE   71

    3600              
    3601              $C$DW$256       .dwtag  DW_TAG_member
    3602                      .dwattr $C$DW$256, DW_AT_type(*$C$DW$T$72)
    3603                      .dwattr $C$DW$256, DW_AT_name("rsvd5")
    3604                      .dwattr $C$DW$256, DW_AT_TI_symbol_name("_rsvd5")
    3605                      .dwattr $C$DW$256, DW_AT_data_member_location[DW_OP_plus_uconst 0x38]
    3606                      .dwattr $C$DW$256, DW_AT_accessibility(DW_ACCESS_public)
    3607              
    3608              $C$DW$257       .dwtag  DW_TAG_member
    3609                      .dwattr $C$DW$257, DW_AT_type(*$C$DW$T$51)
    3610                      .dwattr $C$DW$257, DW_AT_name("SDCTLPARM4")
    3611                      .dwattr $C$DW$257, DW_AT_TI_symbol_name("_SDCTLPARM4")
    3612                      .dwattr $C$DW$257, DW_AT_data_member_location[DW_OP_plus_uconst 0x40]
    3613                      .dwattr $C$DW$257, DW_AT_accessibility(DW_ACCESS_public)
    3614              
    3615              $C$DW$258       .dwtag  DW_TAG_member
    3616                      .dwattr $C$DW$258, DW_AT_type(*$C$DW$T$70)
    3617                      .dwattr $C$DW$258, DW_AT_name("SDDFPARM4")
    3618                      .dwattr $C$DW$258, DW_AT_TI_symbol_name("_SDDFPARM4")
    3619                      .dwattr $C$DW$258, DW_AT_data_member_location[DW_OP_plus_uconst 0x41]
    3620                      .dwattr $C$DW$258, DW_AT_accessibility(DW_ACCESS_public)
    3621              
    3622              $C$DW$259       .dwtag  DW_TAG_member
    3623                      .dwattr $C$DW$259, DW_AT_type(*$C$DW$T$86)
    3624                      .dwattr $C$DW$259, DW_AT_name("SDIPARM4")
    3625                      .dwattr $C$DW$259, DW_AT_TI_symbol_name("_SDIPARM4")
    3626                      .dwattr $C$DW$259, DW_AT_data_member_location[DW_OP_plus_uconst 0x42]
    3627                      .dwattr $C$DW$259, DW_AT_accessibility(DW_ACCESS_public)
    3628              
    3629              $C$DW$260       .dwtag  DW_TAG_member
    3630                      .dwattr $C$DW$260, DW_AT_type(*$C$DW$T$27)
    3631                      .dwattr $C$DW$260, DW_AT_name("SDCMPH4")
    3632                      .dwattr $C$DW$260, DW_AT_TI_symbol_name("_SDCMPH4")
    3633                      .dwattr $C$DW$260, DW_AT_data_member_location[DW_OP_plus_uconst 0x43]
    3634                      .dwattr $C$DW$260, DW_AT_accessibility(DW_ACCESS_public)
    3635              
    3636              $C$DW$261       .dwtag  DW_TAG_member
    3637                      .dwattr $C$DW$261, DW_AT_type(*$C$DW$T$35)
    3638                      .dwattr $C$DW$261, DW_AT_name("SDCMPL4")
    3639                      .dwattr $C$DW$261, DW_AT_TI_symbol_name("_SDCMPL4")
    3640                      .dwattr $C$DW$261, DW_AT_data_member_location[DW_OP_plus_uconst 0x44]
    3641                      .dwattr $C$DW$261, DW_AT_accessibility(DW_ACCESS_public)
    3642              
    3643              $C$DW$262       .dwtag  DW_TAG_member
    3644                      .dwattr $C$DW$262, DW_AT_type(*$C$DW$T$43)
    3645                      .dwattr $C$DW$262, DW_AT_name("SDCPARM4")
    3646                      .dwattr $C$DW$262, DW_AT_TI_symbol_name("_SDCPARM4")
    3647                      .dwattr $C$DW$262, DW_AT_data_member_location[DW_OP_plus_uconst 0x45]
    3648                      .dwattr $C$DW$262, DW_AT_accessibility(DW_ACCESS_public)
    3649              
    3650              $C$DW$263       .dwtag  DW_TAG_member
    3651                      .dwattr $C$DW$263, DW_AT_type(*$C$DW$T$62)
    3652                      .dwattr $C$DW$263, DW_AT_name("SDDATA4")
    3653                      .dwattr $C$DW$263, DW_AT_TI_symbol_name("_SDDATA4")
    3654                      .dwattr $C$DW$263, DW_AT_data_member_location[DW_OP_plus_uconst 0x46]
TMS320C2000 Assembler PC v15.12.1 Sun May 28 10:39:54 2017

Tools Copyright (c) 1996-2015 Texas Instruments Incorporated
F2837xD_sdfm_drivers.asm                                             PAGE   72

    3655                      .dwattr $C$DW$263, DW_AT_accessibility(DW_ACCESS_public)
    3656              
    3657              $C$DW$264       .dwtag  DW_TAG_member
    3658                      .dwattr $C$DW$264, DW_AT_type(*$C$DW$T$73)
    3659                      .dwattr $C$DW$264, DW_AT_name("rsvd6")
    3660                      .dwattr $C$DW$264, DW_AT_TI_symbol_name("_rsvd6")
    3661                      .dwattr $C$DW$264, DW_AT_data_member_location[DW_OP_plus_uconst 0x48]
    3662                      .dwattr $C$DW$264, DW_AT_accessibility(DW_ACCESS_public)
    3663              
    3664                      .dwendtag $C$DW$T$74
    3665              
    3666              $C$DW$265       .dwtag  DW_TAG_TI_far_type
    3667                      .dwattr $C$DW$265, DW_AT_type(*$C$DW$T$74)
    3668              
    3669              $C$DW$T$89      .dwtag  DW_TAG_volatile_type
    3670                      .dwattr $C$DW$T$89, DW_AT_type(*$C$DW$265)
    3671              
    3672              $C$DW$T$90      .dwtag  DW_TAG_pointer_type
    3673                      .dwattr $C$DW$T$90, DW_AT_type(*$C$DW$T$89)
    3674                      .dwattr $C$DW$T$90, DW_AT_address_class(0x20)
    3675              
    3676              
    3677              $C$DW$T$91      .dwtag  DW_TAG_array_type
    3678                      .dwattr $C$DW$T$91, DW_AT_type(*$C$DW$T$90)
    3679                      .dwattr $C$DW$T$91, DW_AT_language(DW_LANG_C)
    3680                      .dwattr $C$DW$T$91, DW_AT_byte_size(0x06)
    3681              $C$DW$266       .dwtag  DW_TAG_subrange_type
    3682                      .dwattr $C$DW$266, DW_AT_upper_bound(0x02)
    3683              
    3684                      .dwendtag $C$DW$T$91
    3685              
    3686              
    3687              $C$DW$T$75      .dwtag  DW_TAG_structure_type
    3688                      .dwattr $C$DW$T$75, DW_AT_name("SDIFLGCLR_BITS")
    3689                      .dwattr $C$DW$T$75, DW_AT_byte_size(0x02)
    3690              $C$DW$267       .dwtag  DW_TAG_member
    3691                      .dwattr $C$DW$267, DW_AT_type(*$C$DW$T$19)
    3692                      .dwattr $C$DW$267, DW_AT_name("IFH1")
    3693                      .dwattr $C$DW$267, DW_AT_TI_symbol_name("_IFH1")
    3694                      .dwattr $C$DW$267, DW_AT_bit_offset(0x0f)
    3695                      .dwattr $C$DW$267, DW_AT_bit_size(0x01)
    3696                      .dwattr $C$DW$267, DW_AT_data_member_location[DW_OP_plus_uconst 0x0]
    3697                      .dwattr $C$DW$267, DW_AT_accessibility(DW_ACCESS_public)
    3698              
    3699              $C$DW$268       .dwtag  DW_TAG_member
    3700                      .dwattr $C$DW$268, DW_AT_type(*$C$DW$T$19)
    3701                      .dwattr $C$DW$268, DW_AT_name("IFL1")
    3702                      .dwattr $C$DW$268, DW_AT_TI_symbol_name("_IFL1")
    3703                      .dwattr $C$DW$268, DW_AT_bit_offset(0x0e)
    3704                      .dwattr $C$DW$268, DW_AT_bit_size(0x01)
    3705                      .dwattr $C$DW$268, DW_AT_data_member_location[DW_OP_plus_uconst 0x0]
    3706                      .dwattr $C$DW$268, DW_AT_accessibility(DW_ACCESS_public)
    3707              
    3708              $C$DW$269       .dwtag  DW_TAG_member
    3709                      .dwattr $C$DW$269, DW_AT_type(*$C$DW$T$19)
TMS320C2000 Assembler PC v15.12.1 Sun May 28 10:39:54 2017

Tools Copyright (c) 1996-2015 Texas Instruments Incorporated
F2837xD_sdfm_drivers.asm                                             PAGE   73

    3710                      .dwattr $C$DW$269, DW_AT_name("IFH2")
    3711                      .dwattr $C$DW$269, DW_AT_TI_symbol_name("_IFH2")
    3712                      .dwattr $C$DW$269, DW_AT_bit_offset(0x0d)
    3713                      .dwattr $C$DW$269, DW_AT_bit_size(0x01)
    3714                      .dwattr $C$DW$269, DW_AT_data_member_location[DW_OP_plus_uconst 0x0]
    3715                      .dwattr $C$DW$269, DW_AT_accessibility(DW_ACCESS_public)
    3716              
    3717              $C$DW$270       .dwtag  DW_TAG_member
    3718                      .dwattr $C$DW$270, DW_AT_type(*$C$DW$T$19)
    3719                      .dwattr $C$DW$270, DW_AT_name("IFL2")
    3720                      .dwattr $C$DW$270, DW_AT_TI_symbol_name("_IFL2")
    3721                      .dwattr $C$DW$270, DW_AT_bit_offset(0x0c)
    3722                      .dwattr $C$DW$270, DW_AT_bit_size(0x01)
    3723                      .dwattr $C$DW$270, DW_AT_data_member_location[DW_OP_plus_uconst 0x0]
    3724                      .dwattr $C$DW$270, DW_AT_accessibility(DW_ACCESS_public)
    3725              
    3726              $C$DW$271       .dwtag  DW_TAG_member
    3727                      .dwattr $C$DW$271, DW_AT_type(*$C$DW$T$19)
    3728                      .dwattr $C$DW$271, DW_AT_name("IFH3")
    3729                      .dwattr $C$DW$271, DW_AT_TI_symbol_name("_IFH3")
    3730                      .dwattr $C$DW$271, DW_AT_bit_offset(0x0b)
    3731                      .dwattr $C$DW$271, DW_AT_bit_size(0x01)
    3732                      .dwattr $C$DW$271, DW_AT_data_member_location[DW_OP_plus_uconst 0x0]
    3733                      .dwattr $C$DW$271, DW_AT_accessibility(DW_ACCESS_public)
    3734              
    3735              $C$DW$272       .dwtag  DW_TAG_member
    3736                      .dwattr $C$DW$272, DW_AT_type(*$C$DW$T$19)
    3737                      .dwattr $C$DW$272, DW_AT_name("IFL3")
    3738                      .dwattr $C$DW$272, DW_AT_TI_symbol_name("_IFL3")
    3739                      .dwattr $C$DW$272, DW_AT_bit_offset(0x0a)
    3740                      .dwattr $C$DW$272, DW_AT_bit_size(0x01)
    3741                      .dwattr $C$DW$272, DW_AT_data_member_location[DW_OP_plus_uconst 0x0]
    3742                      .dwattr $C$DW$272, DW_AT_accessibility(DW_ACCESS_public)
    3743              
    3744              $C$DW$273       .dwtag  DW_TAG_member
    3745                      .dwattr $C$DW$273, DW_AT_type(*$C$DW$T$19)
    3746                      .dwattr $C$DW$273, DW_AT_name("IFH4")
    3747                      .dwattr $C$DW$273, DW_AT_TI_symbol_name("_IFH4")
    3748                      .dwattr $C$DW$273, DW_AT_bit_offset(0x09)
    3749                      .dwattr $C$DW$273, DW_AT_bit_size(0x01)
    3750                      .dwattr $C$DW$273, DW_AT_data_member_location[DW_OP_plus_uconst 0x0]
    3751                      .dwattr $C$DW$273, DW_AT_accessibility(DW_ACCESS_public)
    3752              
    3753              $C$DW$274       .dwtag  DW_TAG_member
    3754                      .dwattr $C$DW$274, DW_AT_type(*$C$DW$T$19)
    3755                      .dwattr $C$DW$274, DW_AT_name("IFL4")
    3756                      .dwattr $C$DW$274, DW_AT_TI_symbol_name("_IFL4")
    3757                      .dwattr $C$DW$274, DW_AT_bit_offset(0x08)
    3758                      .dwattr $C$DW$274, DW_AT_bit_size(0x01)
    3759                      .dwattr $C$DW$274, DW_AT_data_member_location[DW_OP_plus_uconst 0x0]
    3760                      .dwattr $C$DW$274, DW_AT_accessibility(DW_ACCESS_public)
    3761              
    3762              $C$DW$275       .dwtag  DW_TAG_member
    3763                      .dwattr $C$DW$275, DW_AT_type(*$C$DW$T$19)
    3764                      .dwattr $C$DW$275, DW_AT_name("MF1")
TMS320C2000 Assembler PC v15.12.1 Sun May 28 10:39:54 2017

Tools Copyright (c) 1996-2015 Texas Instruments Incorporated
F2837xD_sdfm_drivers.asm                                             PAGE   74

    3765                      .dwattr $C$DW$275, DW_AT_TI_symbol_name("_MF1")
    3766                      .dwattr $C$DW$275, DW_AT_bit_offset(0x07)
    3767                      .dwattr $C$DW$275, DW_AT_bit_size(0x01)
    3768                      .dwattr $C$DW$275, DW_AT_data_member_location[DW_OP_plus_uconst 0x0]
    3769                      .dwattr $C$DW$275, DW_AT_accessibility(DW_ACCESS_public)
    3770              
    3771              $C$DW$276       .dwtag  DW_TAG_member
    3772                      .dwattr $C$DW$276, DW_AT_type(*$C$DW$T$19)
    3773                      .dwattr $C$DW$276, DW_AT_name("MF2")
    3774                      .dwattr $C$DW$276, DW_AT_TI_symbol_name("_MF2")
    3775                      .dwattr $C$DW$276, DW_AT_bit_offset(0x06)
    3776                      .dwattr $C$DW$276, DW_AT_bit_size(0x01)
    3777                      .dwattr $C$DW$276, DW_AT_data_member_location[DW_OP_plus_uconst 0x0]
    3778                      .dwattr $C$DW$276, DW_AT_accessibility(DW_ACCESS_public)
    3779              
    3780              $C$DW$277       .dwtag  DW_TAG_member
    3781                      .dwattr $C$DW$277, DW_AT_type(*$C$DW$T$19)
    3782                      .dwattr $C$DW$277, DW_AT_name("MF3")
    3783                      .dwattr $C$DW$277, DW_AT_TI_symbol_name("_MF3")
    3784                      .dwattr $C$DW$277, DW_AT_bit_offset(0x05)
    3785                      .dwattr $C$DW$277, DW_AT_bit_size(0x01)
    3786                      .dwattr $C$DW$277, DW_AT_data_member_location[DW_OP_plus_uconst 0x0]
    3787                      .dwattr $C$DW$277, DW_AT_accessibility(DW_ACCESS_public)
    3788              
    3789              $C$DW$278       .dwtag  DW_TAG_member
    3790                      .dwattr $C$DW$278, DW_AT_type(*$C$DW$T$19)
    3791                      .dwattr $C$DW$278, DW_AT_name("MF4")
    3792                      .dwattr $C$DW$278, DW_AT_TI_symbol_name("_MF4")
    3793                      .dwattr $C$DW$278, DW_AT_bit_offset(0x04)
    3794                      .dwattr $C$DW$278, DW_AT_bit_size(0x01)
    3795                      .dwattr $C$DW$278, DW_AT_data_member_location[DW_OP_plus_uconst 0x0]
    3796                      .dwattr $C$DW$278, DW_AT_accessibility(DW_ACCESS_public)
    3797              
    3798              $C$DW$279       .dwtag  DW_TAG_member
    3799                      .dwattr $C$DW$279, DW_AT_type(*$C$DW$T$19)
    3800                      .dwattr $C$DW$279, DW_AT_name("AF1")
    3801                      .dwattr $C$DW$279, DW_AT_TI_symbol_name("_AF1")
    3802                      .dwattr $C$DW$279, DW_AT_bit_offset(0x03)
    3803                      .dwattr $C$DW$279, DW_AT_bit_size(0x01)
    3804                      .dwattr $C$DW$279, DW_AT_data_member_location[DW_OP_plus_uconst 0x0]
    3805                      .dwattr $C$DW$279, DW_AT_accessibility(DW_ACCESS_public)
    3806              
    3807              $C$DW$280       .dwtag  DW_TAG_member
    3808                      .dwattr $C$DW$280, DW_AT_type(*$C$DW$T$19)
    3809                      .dwattr $C$DW$280, DW_AT_name("AF2")
    3810                      .dwattr $C$DW$280, DW_AT_TI_symbol_name("_AF2")
    3811                      .dwattr $C$DW$280, DW_AT_bit_offset(0x02)
    3812                      .dwattr $C$DW$280, DW_AT_bit_size(0x01)
    3813                      .dwattr $C$DW$280, DW_AT_data_member_location[DW_OP_plus_uconst 0x0]
    3814                      .dwattr $C$DW$280, DW_AT_accessibility(DW_ACCESS_public)
    3815              
    3816              $C$DW$281       .dwtag  DW_TAG_member
    3817                      .dwattr $C$DW$281, DW_AT_type(*$C$DW$T$19)
    3818                      .dwattr $C$DW$281, DW_AT_name("AF3")
    3819                      .dwattr $C$DW$281, DW_AT_TI_symbol_name("_AF3")
TMS320C2000 Assembler PC v15.12.1 Sun May 28 10:39:54 2017

Tools Copyright (c) 1996-2015 Texas Instruments Incorporated
F2837xD_sdfm_drivers.asm                                             PAGE   75

    3820                      .dwattr $C$DW$281, DW_AT_bit_offset(0x01)
    3821                      .dwattr $C$DW$281, DW_AT_bit_size(0x01)
    3822                      .dwattr $C$DW$281, DW_AT_data_member_location[DW_OP_plus_uconst 0x0]
    3823                      .dwattr $C$DW$281, DW_AT_accessibility(DW_ACCESS_public)
    3824              
    3825              $C$DW$282       .dwtag  DW_TAG_member
    3826                      .dwattr $C$DW$282, DW_AT_type(*$C$DW$T$19)
    3827                      .dwattr $C$DW$282, DW_AT_name("AF4")
    3828                      .dwattr $C$DW$282, DW_AT_TI_symbol_name("_AF4")
    3829                      .dwattr $C$DW$282, DW_AT_bit_offset(0x00)
    3830                      .dwattr $C$DW$282, DW_AT_bit_size(0x01)
    3831                      .dwattr $C$DW$282, DW_AT_data_member_location[DW_OP_plus_uconst 0x0]
    3832                      .dwattr $C$DW$282, DW_AT_accessibility(DW_ACCESS_public)
    3833              
    3834              $C$DW$283       .dwtag  DW_TAG_member
    3835                      .dwattr $C$DW$283, DW_AT_type(*$C$DW$T$19)
    3836                      .dwattr $C$DW$283, DW_AT_name("rsvd1")
    3837                      .dwattr $C$DW$283, DW_AT_TI_symbol_name("_rsvd1")
    3838                      .dwattr $C$DW$283, DW_AT_bit_offset(0x01)
    3839                      .dwattr $C$DW$283, DW_AT_bit_size(0x0f)
    3840                      .dwattr $C$DW$283, DW_AT_data_member_location[DW_OP_plus_uconst 0x1]
    3841                      .dwattr $C$DW$283, DW_AT_accessibility(DW_ACCESS_public)
    3842              
    3843              $C$DW$284       .dwtag  DW_TAG_member
    3844                      .dwattr $C$DW$284, DW_AT_type(*$C$DW$T$19)
    3845                      .dwattr $C$DW$284, DW_AT_name("MIF")
    3846                      .dwattr $C$DW$284, DW_AT_TI_symbol_name("_MIF")
    3847                      .dwattr $C$DW$284, DW_AT_bit_offset(0x00)
    3848                      .dwattr $C$DW$284, DW_AT_bit_size(0x01)
    3849                      .dwattr $C$DW$284, DW_AT_data_member_location[DW_OP_plus_uconst 0x1]
    3850                      .dwattr $C$DW$284, DW_AT_accessibility(DW_ACCESS_public)
    3851              
    3852                      .dwendtag $C$DW$T$75
    3853              
    3854              
    3855              $C$DW$T$76      .dwtag  DW_TAG_union_type
    3856                      .dwattr $C$DW$T$76, DW_AT_name("SDIFLGCLR_REG")
    3857                      .dwattr $C$DW$T$76, DW_AT_byte_size(0x02)
    3858              $C$DW$285       .dwtag  DW_TAG_member
    3859                      .dwattr $C$DW$285, DW_AT_type(*$C$DW$T$55)
    3860                      .dwattr $C$DW$285, DW_AT_name("all")
    3861                      .dwattr $C$DW$285, DW_AT_TI_symbol_name("_all")
    3862                      .dwattr $C$DW$285, DW_AT_data_member_location[DW_OP_plus_uconst 0x0]
    3863                      .dwattr $C$DW$285, DW_AT_accessibility(DW_ACCESS_public)
    3864              
    3865              $C$DW$286       .dwtag  DW_TAG_member
    3866                      .dwattr $C$DW$286, DW_AT_type(*$C$DW$T$75)
    3867                      .dwattr $C$DW$286, DW_AT_name("bit")
    3868                      .dwattr $C$DW$286, DW_AT_TI_symbol_name("_bit")
    3869                      .dwattr $C$DW$286, DW_AT_data_member_location[DW_OP_plus_uconst 0x0]
    3870                      .dwattr $C$DW$286, DW_AT_accessibility(DW_ACCESS_public)
    3871              
    3872                      .dwendtag $C$DW$T$76
    3873              
    3874              
TMS320C2000 Assembler PC v15.12.1 Sun May 28 10:39:54 2017

Tools Copyright (c) 1996-2015 Texas Instruments Incorporated
F2837xD_sdfm_drivers.asm                                             PAGE   76

    3875              $C$DW$T$77      .dwtag  DW_TAG_structure_type
    3876                      .dwattr $C$DW$T$77, DW_AT_name("SDIFLG_BITS")
    3877                      .dwattr $C$DW$T$77, DW_AT_byte_size(0x02)
    3878              $C$DW$287       .dwtag  DW_TAG_member
    3879                      .dwattr $C$DW$287, DW_AT_type(*$C$DW$T$19)
    3880                      .dwattr $C$DW$287, DW_AT_name("IFH1")
    3881                      .dwattr $C$DW$287, DW_AT_TI_symbol_name("_IFH1")
    3882                      .dwattr $C$DW$287, DW_AT_bit_offset(0x0f)
    3883                      .dwattr $C$DW$287, DW_AT_bit_size(0x01)
    3884                      .dwattr $C$DW$287, DW_AT_data_member_location[DW_OP_plus_uconst 0x0]
    3885                      .dwattr $C$DW$287, DW_AT_accessibility(DW_ACCESS_public)
    3886              
    3887              $C$DW$288       .dwtag  DW_TAG_member
    3888                      .dwattr $C$DW$288, DW_AT_type(*$C$DW$T$19)
    3889                      .dwattr $C$DW$288, DW_AT_name("IFL1")
    3890                      .dwattr $C$DW$288, DW_AT_TI_symbol_name("_IFL1")
    3891                      .dwattr $C$DW$288, DW_AT_bit_offset(0x0e)
    3892                      .dwattr $C$DW$288, DW_AT_bit_size(0x01)
    3893                      .dwattr $C$DW$288, DW_AT_data_member_location[DW_OP_plus_uconst 0x0]
    3894                      .dwattr $C$DW$288, DW_AT_accessibility(DW_ACCESS_public)
    3895              
    3896              $C$DW$289       .dwtag  DW_TAG_member
    3897                      .dwattr $C$DW$289, DW_AT_type(*$C$DW$T$19)
    3898                      .dwattr $C$DW$289, DW_AT_name("IFH2")
    3899                      .dwattr $C$DW$289, DW_AT_TI_symbol_name("_IFH2")
    3900                      .dwattr $C$DW$289, DW_AT_bit_offset(0x0d)
    3901                      .dwattr $C$DW$289, DW_AT_bit_size(0x01)
    3902                      .dwattr $C$DW$289, DW_AT_data_member_location[DW_OP_plus_uconst 0x0]
    3903                      .dwattr $C$DW$289, DW_AT_accessibility(DW_ACCESS_public)
    3904              
    3905              $C$DW$290       .dwtag  DW_TAG_member
    3906                      .dwattr $C$DW$290, DW_AT_type(*$C$DW$T$19)
    3907                      .dwattr $C$DW$290, DW_AT_name("IFL2")
    3908                      .dwattr $C$DW$290, DW_AT_TI_symbol_name("_IFL2")
    3909                      .dwattr $C$DW$290, DW_AT_bit_offset(0x0c)
    3910                      .dwattr $C$DW$290, DW_AT_bit_size(0x01)
    3911                      .dwattr $C$DW$290, DW_AT_data_member_location[DW_OP_plus_uconst 0x0]
    3912                      .dwattr $C$DW$290, DW_AT_accessibility(DW_ACCESS_public)
    3913              
    3914              $C$DW$291       .dwtag  DW_TAG_member
    3915                      .dwattr $C$DW$291, DW_AT_type(*$C$DW$T$19)
    3916                      .dwattr $C$DW$291, DW_AT_name("IFH3")
    3917                      .dwattr $C$DW$291, DW_AT_TI_symbol_name("_IFH3")
    3918                      .dwattr $C$DW$291, DW_AT_bit_offset(0x0b)
    3919                      .dwattr $C$DW$291, DW_AT_bit_size(0x01)
    3920                      .dwattr $C$DW$291, DW_AT_data_member_location[DW_OP_plus_uconst 0x0]
    3921                      .dwattr $C$DW$291, DW_AT_accessibility(DW_ACCESS_public)
    3922              
    3923              $C$DW$292       .dwtag  DW_TAG_member
    3924                      .dwattr $C$DW$292, DW_AT_type(*$C$DW$T$19)
    3925                      .dwattr $C$DW$292, DW_AT_name("IFL3")
    3926                      .dwattr $C$DW$292, DW_AT_TI_symbol_name("_IFL3")
    3927                      .dwattr $C$DW$292, DW_AT_bit_offset(0x0a)
    3928                      .dwattr $C$DW$292, DW_AT_bit_size(0x01)
    3929                      .dwattr $C$DW$292, DW_AT_data_member_location[DW_OP_plus_uconst 0x0]
TMS320C2000 Assembler PC v15.12.1 Sun May 28 10:39:54 2017

Tools Copyright (c) 1996-2015 Texas Instruments Incorporated
F2837xD_sdfm_drivers.asm                                             PAGE   77

    3930                      .dwattr $C$DW$292, DW_AT_accessibility(DW_ACCESS_public)
    3931              
    3932              $C$DW$293       .dwtag  DW_TAG_member
    3933                      .dwattr $C$DW$293, DW_AT_type(*$C$DW$T$19)
    3934                      .dwattr $C$DW$293, DW_AT_name("IFH4")
    3935                      .dwattr $C$DW$293, DW_AT_TI_symbol_name("_IFH4")
    3936                      .dwattr $C$DW$293, DW_AT_bit_offset(0x09)
    3937                      .dwattr $C$DW$293, DW_AT_bit_size(0x01)
    3938                      .dwattr $C$DW$293, DW_AT_data_member_location[DW_OP_plus_uconst 0x0]
    3939                      .dwattr $C$DW$293, DW_AT_accessibility(DW_ACCESS_public)
    3940              
    3941              $C$DW$294       .dwtag  DW_TAG_member
    3942                      .dwattr $C$DW$294, DW_AT_type(*$C$DW$T$19)
    3943                      .dwattr $C$DW$294, DW_AT_name("IFL4")
    3944                      .dwattr $C$DW$294, DW_AT_TI_symbol_name("_IFL4")
    3945                      .dwattr $C$DW$294, DW_AT_bit_offset(0x08)
    3946                      .dwattr $C$DW$294, DW_AT_bit_size(0x01)
    3947                      .dwattr $C$DW$294, DW_AT_data_member_location[DW_OP_plus_uconst 0x0]
    3948                      .dwattr $C$DW$294, DW_AT_accessibility(DW_ACCESS_public)
    3949              
    3950              $C$DW$295       .dwtag  DW_TAG_member
    3951                      .dwattr $C$DW$295, DW_AT_type(*$C$DW$T$19)
    3952                      .dwattr $C$DW$295, DW_AT_name("MF1")
    3953                      .dwattr $C$DW$295, DW_AT_TI_symbol_name("_MF1")
    3954                      .dwattr $C$DW$295, DW_AT_bit_offset(0x07)
    3955                      .dwattr $C$DW$295, DW_AT_bit_size(0x01)
    3956                      .dwattr $C$DW$295, DW_AT_data_member_location[DW_OP_plus_uconst 0x0]
    3957                      .dwattr $C$DW$295, DW_AT_accessibility(DW_ACCESS_public)
    3958              
    3959              $C$DW$296       .dwtag  DW_TAG_member
    3960                      .dwattr $C$DW$296, DW_AT_type(*$C$DW$T$19)
    3961                      .dwattr $C$DW$296, DW_AT_name("MF2")
    3962                      .dwattr $C$DW$296, DW_AT_TI_symbol_name("_MF2")
    3963                      .dwattr $C$DW$296, DW_AT_bit_offset(0x06)
    3964                      .dwattr $C$DW$296, DW_AT_bit_size(0x01)
    3965                      .dwattr $C$DW$296, DW_AT_data_member_location[DW_OP_plus_uconst 0x0]
    3966                      .dwattr $C$DW$296, DW_AT_accessibility(DW_ACCESS_public)
    3967              
    3968              $C$DW$297       .dwtag  DW_TAG_member
    3969                      .dwattr $C$DW$297, DW_AT_type(*$C$DW$T$19)
    3970                      .dwattr $C$DW$297, DW_AT_name("MF3")
    3971                      .dwattr $C$DW$297, DW_AT_TI_symbol_name("_MF3")
    3972                      .dwattr $C$DW$297, DW_AT_bit_offset(0x05)
    3973                      .dwattr $C$DW$297, DW_AT_bit_size(0x01)
    3974                      .dwattr $C$DW$297, DW_AT_data_member_location[DW_OP_plus_uconst 0x0]
    3975                      .dwattr $C$DW$297, DW_AT_accessibility(DW_ACCESS_public)
    3976              
    3977              $C$DW$298       .dwtag  DW_TAG_member
    3978                      .dwattr $C$DW$298, DW_AT_type(*$C$DW$T$19)
    3979                      .dwattr $C$DW$298, DW_AT_name("MF4")
    3980                      .dwattr $C$DW$298, DW_AT_TI_symbol_name("_MF4")
    3981                      .dwattr $C$DW$298, DW_AT_bit_offset(0x04)
    3982                      .dwattr $C$DW$298, DW_AT_bit_size(0x01)
    3983                      .dwattr $C$DW$298, DW_AT_data_member_location[DW_OP_plus_uconst 0x0]
    3984                      .dwattr $C$DW$298, DW_AT_accessibility(DW_ACCESS_public)
TMS320C2000 Assembler PC v15.12.1 Sun May 28 10:39:54 2017

Tools Copyright (c) 1996-2015 Texas Instruments Incorporated
F2837xD_sdfm_drivers.asm                                             PAGE   78

    3985              
    3986              $C$DW$299       .dwtag  DW_TAG_member
    3987                      .dwattr $C$DW$299, DW_AT_type(*$C$DW$T$19)
    3988                      .dwattr $C$DW$299, DW_AT_name("AF1")
    3989                      .dwattr $C$DW$299, DW_AT_TI_symbol_name("_AF1")
    3990                      .dwattr $C$DW$299, DW_AT_bit_offset(0x03)
    3991                      .dwattr $C$DW$299, DW_AT_bit_size(0x01)
    3992                      .dwattr $C$DW$299, DW_AT_data_member_location[DW_OP_plus_uconst 0x0]
    3993                      .dwattr $C$DW$299, DW_AT_accessibility(DW_ACCESS_public)
    3994              
    3995              $C$DW$300       .dwtag  DW_TAG_member
    3996                      .dwattr $C$DW$300, DW_AT_type(*$C$DW$T$19)
    3997                      .dwattr $C$DW$300, DW_AT_name("AF2")
    3998                      .dwattr $C$DW$300, DW_AT_TI_symbol_name("_AF2")
    3999                      .dwattr $C$DW$300, DW_AT_bit_offset(0x02)
    4000                      .dwattr $C$DW$300, DW_AT_bit_size(0x01)
    4001                      .dwattr $C$DW$300, DW_AT_data_member_location[DW_OP_plus_uconst 0x0]
    4002                      .dwattr $C$DW$300, DW_AT_accessibility(DW_ACCESS_public)
    4003              
    4004              $C$DW$301       .dwtag  DW_TAG_member
    4005                      .dwattr $C$DW$301, DW_AT_type(*$C$DW$T$19)
    4006                      .dwattr $C$DW$301, DW_AT_name("AF3")
    4007                      .dwattr $C$DW$301, DW_AT_TI_symbol_name("_AF3")
    4008                      .dwattr $C$DW$301, DW_AT_bit_offset(0x01)
    4009                      .dwattr $C$DW$301, DW_AT_bit_size(0x01)
    4010                      .dwattr $C$DW$301, DW_AT_data_member_location[DW_OP_plus_uconst 0x0]
    4011                      .dwattr $C$DW$301, DW_AT_accessibility(DW_ACCESS_public)
    4012              
    4013              $C$DW$302       .dwtag  DW_TAG_member
    4014                      .dwattr $C$DW$302, DW_AT_type(*$C$DW$T$19)
    4015                      .dwattr $C$DW$302, DW_AT_name("AF4")
    4016                      .dwattr $C$DW$302, DW_AT_TI_symbol_name("_AF4")
    4017                      .dwattr $C$DW$302, DW_AT_bit_offset(0x00)
    4018                      .dwattr $C$DW$302, DW_AT_bit_size(0x01)
    4019                      .dwattr $C$DW$302, DW_AT_data_member_location[DW_OP_plus_uconst 0x0]
    4020                      .dwattr $C$DW$302, DW_AT_accessibility(DW_ACCESS_public)
    4021              
    4022              $C$DW$303       .dwtag  DW_TAG_member
    4023                      .dwattr $C$DW$303, DW_AT_type(*$C$DW$T$19)
    4024                      .dwattr $C$DW$303, DW_AT_name("rsvd1")
    4025                      .dwattr $C$DW$303, DW_AT_TI_symbol_name("_rsvd1")
    4026                      .dwattr $C$DW$303, DW_AT_bit_offset(0x01)
    4027                      .dwattr $C$DW$303, DW_AT_bit_size(0x0f)
    4028                      .dwattr $C$DW$303, DW_AT_data_member_location[DW_OP_plus_uconst 0x1]
    4029                      .dwattr $C$DW$303, DW_AT_accessibility(DW_ACCESS_public)
    4030              
    4031              $C$DW$304       .dwtag  DW_TAG_member
    4032                      .dwattr $C$DW$304, DW_AT_type(*$C$DW$T$19)
    4033                      .dwattr $C$DW$304, DW_AT_name("MIF")
    4034                      .dwattr $C$DW$304, DW_AT_TI_symbol_name("_MIF")
    4035                      .dwattr $C$DW$304, DW_AT_bit_offset(0x00)
    4036                      .dwattr $C$DW$304, DW_AT_bit_size(0x01)
    4037                      .dwattr $C$DW$304, DW_AT_data_member_location[DW_OP_plus_uconst 0x1]
    4038                      .dwattr $C$DW$304, DW_AT_accessibility(DW_ACCESS_public)
    4039              
TMS320C2000 Assembler PC v15.12.1 Sun May 28 10:39:54 2017

Tools Copyright (c) 1996-2015 Texas Instruments Incorporated
F2837xD_sdfm_drivers.asm                                             PAGE   79

    4040                      .dwendtag $C$DW$T$77
    4041              
    4042              
    4043              $C$DW$T$78      .dwtag  DW_TAG_union_type
    4044                      .dwattr $C$DW$T$78, DW_AT_name("SDIFLG_REG")
    4045                      .dwattr $C$DW$T$78, DW_AT_byte_size(0x02)
    4046              $C$DW$305       .dwtag  DW_TAG_member
    4047                      .dwattr $C$DW$305, DW_AT_type(*$C$DW$T$55)
    4048                      .dwattr $C$DW$305, DW_AT_name("all")
    4049                      .dwattr $C$DW$305, DW_AT_TI_symbol_name("_all")
    4050                      .dwattr $C$DW$305, DW_AT_data_member_location[DW_OP_plus_uconst 0x0]
    4051                      .dwattr $C$DW$305, DW_AT_accessibility(DW_ACCESS_public)
    4052              
    4053              $C$DW$306       .dwtag  DW_TAG_member
    4054                      .dwattr $C$DW$306, DW_AT_type(*$C$DW$T$77)
    4055                      .dwattr $C$DW$306, DW_AT_name("bit")
    4056                      .dwattr $C$DW$306, DW_AT_TI_symbol_name("_bit")
    4057                      .dwattr $C$DW$306, DW_AT_data_member_location[DW_OP_plus_uconst 0x0]
    4058                      .dwattr $C$DW$306, DW_AT_accessibility(DW_ACCESS_public)
    4059              
    4060                      .dwendtag $C$DW$T$78
    4061              
    4062              
    4063              $C$DW$T$79      .dwtag  DW_TAG_structure_type
    4064                      .dwattr $C$DW$T$79, DW_AT_name("SDIPARM1_BITS")
    4065                      .dwattr $C$DW$T$79, DW_AT_byte_size(0x01)
    4066              $C$DW$307       .dwtag  DW_TAG_member
    4067                      .dwattr $C$DW$307, DW_AT_type(*$C$DW$T$19)
    4068                      .dwattr $C$DW$307, DW_AT_name("rsvd1")
    4069                      .dwattr $C$DW$307, DW_AT_TI_symbol_name("_rsvd1")
    4070                      .dwattr $C$DW$307, DW_AT_bit_offset(0x09)
    4071                      .dwattr $C$DW$307, DW_AT_bit_size(0x07)
    4072                      .dwattr $C$DW$307, DW_AT_data_member_location[DW_OP_plus_uconst 0x0]
    4073                      .dwattr $C$DW$307, DW_AT_accessibility(DW_ACCESS_public)
    4074              
    4075              $C$DW$308       .dwtag  DW_TAG_member
    4076                      .dwattr $C$DW$308, DW_AT_type(*$C$DW$T$19)
    4077                      .dwattr $C$DW$308, DW_AT_name("rsvd2")
    4078                      .dwattr $C$DW$308, DW_AT_TI_symbol_name("_rsvd2")
    4079                      .dwattr $C$DW$308, DW_AT_bit_offset(0x08)
    4080                      .dwattr $C$DW$308, DW_AT_bit_size(0x01)
    4081                      .dwattr $C$DW$308, DW_AT_data_member_location[DW_OP_plus_uconst 0x0]
    4082                      .dwattr $C$DW$308, DW_AT_accessibility(DW_ACCESS_public)
    4083              
    4084              $C$DW$309       .dwtag  DW_TAG_member
    4085                      .dwattr $C$DW$309, DW_AT_type(*$C$DW$T$19)
    4086                      .dwattr $C$DW$309, DW_AT_name("rsvd3")
    4087                      .dwattr $C$DW$309, DW_AT_TI_symbol_name("_rsvd3")
    4088                      .dwattr $C$DW$309, DW_AT_bit_offset(0x07)
    4089                      .dwattr $C$DW$309, DW_AT_bit_size(0x01)
    4090                      .dwattr $C$DW$309, DW_AT_data_member_location[DW_OP_plus_uconst 0x0]
    4091                      .dwattr $C$DW$309, DW_AT_accessibility(DW_ACCESS_public)
    4092              
    4093              $C$DW$310       .dwtag  DW_TAG_member
    4094                      .dwattr $C$DW$310, DW_AT_type(*$C$DW$T$19)
TMS320C2000 Assembler PC v15.12.1 Sun May 28 10:39:54 2017

Tools Copyright (c) 1996-2015 Texas Instruments Incorporated
F2837xD_sdfm_drivers.asm                                             PAGE   80

    4095                      .dwattr $C$DW$310, DW_AT_name("rsvd4")
    4096                      .dwattr $C$DW$310, DW_AT_TI_symbol_name("_rsvd4")
    4097                      .dwattr $C$DW$310, DW_AT_bit_offset(0x06)
    4098                      .dwattr $C$DW$310, DW_AT_bit_size(0x01)
    4099                      .dwattr $C$DW$310, DW_AT_data_member_location[DW_OP_plus_uconst 0x0]
    4100                      .dwattr $C$DW$310, DW_AT_accessibility(DW_ACCESS_public)
    4101              
    4102              $C$DW$311       .dwtag  DW_TAG_member
    4103                      .dwattr $C$DW$311, DW_AT_type(*$C$DW$T$19)
    4104                      .dwattr $C$DW$311, DW_AT_name("DR")
    4105                      .dwattr $C$DW$311, DW_AT_TI_symbol_name("_DR")
    4106                      .dwattr $C$DW$311, DW_AT_bit_offset(0x05)
    4107                      .dwattr $C$DW$311, DW_AT_bit_size(0x01)
    4108                      .dwattr $C$DW$311, DW_AT_data_member_location[DW_OP_plus_uconst 0x0]
    4109                      .dwattr $C$DW$311, DW_AT_accessibility(DW_ACCESS_public)
    4110              
    4111              $C$DW$312       .dwtag  DW_TAG_member
    4112                      .dwattr $C$DW$312, DW_AT_type(*$C$DW$T$19)
    4113                      .dwattr $C$DW$312, DW_AT_name("SH")
    4114                      .dwattr $C$DW$312, DW_AT_TI_symbol_name("_SH")
    4115                      .dwattr $C$DW$312, DW_AT_bit_offset(0x00)
    4116                      .dwattr $C$DW$312, DW_AT_bit_size(0x05)
    4117                      .dwattr $C$DW$312, DW_AT_data_member_location[DW_OP_plus_uconst 0x0]
    4118                      .dwattr $C$DW$312, DW_AT_accessibility(DW_ACCESS_public)
    4119              
    4120                      .dwendtag $C$DW$T$79
    4121              
    4122              
    4123              $C$DW$T$80      .dwtag  DW_TAG_union_type
    4124                      .dwattr $C$DW$T$80, DW_AT_name("SDIPARM1_REG")
    4125                      .dwattr $C$DW$T$80, DW_AT_byte_size(0x01)
    4126              $C$DW$313       .dwtag  DW_TAG_member
    4127                      .dwattr $C$DW$313, DW_AT_type(*$C$DW$T$19)
    4128                      .dwattr $C$DW$313, DW_AT_name("all")
    4129                      .dwattr $C$DW$313, DW_AT_TI_symbol_name("_all")
    4130                      .dwattr $C$DW$313, DW_AT_data_member_location[DW_OP_plus_uconst 0x0]
    4131                      .dwattr $C$DW$313, DW_AT_accessibility(DW_ACCESS_public)
    4132              
    4133              $C$DW$314       .dwtag  DW_TAG_member
    4134                      .dwattr $C$DW$314, DW_AT_type(*$C$DW$T$79)
    4135                      .dwattr $C$DW$314, DW_AT_name("bit")
    4136                      .dwattr $C$DW$314, DW_AT_TI_symbol_name("_bit")
    4137                      .dwattr $C$DW$314, DW_AT_data_member_location[DW_OP_plus_uconst 0x0]
    4138                      .dwattr $C$DW$314, DW_AT_accessibility(DW_ACCESS_public)
    4139              
    4140                      .dwendtag $C$DW$T$80
    4141              
    4142              
    4143              $C$DW$T$81      .dwtag  DW_TAG_structure_type
    4144                      .dwattr $C$DW$T$81, DW_AT_name("SDIPARM2_BITS")
    4145                      .dwattr $C$DW$T$81, DW_AT_byte_size(0x01)
    4146              $C$DW$315       .dwtag  DW_TAG_member
    4147                      .dwattr $C$DW$315, DW_AT_type(*$C$DW$T$19)
    4148                      .dwattr $C$DW$315, DW_AT_name("rsvd1")
    4149                      .dwattr $C$DW$315, DW_AT_TI_symbol_name("_rsvd1")
TMS320C2000 Assembler PC v15.12.1 Sun May 28 10:39:54 2017

Tools Copyright (c) 1996-2015 Texas Instruments Incorporated
F2837xD_sdfm_drivers.asm                                             PAGE   81

    4150                      .dwattr $C$DW$315, DW_AT_bit_offset(0x09)
    4151                      .dwattr $C$DW$315, DW_AT_bit_size(0x07)
    4152                      .dwattr $C$DW$315, DW_AT_data_member_location[DW_OP_plus_uconst 0x0]
    4153                      .dwattr $C$DW$315, DW_AT_accessibility(DW_ACCESS_public)
    4154              
    4155              $C$DW$316       .dwtag  DW_TAG_member
    4156                      .dwattr $C$DW$316, DW_AT_type(*$C$DW$T$19)
    4157                      .dwattr $C$DW$316, DW_AT_name("rsvd2")
    4158                      .dwattr $C$DW$316, DW_AT_TI_symbol_name("_rsvd2")
    4159                      .dwattr $C$DW$316, DW_AT_bit_offset(0x08)
    4160                      .dwattr $C$DW$316, DW_AT_bit_size(0x01)
    4161                      .dwattr $C$DW$316, DW_AT_data_member_location[DW_OP_plus_uconst 0x0]
    4162                      .dwattr $C$DW$316, DW_AT_accessibility(DW_ACCESS_public)
    4163              
    4164              $C$DW$317       .dwtag  DW_TAG_member
    4165                      .dwattr $C$DW$317, DW_AT_type(*$C$DW$T$19)
    4166                      .dwattr $C$DW$317, DW_AT_name("rsvd3")
    4167                      .dwattr $C$DW$317, DW_AT_TI_symbol_name("_rsvd3")
    4168                      .dwattr $C$DW$317, DW_AT_bit_offset(0x07)
    4169                      .dwattr $C$DW$317, DW_AT_bit_size(0x01)
    4170                      .dwattr $C$DW$317, DW_AT_data_member_location[DW_OP_plus_uconst 0x0]
    4171                      .dwattr $C$DW$317, DW_AT_accessibility(DW_ACCESS_public)
    4172              
    4173              $C$DW$318       .dwtag  DW_TAG_member
    4174                      .dwattr $C$DW$318, DW_AT_type(*$C$DW$T$19)
    4175                      .dwattr $C$DW$318, DW_AT_name("rsvd4")
    4176                      .dwattr $C$DW$318, DW_AT_TI_symbol_name("_rsvd4")
    4177                      .dwattr $C$DW$318, DW_AT_bit_offset(0x06)
    4178                      .dwattr $C$DW$318, DW_AT_bit_size(0x01)
    4179                      .dwattr $C$DW$318, DW_AT_data_member_location[DW_OP_plus_uconst 0x0]
    4180                      .dwattr $C$DW$318, DW_AT_accessibility(DW_ACCESS_public)
    4181              
    4182              $C$DW$319       .dwtag  DW_TAG_member
    4183                      .dwattr $C$DW$319, DW_AT_type(*$C$DW$T$19)
    4184                      .dwattr $C$DW$319, DW_AT_name("DR")
    4185                      .dwattr $C$DW$319, DW_AT_TI_symbol_name("_DR")
    4186                      .dwattr $C$DW$319, DW_AT_bit_offset(0x05)
    4187                      .dwattr $C$DW$319, DW_AT_bit_size(0x01)
    4188                      .dwattr $C$DW$319, DW_AT_data_member_location[DW_OP_plus_uconst 0x0]
    4189                      .dwattr $C$DW$319, DW_AT_accessibility(DW_ACCESS_public)
    4190              
    4191              $C$DW$320       .dwtag  DW_TAG_member
    4192                      .dwattr $C$DW$320, DW_AT_type(*$C$DW$T$19)
    4193                      .dwattr $C$DW$320, DW_AT_name("SH")
    4194                      .dwattr $C$DW$320, DW_AT_TI_symbol_name("_SH")
    4195                      .dwattr $C$DW$320, DW_AT_bit_offset(0x00)
    4196                      .dwattr $C$DW$320, DW_AT_bit_size(0x05)
    4197                      .dwattr $C$DW$320, DW_AT_data_member_location[DW_OP_plus_uconst 0x0]
    4198                      .dwattr $C$DW$320, DW_AT_accessibility(DW_ACCESS_public)
    4199              
    4200                      .dwendtag $C$DW$T$81
    4201              
    4202              
    4203              $C$DW$T$82      .dwtag  DW_TAG_union_type
    4204                      .dwattr $C$DW$T$82, DW_AT_name("SDIPARM2_REG")
TMS320C2000 Assembler PC v15.12.1 Sun May 28 10:39:54 2017

Tools Copyright (c) 1996-2015 Texas Instruments Incorporated
F2837xD_sdfm_drivers.asm                                             PAGE   82

    4205                      .dwattr $C$DW$T$82, DW_AT_byte_size(0x01)
    4206              $C$DW$321       .dwtag  DW_TAG_member
    4207                      .dwattr $C$DW$321, DW_AT_type(*$C$DW$T$19)
    4208                      .dwattr $C$DW$321, DW_AT_name("all")
    4209                      .dwattr $C$DW$321, DW_AT_TI_symbol_name("_all")
    4210                      .dwattr $C$DW$321, DW_AT_data_member_location[DW_OP_plus_uconst 0x0]
    4211                      .dwattr $C$DW$321, DW_AT_accessibility(DW_ACCESS_public)
    4212              
    4213              $C$DW$322       .dwtag  DW_TAG_member
    4214                      .dwattr $C$DW$322, DW_AT_type(*$C$DW$T$81)
    4215                      .dwattr $C$DW$322, DW_AT_name("bit")
    4216                      .dwattr $C$DW$322, DW_AT_TI_symbol_name("_bit")
    4217                      .dwattr $C$DW$322, DW_AT_data_member_location[DW_OP_plus_uconst 0x0]
    4218                      .dwattr $C$DW$322, DW_AT_accessibility(DW_ACCESS_public)
    4219              
    4220                      .dwendtag $C$DW$T$82
    4221              
    4222              
    4223              $C$DW$T$83      .dwtag  DW_TAG_structure_type
    4224                      .dwattr $C$DW$T$83, DW_AT_name("SDIPARM3_BITS")
    4225                      .dwattr $C$DW$T$83, DW_AT_byte_size(0x01)
    4226              $C$DW$323       .dwtag  DW_TAG_member
    4227                      .dwattr $C$DW$323, DW_AT_type(*$C$DW$T$19)
    4228                      .dwattr $C$DW$323, DW_AT_name("rsvd1")
    4229                      .dwattr $C$DW$323, DW_AT_TI_symbol_name("_rsvd1")
    4230                      .dwattr $C$DW$323, DW_AT_bit_offset(0x09)
    4231                      .dwattr $C$DW$323, DW_AT_bit_size(0x07)
    4232                      .dwattr $C$DW$323, DW_AT_data_member_location[DW_OP_plus_uconst 0x0]
    4233                      .dwattr $C$DW$323, DW_AT_accessibility(DW_ACCESS_public)
    4234              
    4235              $C$DW$324       .dwtag  DW_TAG_member
    4236                      .dwattr $C$DW$324, DW_AT_type(*$C$DW$T$19)
    4237                      .dwattr $C$DW$324, DW_AT_name("rsvd2")
    4238                      .dwattr $C$DW$324, DW_AT_TI_symbol_name("_rsvd2")
    4239                      .dwattr $C$DW$324, DW_AT_bit_offset(0x08)
    4240                      .dwattr $C$DW$324, DW_AT_bit_size(0x01)
    4241                      .dwattr $C$DW$324, DW_AT_data_member_location[DW_OP_plus_uconst 0x0]
    4242                      .dwattr $C$DW$324, DW_AT_accessibility(DW_ACCESS_public)
    4243              
    4244              $C$DW$325       .dwtag  DW_TAG_member
    4245                      .dwattr $C$DW$325, DW_AT_type(*$C$DW$T$19)
    4246                      .dwattr $C$DW$325, DW_AT_name("rsvd3")
    4247                      .dwattr $C$DW$325, DW_AT_TI_symbol_name("_rsvd3")
    4248                      .dwattr $C$DW$325, DW_AT_bit_offset(0x07)
    4249                      .dwattr $C$DW$325, DW_AT_bit_size(0x01)
    4250                      .dwattr $C$DW$325, DW_AT_data_member_location[DW_OP_plus_uconst 0x0]
    4251                      .dwattr $C$DW$325, DW_AT_accessibility(DW_ACCESS_public)
    4252              
    4253              $C$DW$326       .dwtag  DW_TAG_member
    4254                      .dwattr $C$DW$326, DW_AT_type(*$C$DW$T$19)
    4255                      .dwattr $C$DW$326, DW_AT_name("rsvd4")
    4256                      .dwattr $C$DW$326, DW_AT_TI_symbol_name("_rsvd4")
    4257                      .dwattr $C$DW$326, DW_AT_bit_offset(0x06)
    4258                      .dwattr $C$DW$326, DW_AT_bit_size(0x01)
    4259                      .dwattr $C$DW$326, DW_AT_data_member_location[DW_OP_plus_uconst 0x0]
TMS320C2000 Assembler PC v15.12.1 Sun May 28 10:39:54 2017

Tools Copyright (c) 1996-2015 Texas Instruments Incorporated
F2837xD_sdfm_drivers.asm                                             PAGE   83

    4260                      .dwattr $C$DW$326, DW_AT_accessibility(DW_ACCESS_public)
    4261              
    4262              $C$DW$327       .dwtag  DW_TAG_member
    4263                      .dwattr $C$DW$327, DW_AT_type(*$C$DW$T$19)
    4264                      .dwattr $C$DW$327, DW_AT_name("DR")
    4265                      .dwattr $C$DW$327, DW_AT_TI_symbol_name("_DR")
    4266                      .dwattr $C$DW$327, DW_AT_bit_offset(0x05)
    4267                      .dwattr $C$DW$327, DW_AT_bit_size(0x01)
    4268                      .dwattr $C$DW$327, DW_AT_data_member_location[DW_OP_plus_uconst 0x0]
    4269                      .dwattr $C$DW$327, DW_AT_accessibility(DW_ACCESS_public)
    4270              
    4271              $C$DW$328       .dwtag  DW_TAG_member
    4272                      .dwattr $C$DW$328, DW_AT_type(*$C$DW$T$19)
    4273                      .dwattr $C$DW$328, DW_AT_name("SH")
    4274                      .dwattr $C$DW$328, DW_AT_TI_symbol_name("_SH")
    4275                      .dwattr $C$DW$328, DW_AT_bit_offset(0x00)
    4276                      .dwattr $C$DW$328, DW_AT_bit_size(0x05)
    4277                      .dwattr $C$DW$328, DW_AT_data_member_location[DW_OP_plus_uconst 0x0]
    4278                      .dwattr $C$DW$328, DW_AT_accessibility(DW_ACCESS_public)
    4279              
    4280                      .dwendtag $C$DW$T$83
    4281              
    4282              
    4283              $C$DW$T$84      .dwtag  DW_TAG_union_type
    4284                      .dwattr $C$DW$T$84, DW_AT_name("SDIPARM3_REG")
    4285                      .dwattr $C$DW$T$84, DW_AT_byte_size(0x01)
    4286              $C$DW$329       .dwtag  DW_TAG_member
    4287                      .dwattr $C$DW$329, DW_AT_type(*$C$DW$T$19)
    4288                      .dwattr $C$DW$329, DW_AT_name("all")
    4289                      .dwattr $C$DW$329, DW_AT_TI_symbol_name("_all")
    4290                      .dwattr $C$DW$329, DW_AT_data_member_location[DW_OP_plus_uconst 0x0]
    4291                      .dwattr $C$DW$329, DW_AT_accessibility(DW_ACCESS_public)
    4292              
    4293              $C$DW$330       .dwtag  DW_TAG_member
    4294                      .dwattr $C$DW$330, DW_AT_type(*$C$DW$T$83)
    4295                      .dwattr $C$DW$330, DW_AT_name("bit")
    4296                      .dwattr $C$DW$330, DW_AT_TI_symbol_name("_bit")
    4297                      .dwattr $C$DW$330, DW_AT_data_member_location[DW_OP_plus_uconst 0x0]
    4298                      .dwattr $C$DW$330, DW_AT_accessibility(DW_ACCESS_public)
    4299              
    4300                      .dwendtag $C$DW$T$84
    4301              
    4302              
    4303              $C$DW$T$85      .dwtag  DW_TAG_structure_type
    4304                      .dwattr $C$DW$T$85, DW_AT_name("SDIPARM4_BITS")
    4305                      .dwattr $C$DW$T$85, DW_AT_byte_size(0x01)
    4306              $C$DW$331       .dwtag  DW_TAG_member
    4307                      .dwattr $C$DW$331, DW_AT_type(*$C$DW$T$19)
    4308                      .dwattr $C$DW$331, DW_AT_name("rsvd1")
    4309                      .dwattr $C$DW$331, DW_AT_TI_symbol_name("_rsvd1")
    4310                      .dwattr $C$DW$331, DW_AT_bit_offset(0x09)
    4311                      .dwattr $C$DW$331, DW_AT_bit_size(0x07)
    4312                      .dwattr $C$DW$331, DW_AT_data_member_location[DW_OP_plus_uconst 0x0]
    4313                      .dwattr $C$DW$331, DW_AT_accessibility(DW_ACCESS_public)
    4314              
TMS320C2000 Assembler PC v15.12.1 Sun May 28 10:39:54 2017

Tools Copyright (c) 1996-2015 Texas Instruments Incorporated
F2837xD_sdfm_drivers.asm                                             PAGE   84

    4315              $C$DW$332       .dwtag  DW_TAG_member
    4316                      .dwattr $C$DW$332, DW_AT_type(*$C$DW$T$19)
    4317                      .dwattr $C$DW$332, DW_AT_name("rsvd2")
    4318                      .dwattr $C$DW$332, DW_AT_TI_symbol_name("_rsvd2")
    4319                      .dwattr $C$DW$332, DW_AT_bit_offset(0x08)
    4320                      .dwattr $C$DW$332, DW_AT_bit_size(0x01)
    4321                      .dwattr $C$DW$332, DW_AT_data_member_location[DW_OP_plus_uconst 0x0]
    4322                      .dwattr $C$DW$332, DW_AT_accessibility(DW_ACCESS_public)
    4323              
    4324              $C$DW$333       .dwtag  DW_TAG_member
    4325                      .dwattr $C$DW$333, DW_AT_type(*$C$DW$T$19)
    4326                      .dwattr $C$DW$333, DW_AT_name("rsvd3")
    4327                      .dwattr $C$DW$333, DW_AT_TI_symbol_name("_rsvd3")
    4328                      .dwattr $C$DW$333, DW_AT_bit_offset(0x07)
    4329                      .dwattr $C$DW$333, DW_AT_bit_size(0x01)
    4330                      .dwattr $C$DW$333, DW_AT_data_member_location[DW_OP_plus_uconst 0x0]
    4331                      .dwattr $C$DW$333, DW_AT_accessibility(DW_ACCESS_public)
    4332              
    4333              $C$DW$334       .dwtag  DW_TAG_member
    4334                      .dwattr $C$DW$334, DW_AT_type(*$C$DW$T$19)
    4335                      .dwattr $C$DW$334, DW_AT_name("rsvd4")
    4336                      .dwattr $C$DW$334, DW_AT_TI_symbol_name("_rsvd4")
    4337                      .dwattr $C$DW$334, DW_AT_bit_offset(0x06)
    4338                      .dwattr $C$DW$334, DW_AT_bit_size(0x01)
    4339                      .dwattr $C$DW$334, DW_AT_data_member_location[DW_OP_plus_uconst 0x0]
    4340                      .dwattr $C$DW$334, DW_AT_accessibility(DW_ACCESS_public)
    4341              
    4342              $C$DW$335       .dwtag  DW_TAG_member
    4343                      .dwattr $C$DW$335, DW_AT_type(*$C$DW$T$19)
    4344                      .dwattr $C$DW$335, DW_AT_name("DR")
    4345                      .dwattr $C$DW$335, DW_AT_TI_symbol_name("_DR")
    4346                      .dwattr $C$DW$335, DW_AT_bit_offset(0x05)
    4347                      .dwattr $C$DW$335, DW_AT_bit_size(0x01)
    4348                      .dwattr $C$DW$335, DW_AT_data_member_location[DW_OP_plus_uconst 0x0]
    4349                      .dwattr $C$DW$335, DW_AT_accessibility(DW_ACCESS_public)
    4350              
    4351              $C$DW$336       .dwtag  DW_TAG_member
    4352                      .dwattr $C$DW$336, DW_AT_type(*$C$DW$T$19)
    4353                      .dwattr $C$DW$336, DW_AT_name("SH")
    4354                      .dwattr $C$DW$336, DW_AT_TI_symbol_name("_SH")
    4355                      .dwattr $C$DW$336, DW_AT_bit_offset(0x00)
    4356                      .dwattr $C$DW$336, DW_AT_bit_size(0x05)
    4357                      .dwattr $C$DW$336, DW_AT_data_member_location[DW_OP_plus_uconst 0x0]
    4358                      .dwattr $C$DW$336, DW_AT_accessibility(DW_ACCESS_public)
    4359              
    4360                      .dwendtag $C$DW$T$85
    4361              
    4362              
    4363              $C$DW$T$86      .dwtag  DW_TAG_union_type
    4364                      .dwattr $C$DW$T$86, DW_AT_name("SDIPARM4_REG")
    4365                      .dwattr $C$DW$T$86, DW_AT_byte_size(0x01)
    4366              $C$DW$337       .dwtag  DW_TAG_member
    4367                      .dwattr $C$DW$337, DW_AT_type(*$C$DW$T$19)
    4368                      .dwattr $C$DW$337, DW_AT_name("all")
    4369                      .dwattr $C$DW$337, DW_AT_TI_symbol_name("_all")
TMS320C2000 Assembler PC v15.12.1 Sun May 28 10:39:54 2017

Tools Copyright (c) 1996-2015 Texas Instruments Incorporated
F2837xD_sdfm_drivers.asm                                             PAGE   85

    4370                      .dwattr $C$DW$337, DW_AT_data_member_location[DW_OP_plus_uconst 0x0]
    4371                      .dwattr $C$DW$337, DW_AT_accessibility(DW_ACCESS_public)
    4372              
    4373              $C$DW$338       .dwtag  DW_TAG_member
    4374                      .dwattr $C$DW$338, DW_AT_type(*$C$DW$T$85)
    4375                      .dwattr $C$DW$338, DW_AT_name("bit")
    4376                      .dwattr $C$DW$338, DW_AT_TI_symbol_name("_bit")
    4377                      .dwattr $C$DW$338, DW_AT_data_member_location[DW_OP_plus_uconst 0x0]
    4378                      .dwattr $C$DW$338, DW_AT_accessibility(DW_ACCESS_public)
    4379              
    4380                      .dwendtag $C$DW$T$86
    4381              
    4382              
    4383              $C$DW$T$87      .dwtag  DW_TAG_structure_type
    4384                      .dwattr $C$DW$T$87, DW_AT_name("SDMFILEN_BITS")
    4385                      .dwattr $C$DW$T$87, DW_AT_byte_size(0x01)
    4386              $C$DW$339       .dwtag  DW_TAG_member
    4387                      .dwattr $C$DW$339, DW_AT_type(*$C$DW$T$19)
    4388                      .dwattr $C$DW$339, DW_AT_name("rsvd1")
    4389                      .dwattr $C$DW$339, DW_AT_TI_symbol_name("_rsvd1")
    4390                      .dwattr $C$DW$339, DW_AT_bit_offset(0x0c)
    4391                      .dwattr $C$DW$339, DW_AT_bit_size(0x04)
    4392                      .dwattr $C$DW$339, DW_AT_data_member_location[DW_OP_plus_uconst 0x0]
    4393                      .dwattr $C$DW$339, DW_AT_accessibility(DW_ACCESS_public)
    4394              
    4395              $C$DW$340       .dwtag  DW_TAG_member
    4396                      .dwattr $C$DW$340, DW_AT_type(*$C$DW$T$19)
    4397                      .dwattr $C$DW$340, DW_AT_name("rsvd2")
    4398                      .dwattr $C$DW$340, DW_AT_TI_symbol_name("_rsvd2")
    4399                      .dwattr $C$DW$340, DW_AT_bit_offset(0x09)
    4400                      .dwattr $C$DW$340, DW_AT_bit_size(0x03)
    4401                      .dwattr $C$DW$340, DW_AT_data_member_location[DW_OP_plus_uconst 0x0]
    4402                      .dwattr $C$DW$340, DW_AT_accessibility(DW_ACCESS_public)
    4403              
    4404              $C$DW$341       .dwtag  DW_TAG_member
    4405                      .dwattr $C$DW$341, DW_AT_type(*$C$DW$T$19)
    4406                      .dwattr $C$DW$341, DW_AT_name("rsvd3")
    4407                      .dwattr $C$DW$341, DW_AT_TI_symbol_name("_rsvd3")
    4408                      .dwattr $C$DW$341, DW_AT_bit_offset(0x07)
    4409                      .dwattr $C$DW$341, DW_AT_bit_size(0x02)
    4410                      .dwattr $C$DW$341, DW_AT_data_member_location[DW_OP_plus_uconst 0x0]
    4411                      .dwattr $C$DW$341, DW_AT_accessibility(DW_ACCESS_public)
    4412              
    4413              $C$DW$342       .dwtag  DW_TAG_member
    4414                      .dwattr $C$DW$342, DW_AT_type(*$C$DW$T$19)
    4415                      .dwattr $C$DW$342, DW_AT_name("rsvd4")
    4416                      .dwattr $C$DW$342, DW_AT_TI_symbol_name("_rsvd4")
    4417                      .dwattr $C$DW$342, DW_AT_bit_offset(0x06)
    4418                      .dwattr $C$DW$342, DW_AT_bit_size(0x01)
    4419                      .dwattr $C$DW$342, DW_AT_data_member_location[DW_OP_plus_uconst 0x0]
    4420                      .dwattr $C$DW$342, DW_AT_accessibility(DW_ACCESS_public)
    4421              
    4422              $C$DW$343       .dwtag  DW_TAG_member
    4423                      .dwattr $C$DW$343, DW_AT_type(*$C$DW$T$19)
    4424                      .dwattr $C$DW$343, DW_AT_name("rsvd5")
TMS320C2000 Assembler PC v15.12.1 Sun May 28 10:39:54 2017

Tools Copyright (c) 1996-2015 Texas Instruments Incorporated
F2837xD_sdfm_drivers.asm                                             PAGE   86

    4425                      .dwattr $C$DW$343, DW_AT_TI_symbol_name("_rsvd5")
    4426                      .dwattr $C$DW$343, DW_AT_bit_offset(0x05)
    4427                      .dwattr $C$DW$343, DW_AT_bit_size(0x01)
    4428                      .dwattr $C$DW$343, DW_AT_data_member_location[DW_OP_plus_uconst 0x0]
    4429                      .dwattr $C$DW$343, DW_AT_accessibility(DW_ACCESS_public)
    4430              
    4431              $C$DW$344       .dwtag  DW_TAG_member
    4432                      .dwattr $C$DW$344, DW_AT_type(*$C$DW$T$19)
    4433                      .dwattr $C$DW$344, DW_AT_name("MFE")
    4434                      .dwattr $C$DW$344, DW_AT_TI_symbol_name("_MFE")
    4435                      .dwattr $C$DW$344, DW_AT_bit_offset(0x04)
    4436                      .dwattr $C$DW$344, DW_AT_bit_size(0x01)
    4437                      .dwattr $C$DW$344, DW_AT_data_member_location[DW_OP_plus_uconst 0x0]
    4438                      .dwattr $C$DW$344, DW_AT_accessibility(DW_ACCESS_public)
    4439              
    4440              $C$DW$345       .dwtag  DW_TAG_member
    4441                      .dwattr $C$DW$345, DW_AT_type(*$C$DW$T$19)
    4442                      .dwattr $C$DW$345, DW_AT_name("rsvd6")
    4443                      .dwattr $C$DW$345, DW_AT_TI_symbol_name("_rsvd6")
    4444                      .dwattr $C$DW$345, DW_AT_bit_offset(0x03)
    4445                      .dwattr $C$DW$345, DW_AT_bit_size(0x01)
    4446                      .dwattr $C$DW$345, DW_AT_data_member_location[DW_OP_plus_uconst 0x0]
    4447                      .dwattr $C$DW$345, DW_AT_accessibility(DW_ACCESS_public)
    4448              
    4449              $C$DW$346       .dwtag  DW_TAG_member
    4450                      .dwattr $C$DW$346, DW_AT_type(*$C$DW$T$19)
    4451                      .dwattr $C$DW$346, DW_AT_name("rsvd7")
    4452                      .dwattr $C$DW$346, DW_AT_TI_symbol_name("_rsvd7")
    4453                      .dwattr $C$DW$346, DW_AT_bit_offset(0x00)
    4454                      .dwattr $C$DW$346, DW_AT_bit_size(0x03)
    4455                      .dwattr $C$DW$346, DW_AT_data_member_location[DW_OP_plus_uconst 0x0]
    4456                      .dwattr $C$DW$346, DW_AT_accessibility(DW_ACCESS_public)
    4457              
    4458                      .dwendtag $C$DW$T$87
    4459              
    4460              
    4461              $C$DW$T$88      .dwtag  DW_TAG_union_type
    4462                      .dwattr $C$DW$T$88, DW_AT_name("SDMFILEN_REG")
    4463                      .dwattr $C$DW$T$88, DW_AT_byte_size(0x01)
    4464              $C$DW$347       .dwtag  DW_TAG_member
    4465                      .dwattr $C$DW$347, DW_AT_type(*$C$DW$T$19)
    4466                      .dwattr $C$DW$347, DW_AT_name("all")
    4467                      .dwattr $C$DW$347, DW_AT_TI_symbol_name("_all")
    4468                      .dwattr $C$DW$347, DW_AT_data_member_location[DW_OP_plus_uconst 0x0]
    4469                      .dwattr $C$DW$347, DW_AT_accessibility(DW_ACCESS_public)
    4470              
    4471              $C$DW$348       .dwtag  DW_TAG_member
    4472                      .dwattr $C$DW$348, DW_AT_type(*$C$DW$T$87)
    4473                      .dwattr $C$DW$348, DW_AT_name("bit")
    4474                      .dwattr $C$DW$348, DW_AT_TI_symbol_name("_bit")
    4475                      .dwattr $C$DW$348, DW_AT_data_member_location[DW_OP_plus_uconst 0x0]
    4476                      .dwattr $C$DW$348, DW_AT_accessibility(DW_ACCESS_public)
    4477              
    4478                      .dwendtag $C$DW$T$88
    4479              
TMS320C2000 Assembler PC v15.12.1 Sun May 28 10:39:54 2017

Tools Copyright (c) 1996-2015 Texas Instruments Incorporated
F2837xD_sdfm_drivers.asm                                             PAGE   87

    4480              $C$DW$T$2       .dwtag  DW_TAG_unspecified_type
    4481                      .dwattr $C$DW$T$2, DW_AT_name("void")
    4482              
    4483              $C$DW$T$4       .dwtag  DW_TAG_base_type
    4484                      .dwattr $C$DW$T$4, DW_AT_encoding(DW_ATE_boolean)
    4485                      .dwattr $C$DW$T$4, DW_AT_name("bool")
    4486                      .dwattr $C$DW$T$4, DW_AT_byte_size(0x01)
    4487              
    4488              $C$DW$T$5       .dwtag  DW_TAG_base_type
    4489                      .dwattr $C$DW$T$5, DW_AT_encoding(DW_ATE_signed_char)
    4490                      .dwattr $C$DW$T$5, DW_AT_name("signed char")
    4491                      .dwattr $C$DW$T$5, DW_AT_byte_size(0x01)
    4492              
    4493              $C$DW$T$6       .dwtag  DW_TAG_base_type
    4494                      .dwattr $C$DW$T$6, DW_AT_encoding(DW_ATE_unsigned_char)
    4495                      .dwattr $C$DW$T$6, DW_AT_name("unsigned char")
    4496                      .dwattr $C$DW$T$6, DW_AT_byte_size(0x01)
    4497              
    4498              $C$DW$T$7       .dwtag  DW_TAG_base_type
    4499                      .dwattr $C$DW$T$7, DW_AT_encoding(DW_ATE_signed_char)
    4500                      .dwattr $C$DW$T$7, DW_AT_name("wchar_t")
    4501                      .dwattr $C$DW$T$7, DW_AT_byte_size(0x01)
    4502              
    4503              $C$DW$T$8       .dwtag  DW_TAG_base_type
    4504                      .dwattr $C$DW$T$8, DW_AT_encoding(DW_ATE_signed)
    4505                      .dwattr $C$DW$T$8, DW_AT_name("short")
    4506                      .dwattr $C$DW$T$8, DW_AT_byte_size(0x01)
    4507              
    4508              $C$DW$T$9       .dwtag  DW_TAG_base_type
    4509                      .dwattr $C$DW$T$9, DW_AT_encoding(DW_ATE_unsigned)
    4510                      .dwattr $C$DW$T$9, DW_AT_name("unsigned short")
    4511                      .dwattr $C$DW$T$9, DW_AT_byte_size(0x01)
    4512              
    4513              $C$DW$T$10      .dwtag  DW_TAG_base_type
    4514                      .dwattr $C$DW$T$10, DW_AT_encoding(DW_ATE_signed)
    4515                      .dwattr $C$DW$T$10, DW_AT_name("int")
    4516                      .dwattr $C$DW$T$10, DW_AT_byte_size(0x01)
    4517              
    4518              $C$DW$T$11      .dwtag  DW_TAG_base_type
    4519                      .dwattr $C$DW$T$11, DW_AT_encoding(DW_ATE_unsigned)
    4520                      .dwattr $C$DW$T$11, DW_AT_name("unsigned int")
    4521                      .dwattr $C$DW$T$11, DW_AT_byte_size(0x01)
    4522              
    4523              $C$DW$T$19      .dwtag  DW_TAG_typedef
    4524                      .dwattr $C$DW$T$19, DW_AT_name("Uint16")
    4525                      .dwattr $C$DW$T$19, DW_AT_type(*$C$DW$T$11)
    4526                      .dwattr $C$DW$T$19, DW_AT_language(DW_LANG_C)
    4527              
    4528              $C$DW$349       .dwtag  DW_TAG_TI_far_type
    4529                      .dwattr $C$DW$349, DW_AT_type(*$C$DW$T$19)
    4530              
    4531              $C$DW$T$101     .dwtag  DW_TAG_const_type
    4532                      .dwattr $C$DW$T$101, DW_AT_type(*$C$DW$349)
    4533              
    4534              
TMS320C2000 Assembler PC v15.12.1 Sun May 28 10:39:54 2017

Tools Copyright (c) 1996-2015 Texas Instruments Incorporated
F2837xD_sdfm_drivers.asm                                             PAGE   88

    4535              $C$DW$T$71      .dwtag  DW_TAG_array_type
    4536                      .dwattr $C$DW$T$71, DW_AT_type(*$C$DW$T$19)
    4537                      .dwattr $C$DW$T$71, DW_AT_language(DW_LANG_C)
    4538                      .dwattr $C$DW$T$71, DW_AT_byte_size(0x09)
    4539              $C$DW$350       .dwtag  DW_TAG_subrange_type
    4540                      .dwattr $C$DW$350, DW_AT_upper_bound(0x08)
    4541              
    4542                      .dwendtag $C$DW$T$71
    4543              
    4544              
    4545              $C$DW$T$72      .dwtag  DW_TAG_array_type
    4546                      .dwattr $C$DW$T$72, DW_AT_type(*$C$DW$T$19)
    4547                      .dwattr $C$DW$T$72, DW_AT_language(DW_LANG_C)
    4548                      .dwattr $C$DW$T$72, DW_AT_byte_size(0x08)
    4549              $C$DW$351       .dwtag  DW_TAG_subrange_type
    4550                      .dwattr $C$DW$351, DW_AT_upper_bound(0x07)
    4551              
    4552                      .dwendtag $C$DW$T$72
    4553              
    4554              
    4555              $C$DW$T$73      .dwtag  DW_TAG_array_type
    4556                      .dwattr $C$DW$T$73, DW_AT_type(*$C$DW$T$19)
    4557                      .dwattr $C$DW$T$73, DW_AT_language(DW_LANG_C)
    4558                      .dwattr $C$DW$T$73, DW_AT_byte_size(0x38)
    4559              $C$DW$352       .dwtag  DW_TAG_subrange_type
    4560                      .dwattr $C$DW$352, DW_AT_upper_bound(0x37)
    4561              
    4562                      .dwendtag $C$DW$T$73
    4563              
    4564              $C$DW$T$12      .dwtag  DW_TAG_base_type
    4565                      .dwattr $C$DW$T$12, DW_AT_encoding(DW_ATE_signed)
    4566                      .dwattr $C$DW$T$12, DW_AT_name("long")
    4567                      .dwattr $C$DW$T$12, DW_AT_byte_size(0x02)
    4568              
    4569              $C$DW$T$13      .dwtag  DW_TAG_base_type
    4570                      .dwattr $C$DW$T$13, DW_AT_encoding(DW_ATE_unsigned)
    4571                      .dwattr $C$DW$T$13, DW_AT_name("unsigned long")
    4572                      .dwattr $C$DW$T$13, DW_AT_byte_size(0x02)
    4573              
    4574              $C$DW$T$55      .dwtag  DW_TAG_typedef
    4575                      .dwattr $C$DW$T$55, DW_AT_name("Uint32")
    4576                      .dwattr $C$DW$T$55, DW_AT_type(*$C$DW$T$13)
    4577                      .dwattr $C$DW$T$55, DW_AT_language(DW_LANG_C)
    4578              
    4579              $C$DW$353       .dwtag  DW_TAG_TI_far_type
    4580                      .dwattr $C$DW$353, DW_AT_type(*$C$DW$T$55)
    4581              
    4582              $C$DW$T$105     .dwtag  DW_TAG_const_type
    4583                      .dwattr $C$DW$T$105, DW_AT_type(*$C$DW$353)
    4584              
    4585              $C$DW$T$14      .dwtag  DW_TAG_base_type
    4586                      .dwattr $C$DW$T$14, DW_AT_encoding(DW_ATE_signed)
    4587                      .dwattr $C$DW$T$14, DW_AT_name("long long")
    4588                      .dwattr $C$DW$T$14, DW_AT_byte_size(0x04)
    4589              
TMS320C2000 Assembler PC v15.12.1 Sun May 28 10:39:54 2017

Tools Copyright (c) 1996-2015 Texas Instruments Incorporated
F2837xD_sdfm_drivers.asm                                             PAGE   89

    4590              $C$DW$T$15      .dwtag  DW_TAG_base_type
    4591                      .dwattr $C$DW$T$15, DW_AT_encoding(DW_ATE_unsigned)
    4592                      .dwattr $C$DW$T$15, DW_AT_name("unsigned long long")
    4593                      .dwattr $C$DW$T$15, DW_AT_byte_size(0x04)
    4594              
    4595              $C$DW$T$16      .dwtag  DW_TAG_base_type
    4596                      .dwattr $C$DW$T$16, DW_AT_encoding(DW_ATE_float)
    4597                      .dwattr $C$DW$T$16, DW_AT_name("float")
    4598                      .dwattr $C$DW$T$16, DW_AT_byte_size(0x02)
    4599              
    4600              $C$DW$T$17      .dwtag  DW_TAG_base_type
    4601                      .dwattr $C$DW$T$17, DW_AT_encoding(DW_ATE_float)
    4602                      .dwattr $C$DW$T$17, DW_AT_name("double")
    4603                      .dwattr $C$DW$T$17, DW_AT_byte_size(0x02)
    4604              
    4605              $C$DW$T$18      .dwtag  DW_TAG_base_type
    4606                      .dwattr $C$DW$T$18, DW_AT_encoding(DW_ATE_float)
    4607                      .dwattr $C$DW$T$18, DW_AT_name("long double")
    4608                      .dwattr $C$DW$T$18, DW_AT_byte_size(0x04)
    4609              
    4610                      .dwattr $C$DW$CU, DW_AT_language(DW_LANG_C)
    4611              
    4612              ;***************************************************************
    4613              ;* DWARF CIE ENTRIES                                           *
    4614              ;***************************************************************
    4615              
    4616              $C$DW$CIE       .dwcie 26
    4617                      .dwcfi  cfa_register, 20
    4618                      .dwcfi  cfa_offset, 0
    4619                      .dwcfi  undefined, 0
    4620                      .dwcfi  undefined, 1
    4621                      .dwcfi  undefined, 2
    4622                      .dwcfi  undefined, 3
    4623                      .dwcfi  undefined, 20
    4624                      .dwcfi  undefined, 21
    4625                      .dwcfi  undefined, 22
    4626                      .dwcfi  undefined, 23
    4627                      .dwcfi  undefined, 24
    4628                      .dwcfi  undefined, 25
    4629                      .dwcfi  undefined, 26
    4630                      .dwcfi  same_value, 28
    4631                      .dwcfi  undefined, 29
    4632                      .dwcfi  undefined, 30
    4633                      .dwcfi  undefined, 31
    4634                      .dwcfi  undefined, 32
    4635                      .dwcfi  undefined, 33
    4636                      .dwcfi  undefined, 34
    4637                      .dwcfi  undefined, 35
    4638                      .dwcfi  undefined, 36
    4639                      .dwcfi  undefined, 37
    4640                      .dwcfi  undefined, 38
    4641                      .dwcfi  undefined, 75
    4642                      .dwcfi  undefined, 76
    4643                      .dwcfi  undefined, 77
    4644                      .dwcfi  undefined, 4
TMS320C2000 Assembler PC v15.12.1 Sun May 28 10:39:54 2017

Tools Copyright (c) 1996-2015 Texas Instruments Incorporated
F2837xD_sdfm_drivers.asm                                             PAGE   90

    4645                      .dwcfi  undefined, 5
    4646                      .dwcfi  same_value, 6
    4647                      .dwcfi  same_value, 7
    4648                      .dwcfi  same_value, 8
    4649                      .dwcfi  same_value, 9
    4650                      .dwcfi  same_value, 10
    4651                      .dwcfi  same_value, 11
    4652                      .dwcfi  undefined, 12
    4653                      .dwcfi  undefined, 13
    4654                      .dwcfi  undefined, 14
    4655                      .dwcfi  undefined, 15
    4656                      .dwcfi  undefined, 16
    4657                      .dwcfi  undefined, 17
    4658                      .dwcfi  undefined, 18
    4659                      .dwcfi  undefined, 19
    4660                      .dwcfi  undefined, 43
    4661                      .dwcfi  undefined, 44
    4662                      .dwcfi  undefined, 47
    4663                      .dwcfi  undefined, 48
    4664                      .dwcfi  undefined, 51
    4665                      .dwcfi  undefined, 52
    4666                      .dwcfi  undefined, 55
    4667                      .dwcfi  undefined, 56
    4668                      .dwcfi  same_value, 59
    4669                      .dwcfi  same_value, 60
    4670                      .dwcfi  same_value, 63
    4671                      .dwcfi  same_value, 64
    4672                      .dwcfi  same_value, 67
    4673                      .dwcfi  same_value, 68
    4674                      .dwcfi  same_value, 71
    4675                      .dwcfi  same_value, 72
    4676                      .dwcfi  undefined, 73
    4677                      .dwcfi  undefined, 74
    4678                      .dwcfi  undefined, 39
    4679                      .dwcfi  undefined, 40
    4680                      .dwcfi  undefined, 27
    4681                      .dwendentry
    4682              
    4683              ;***************************************************************
    4684              ;* DWARF REGISTER MAP                                          *
    4685              ;***************************************************************
    4686              
    4687              $C$DW$354       .dwtag  DW_TAG_TI_assign_register
    4688                      .dwattr $C$DW$354, DW_AT_name("AL")
    4689                      .dwattr $C$DW$354, DW_AT_location[DW_OP_reg0]
    4690              
    4691              $C$DW$355       .dwtag  DW_TAG_TI_assign_register
    4692                      .dwattr $C$DW$355, DW_AT_name("AH")
    4693                      .dwattr $C$DW$355, DW_AT_location[DW_OP_reg1]
    4694              
    4695              $C$DW$356       .dwtag  DW_TAG_TI_assign_register
    4696                      .dwattr $C$DW$356, DW_AT_name("PL")
    4697                      .dwattr $C$DW$356, DW_AT_location[DW_OP_reg2]
    4698              
    4699              $C$DW$357       .dwtag  DW_TAG_TI_assign_register
TMS320C2000 Assembler PC v15.12.1 Sun May 28 10:39:54 2017

Tools Copyright (c) 1996-2015 Texas Instruments Incorporated
F2837xD_sdfm_drivers.asm                                             PAGE   91

    4700                      .dwattr $C$DW$357, DW_AT_name("PH")
    4701                      .dwattr $C$DW$357, DW_AT_location[DW_OP_reg3]
    4702              
    4703              $C$DW$358       .dwtag  DW_TAG_TI_assign_register
    4704                      .dwattr $C$DW$358, DW_AT_name("SP")
    4705                      .dwattr $C$DW$358, DW_AT_location[DW_OP_reg20]
    4706              
    4707              $C$DW$359       .dwtag  DW_TAG_TI_assign_register
    4708                      .dwattr $C$DW$359, DW_AT_name("XT")
    4709                      .dwattr $C$DW$359, DW_AT_location[DW_OP_reg21]
    4710              
    4711              $C$DW$360       .dwtag  DW_TAG_TI_assign_register
    4712                      .dwattr $C$DW$360, DW_AT_name("T")
    4713                      .dwattr $C$DW$360, DW_AT_location[DW_OP_reg22]
    4714              
    4715              $C$DW$361       .dwtag  DW_TAG_TI_assign_register
    4716                      .dwattr $C$DW$361, DW_AT_name("ST0")
    4717                      .dwattr $C$DW$361, DW_AT_location[DW_OP_reg23]
    4718              
    4719              $C$DW$362       .dwtag  DW_TAG_TI_assign_register
    4720                      .dwattr $C$DW$362, DW_AT_name("ST1")
    4721                      .dwattr $C$DW$362, DW_AT_location[DW_OP_reg24]
    4722              
    4723              $C$DW$363       .dwtag  DW_TAG_TI_assign_register
    4724                      .dwattr $C$DW$363, DW_AT_name("PC")
    4725                      .dwattr $C$DW$363, DW_AT_location[DW_OP_reg25]
    4726              
    4727              $C$DW$364       .dwtag  DW_TAG_TI_assign_register
    4728                      .dwattr $C$DW$364, DW_AT_name("RPC")
    4729                      .dwattr $C$DW$364, DW_AT_location[DW_OP_reg26]
    4730              
    4731              $C$DW$365       .dwtag  DW_TAG_TI_assign_register
    4732                      .dwattr $C$DW$365, DW_AT_name("FP")
    4733                      .dwattr $C$DW$365, DW_AT_location[DW_OP_reg28]
    4734              
    4735              $C$DW$366       .dwtag  DW_TAG_TI_assign_register
    4736                      .dwattr $C$DW$366, DW_AT_name("DP")
    4737                      .dwattr $C$DW$366, DW_AT_location[DW_OP_reg29]
    4738              
    4739              $C$DW$367       .dwtag  DW_TAG_TI_assign_register
    4740                      .dwattr $C$DW$367, DW_AT_name("SXM")
    4741                      .dwattr $C$DW$367, DW_AT_location[DW_OP_reg30]
    4742              
    4743              $C$DW$368       .dwtag  DW_TAG_TI_assign_register
    4744                      .dwattr $C$DW$368, DW_AT_name("PM")
    4745                      .dwattr $C$DW$368, DW_AT_location[DW_OP_reg31]
    4746              
    4747              $C$DW$369       .dwtag  DW_TAG_TI_assign_register
    4748                      .dwattr $C$DW$369, DW_AT_name("OVM")
    4749                      .dwattr $C$DW$369, DW_AT_location[DW_OP_regx 0x20]
    4750              
    4751              $C$DW$370       .dwtag  DW_TAG_TI_assign_register
    4752                      .dwattr $C$DW$370, DW_AT_name("PAGE0")
    4753                      .dwattr $C$DW$370, DW_AT_location[DW_OP_regx 0x21]
    4754              
TMS320C2000 Assembler PC v15.12.1 Sun May 28 10:39:54 2017

Tools Copyright (c) 1996-2015 Texas Instruments Incorporated
F2837xD_sdfm_drivers.asm                                             PAGE   92

    4755              $C$DW$371       .dwtag  DW_TAG_TI_assign_register
    4756                      .dwattr $C$DW$371, DW_AT_name("AMODE")
    4757                      .dwattr $C$DW$371, DW_AT_location[DW_OP_regx 0x22]
    4758              
    4759              $C$DW$372       .dwtag  DW_TAG_TI_assign_register
    4760                      .dwattr $C$DW$372, DW_AT_name("INTM")
    4761                      .dwattr $C$DW$372, DW_AT_location[DW_OP_regx 0x23]
    4762              
    4763              $C$DW$373       .dwtag  DW_TAG_TI_assign_register
    4764                      .dwattr $C$DW$373, DW_AT_name("IFR")
    4765                      .dwattr $C$DW$373, DW_AT_location[DW_OP_regx 0x24]
    4766              
    4767              $C$DW$374       .dwtag  DW_TAG_TI_assign_register
    4768                      .dwattr $C$DW$374, DW_AT_name("IER")
    4769                      .dwattr $C$DW$374, DW_AT_location[DW_OP_regx 0x25]
    4770              
    4771              $C$DW$375       .dwtag  DW_TAG_TI_assign_register
    4772                      .dwattr $C$DW$375, DW_AT_name("V")
    4773                      .dwattr $C$DW$375, DW_AT_location[DW_OP_regx 0x26]
    4774              
    4775              $C$DW$376       .dwtag  DW_TAG_TI_assign_register
    4776                      .dwattr $C$DW$376, DW_AT_name("PSEUDOH")
    4777                      .dwattr $C$DW$376, DW_AT_location[DW_OP_regx 0x4c]
    4778              
    4779              $C$DW$377       .dwtag  DW_TAG_TI_assign_register
    4780                      .dwattr $C$DW$377, DW_AT_name("VOL")
    4781                      .dwattr $C$DW$377, DW_AT_location[DW_OP_regx 0x4d]
    4782              
    4783              $C$DW$378       .dwtag  DW_TAG_TI_assign_register
    4784                      .dwattr $C$DW$378, DW_AT_name("AR0")
    4785                      .dwattr $C$DW$378, DW_AT_location[DW_OP_reg4]
    4786              
    4787              $C$DW$379       .dwtag  DW_TAG_TI_assign_register
    4788                      .dwattr $C$DW$379, DW_AT_name("XAR0")
    4789                      .dwattr $C$DW$379, DW_AT_location[DW_OP_reg5]
    4790              
    4791              $C$DW$380       .dwtag  DW_TAG_TI_assign_register
    4792                      .dwattr $C$DW$380, DW_AT_name("AR1")
    4793                      .dwattr $C$DW$380, DW_AT_location[DW_OP_reg6]
    4794              
    4795              $C$DW$381       .dwtag  DW_TAG_TI_assign_register
    4796                      .dwattr $C$DW$381, DW_AT_name("XAR1")
    4797                      .dwattr $C$DW$381, DW_AT_location[DW_OP_reg7]
    4798              
    4799              $C$DW$382       .dwtag  DW_TAG_TI_assign_register
    4800                      .dwattr $C$DW$382, DW_AT_name("AR2")
    4801                      .dwattr $C$DW$382, DW_AT_location[DW_OP_reg8]
    4802              
    4803              $C$DW$383       .dwtag  DW_TAG_TI_assign_register
    4804                      .dwattr $C$DW$383, DW_AT_name("XAR2")
    4805                      .dwattr $C$DW$383, DW_AT_location[DW_OP_reg9]
    4806              
    4807              $C$DW$384       .dwtag  DW_TAG_TI_assign_register
    4808                      .dwattr $C$DW$384, DW_AT_name("AR3")
    4809                      .dwattr $C$DW$384, DW_AT_location[DW_OP_reg10]
TMS320C2000 Assembler PC v15.12.1 Sun May 28 10:39:54 2017

Tools Copyright (c) 1996-2015 Texas Instruments Incorporated
F2837xD_sdfm_drivers.asm                                             PAGE   93

    4810              
    4811              $C$DW$385       .dwtag  DW_TAG_TI_assign_register
    4812                      .dwattr $C$DW$385, DW_AT_name("XAR3")
    4813                      .dwattr $C$DW$385, DW_AT_location[DW_OP_reg11]
    4814              
    4815              $C$DW$386       .dwtag  DW_TAG_TI_assign_register
    4816                      .dwattr $C$DW$386, DW_AT_name("AR4")
    4817                      .dwattr $C$DW$386, DW_AT_location[DW_OP_reg12]
    4818              
    4819              $C$DW$387       .dwtag  DW_TAG_TI_assign_register
    4820                      .dwattr $C$DW$387, DW_AT_name("XAR4")
    4821                      .dwattr $C$DW$387, DW_AT_location[DW_OP_reg13]
    4822              
    4823              $C$DW$388       .dwtag  DW_TAG_TI_assign_register
    4824                      .dwattr $C$DW$388, DW_AT_name("AR5")
    4825                      .dwattr $C$DW$388, DW_AT_location[DW_OP_reg14]
    4826              
    4827              $C$DW$389       .dwtag  DW_TAG_TI_assign_register
    4828                      .dwattr $C$DW$389, DW_AT_name("XAR5")
    4829                      .dwattr $C$DW$389, DW_AT_location[DW_OP_reg15]
    4830              
    4831              $C$DW$390       .dwtag  DW_TAG_TI_assign_register
    4832                      .dwattr $C$DW$390, DW_AT_name("AR6")
    4833                      .dwattr $C$DW$390, DW_AT_location[DW_OP_reg16]
    4834              
    4835              $C$DW$391       .dwtag  DW_TAG_TI_assign_register
    4836                      .dwattr $C$DW$391, DW_AT_name("XAR6")
    4837                      .dwattr $C$DW$391, DW_AT_location[DW_OP_reg17]
    4838              
    4839              $C$DW$392       .dwtag  DW_TAG_TI_assign_register
    4840                      .dwattr $C$DW$392, DW_AT_name("AR7")
    4841                      .dwattr $C$DW$392, DW_AT_location[DW_OP_reg18]
    4842              
    4843              $C$DW$393       .dwtag  DW_TAG_TI_assign_register
    4844                      .dwattr $C$DW$393, DW_AT_name("XAR7")
    4845                      .dwattr $C$DW$393, DW_AT_location[DW_OP_reg19]
    4846              
    4847              $C$DW$394       .dwtag  DW_TAG_TI_assign_register
    4848                      .dwattr $C$DW$394, DW_AT_name("R0HL")
    4849                      .dwattr $C$DW$394, DW_AT_location[DW_OP_regx 0x2b]
    4850              
    4851              $C$DW$395       .dwtag  DW_TAG_TI_assign_register
    4852                      .dwattr $C$DW$395, DW_AT_name("R0H")
    4853                      .dwattr $C$DW$395, DW_AT_location[DW_OP_regx 0x2c]
    4854              
    4855              $C$DW$396       .dwtag  DW_TAG_TI_assign_register
    4856                      .dwattr $C$DW$396, DW_AT_name("R1HL")
    4857                      .dwattr $C$DW$396, DW_AT_location[DW_OP_regx 0x2f]
    4858              
    4859              $C$DW$397       .dwtag  DW_TAG_TI_assign_register
    4860                      .dwattr $C$DW$397, DW_AT_name("R1H")
    4861                      .dwattr $C$DW$397, DW_AT_location[DW_OP_regx 0x30]
    4862              
    4863              $C$DW$398       .dwtag  DW_TAG_TI_assign_register
    4864                      .dwattr $C$DW$398, DW_AT_name("R2HL")
TMS320C2000 Assembler PC v15.12.1 Sun May 28 10:39:54 2017

Tools Copyright (c) 1996-2015 Texas Instruments Incorporated
F2837xD_sdfm_drivers.asm                                             PAGE   94

    4865                      .dwattr $C$DW$398, DW_AT_location[DW_OP_regx 0x33]
    4866              
    4867              $C$DW$399       .dwtag  DW_TAG_TI_assign_register
    4868                      .dwattr $C$DW$399, DW_AT_name("R2H")
    4869                      .dwattr $C$DW$399, DW_AT_location[DW_OP_regx 0x34]
    4870              
    4871              $C$DW$400       .dwtag  DW_TAG_TI_assign_register
    4872                      .dwattr $C$DW$400, DW_AT_name("R3HL")
    4873                      .dwattr $C$DW$400, DW_AT_location[DW_OP_regx 0x37]
    4874              
    4875              $C$DW$401       .dwtag  DW_TAG_TI_assign_register
    4876                      .dwattr $C$DW$401, DW_AT_name("R3H")
    4877                      .dwattr $C$DW$401, DW_AT_location[DW_OP_regx 0x38]
    4878              
    4879              $C$DW$402       .dwtag  DW_TAG_TI_assign_register
    4880                      .dwattr $C$DW$402, DW_AT_name("R4HL")
    4881                      .dwattr $C$DW$402, DW_AT_location[DW_OP_regx 0x3b]
    4882              
    4883              $C$DW$403       .dwtag  DW_TAG_TI_assign_register
    4884                      .dwattr $C$DW$403, DW_AT_name("R4H")
    4885                      .dwattr $C$DW$403, DW_AT_location[DW_OP_regx 0x3c]
    4886              
    4887              $C$DW$404       .dwtag  DW_TAG_TI_assign_register
    4888                      .dwattr $C$DW$404, DW_AT_name("R5HL")
    4889                      .dwattr $C$DW$404, DW_AT_location[DW_OP_regx 0x3f]
    4890              
    4891              $C$DW$405       .dwtag  DW_TAG_TI_assign_register
    4892                      .dwattr $C$DW$405, DW_AT_name("R5H")
    4893                      .dwattr $C$DW$405, DW_AT_location[DW_OP_regx 0x40]
    4894              
    4895              $C$DW$406       .dwtag  DW_TAG_TI_assign_register
    4896                      .dwattr $C$DW$406, DW_AT_name("R6HL")
    4897                      .dwattr $C$DW$406, DW_AT_location[DW_OP_regx 0x43]
    4898              
    4899              $C$DW$407       .dwtag  DW_TAG_TI_assign_register
    4900                      .dwattr $C$DW$407, DW_AT_name("R6H")
    4901                      .dwattr $C$DW$407, DW_AT_location[DW_OP_regx 0x44]
    4902              
    4903              $C$DW$408       .dwtag  DW_TAG_TI_assign_register
    4904                      .dwattr $C$DW$408, DW_AT_name("R7HL")
    4905                      .dwattr $C$DW$408, DW_AT_location[DW_OP_regx 0x47]
    4906              
    4907              $C$DW$409       .dwtag  DW_TAG_TI_assign_register
    4908                      .dwattr $C$DW$409, DW_AT_name("R7H")
    4909                      .dwattr $C$DW$409, DW_AT_location[DW_OP_regx 0x48]
    4910              
    4911              $C$DW$410       .dwtag  DW_TAG_TI_assign_register
    4912                      .dwattr $C$DW$410, DW_AT_name("RBL")
    4913                      .dwattr $C$DW$410, DW_AT_location[DW_OP_regx 0x49]
    4914              
    4915              $C$DW$411       .dwtag  DW_TAG_TI_assign_register
    4916                      .dwattr $C$DW$411, DW_AT_name("RB")
    4917                      .dwattr $C$DW$411, DW_AT_location[DW_OP_regx 0x4a]
    4918              
    4919              $C$DW$412       .dwtag  DW_TAG_TI_assign_register
TMS320C2000 Assembler PC v15.12.1 Sun May 28 10:39:54 2017

Tools Copyright (c) 1996-2015 Texas Instruments Incorporated
F2837xD_sdfm_drivers.asm                                             PAGE   95

    4920                      .dwattr $C$DW$412, DW_AT_name("STFL")
    4921                      .dwattr $C$DW$412, DW_AT_location[DW_OP_regx 0x27]
    4922              
    4923              $C$DW$413       .dwtag  DW_TAG_TI_assign_register
    4924                      .dwattr $C$DW$413, DW_AT_name("STF")
    4925                      .dwattr $C$DW$413, DW_AT_location[DW_OP_regx 0x28]
    4926              
    4927              $C$DW$414       .dwtag  DW_TAG_TI_assign_register
    4928                      .dwattr $C$DW$414, DW_AT_name("FPUHAZ")
    4929                      .dwattr $C$DW$414, DW_AT_location[DW_OP_reg27]
    4930              
    4931                      .dwendtag $C$DW$CU
    4932              

No Assembly Errors, No Assembly Warnings
