TMS320C2000 Assembler PC v15.12.1 Tue Jul 04 10:45:52 2017

Tools Copyright (c) 1996-2015 Texas Instruments Incorporated
resolver.asm                                                         PAGE    1

       1              ;***************************************************************
       2              ;* TMS320C2000 C/C++ Codegen                   PC v15.12.1.LTS *
       3              ;* Date/Time created: Tue Jul 04 10:45:52 2017                 *
       4              ;***************************************************************
       5                      .compiler_opts --abi=coffabi --cla_support=cla0 --float_support=fpu32 --hll_source=on --mem_model:cod
       6        0002  FP      .set    XAR2
       7              
       8              $C$DW$CU        .dwtag  DW_TAG_compile_unit
       9                      .dwattr $C$DW$CU, DW_AT_name("../resolver.c")
      10                      .dwattr $C$DW$CU, DW_AT_producer("TI TMS320C2000 C/C++ Codegen PC v15.12.1.LTS Copyright (c) 1996-201
      11                      .dwattr $C$DW$CU, DW_AT_TI_version(0x01)
      12                      .dwattr $C$DW$CU, DW_AT_comp_dir("C:\Users\Keith\Documents\GitHub\ElectricSkateboard\Software\IDDK_PM
      13              ;**************************************************************
      14              ;* CINIT RECORDS                                              *
      15              ;**************************************************************
      16 00000000               .sect   ".cinit"
      17                      .align  1
      18 00000000 FFFE          .field          -2,16
      19 00000001 0000-         .field          _resMagMax+0,32
         00000002 0000 
      20 00000003 FFFE          .bits   -2,32                   ; _resMagMax @ 0
         00000004 FFFF 
      21              
      22 00000005               .sect   ".cinit"
      23                      .align  1
      24 00000005 FFFE          .field          -2,16
      25 00000006 0002-         .field          _resetAll+0,32
         00000007 0000 
      26 00000008 0000          .bits   0,32                    ; _resetAll @ 0
         00000009 0000 
      27              
      28 0000000a               .sect   ".cinit"
      29                      .align  1
      30 0000000a FFFE          .field          -2,16
      31 0000000b 0004-         .field          _DOS_ERROR+0,32
         0000000c 0000 
      32 0000000d 0000          .bits   0,32                    ; _DOS_ERROR @ 0
         0000000e 0000 
      33              
      34 0000000f               .sect   ".cinit"
      35                      .align  1
      36 0000000f FFFE          .field          -2,16
      37 00000010 0006-         .field          _resMagMin+0,32
         00000011 0000 
      38 00000012 0002          .bits   2,32                    ; _resMagMin @ 0
         00000013 0000 
      39              
      40 00000014               .sect   ".cinit"
      41                      .align  1
      42 00000014 FFFE          .field          -2,16
      43 00000015 0008-         .field          _testCntr+0,32
         00000016 0000 
      44 00000017 0000          .bits   0,32                    ; _testCntr @ 0
         00000018 0000 
      45              
TMS320C2000 Assembler PC v15.12.1 Tue Jul 04 10:45:52 2017

Tools Copyright (c) 1996-2015 Texas Instruments Incorporated
resolver.asm                                                         PAGE    2

      46 00000019               .sect   ".cinit"
      47                      .align  1
      48 00000019 FFFE          .field          -2,16
      49 0000001a 000C-         .field          _testAngleMax+0,32
         0000001b 0000 
      50 0000001c CCCD          .xfloat $strtod("0x1.99999ap-1")                ; _testAngleMax @ 0
         0000001d 3F4C 
      51              
      52 0000001e               .sect   ".cinit"
      53                      .align  1
      54 0000001e FFFE          .field          -2,16
      55 0000001f 000E-         .field          _testCntMax+0,32
         00000020 0000 
      56 00000021 03E8          .bits   1000,32                 ; _testCntMax @ 0
         00000022 0000 
      57              
      58 00000023               .sect   ".cinit"
      59                      .align  1
      60 00000023 FFFE          .field          -2,16
      61 00000024 0010-         .field          _skipLosCnt+0,32
         00000025 0000 
      62 00000026 0000          .bits   0,32                    ; _skipLosCnt @ 0
         00000027 0000 
      63              
      64 00000028               .sect   ".cinit"
      65                      .align  1
      66 00000028 FFFE          .field          -2,16
      67 00000029 0012-         .field          _losLimit+0,32
         0000002a 0000 
      68 0000002b 0000          .bits   0,32                    ; _losLimit @ 0
         0000002c 0000 
      69              
      70 0000002d               .sect   ".cinit"
      71                      .align  1
      72 0000002d FFFE          .field          -2,16
      73 0000002e 0014-         .field          _angleErrMax+0,32
         0000002f 0000 
      74 00000030 0000          .bits   0,32                    ; _angleErrMax @ 0
         00000031 0000 
      75              
      76 00000032               .sect   ".cinit"
      77                      .align  1
      78 00000032 FFFE          .field          -2,16
      79 00000033 0016-         .field          _skipLosPrd+0,32
         00000034 0000 
      80 00000035 0064          .bits   100,32                  ; _skipLosPrd @ 0
         00000036 0000 
      81              
      82 00000037               .sect   ".cinit"
      83                      .align  1
      84 00000037 FFFE          .field          -2,16
      85 00000038 0018-         .field          _PLL_ERROR+0,32
         00000039 0000 
      86 0000003a 0000          .bits   0,32                    ; _PLL_ERROR @ 0
         0000003b 0000 
TMS320C2000 Assembler PC v15.12.1 Tue Jul 04 10:45:52 2017

Tools Copyright (c) 1996-2015 Texas Instruments Incorporated
resolver.asm                                                         PAGE    3

      87              
      88 0000003c               .sect   ".cinit"
      89                      .align  1
      90 0000003c FFFE          .field          -2,16
      91 0000003d 001A-         .field          _LOS_ERROR+0,32
         0000003e 0000 
      92 0000003f 0000          .bits   0,32                    ; _LOS_ERROR @ 0
         00000040 0000 
      93              
      94 00000041               .sect   ".cinit"
      95                      .align  1
      96 00000041 FFFE          .field          -2,16
      97 00000042 001C-         .field          _dosLimit+0,32
         00000043 0000 
      98 00000044 0000          .bits   0,32                    ; _dosLimit @ 0
         00000045 0000 
      99              
     100 00000046               .sect   ".cinit"
     101                      .align  1
     102 00000046 FFFE          .field          -2,16
     103 00000047 0022-         .field          _sineTable+0,32
         00000048 0000 
     104 00000049 0040-         .bits   _SINE_TABLE,32          ; _sineTable @ 0
         0000004a 0000 
     105              
     106 0000004b               .sect   ".cinit"
     107                      .align  1
     108 0000004b FFFE          .field          -2,16
     109 0000004c 0028-         .field          _firCoeff+0,32
         0000004d 0000 
     110 0000004e 00C0-         .bits   _FIR_COEFF,32           ; _firCoeff @ 0
         0000004f 0000 
     111              
     112 00000050               .sect   ".cinit"
     113                      .align  1
     114 00000050 FFE0          .field          -$C$IR_1,16
     115 00000051 0040-         .field          _SINE_TABLE+0,32
         00000052 0000 
     116 00000053 0800          .bits   2048,32                 ; _SINE_TABLE[0] @ 0
         00000054 0000 
     117 00000055 0958          .bits   2392,32                 ; _SINE_TABLE[1] @ 32
         00000056 0000 
     118 00000057 0A7C          .bits   2684,32                 ; _SINE_TABLE[2] @ 64
         00000058 0000 
     119 00000059 0B3F          .bits   2879,32                 ; _SINE_TABLE[3] @ 96
         0000005a 0000 
     120 0000005b 0B84          .bits   2948,32                 ; _SINE_TABLE[4] @ 128
         0000005c 0000 
     121 0000005d 0B3F          .bits   2879,32                 ; _SINE_TABLE[5] @ 160
         0000005e 0000 
     122 0000005f 0A7C          .bits   2684,32                 ; _SINE_TABLE[6] @ 192
         00000060 0000 
     123 00000061 0958          .bits   2392,32                 ; _SINE_TABLE[7] @ 224
         00000062 0000 
     124 00000063 0800          .bits   2048,32                 ; _SINE_TABLE[8] @ 256
TMS320C2000 Assembler PC v15.12.1 Tue Jul 04 10:45:52 2017

Tools Copyright (c) 1996-2015 Texas Instruments Incorporated
resolver.asm                                                         PAGE    4

         00000064 0000 
     125 00000065 06A7          .bits   1703,32                 ; _SINE_TABLE[9] @ 288
         00000066 0000 
     126 00000067 0583          .bits   1411,32                 ; _SINE_TABLE[10] @ 320
         00000068 0000 
     127 00000069 04C0          .bits   1216,32                 ; _SINE_TABLE[11] @ 352
         0000006a 0000 
     128 0000006b 047C          .bits   1148,32                 ; _SINE_TABLE[12] @ 384
         0000006c 0000 
     129 0000006d 04C0          .bits   1216,32                 ; _SINE_TABLE[13] @ 416
         0000006e 0000 
     130 0000006f 0583          .bits   1411,32                 ; _SINE_TABLE[14] @ 448
         00000070 0000 
     131 00000071 06A7          .bits   1703,32                 ; _SINE_TABLE[15] @ 480
         00000072 0000 
     132        0020  $C$IR_1:        .set    32
     133              
     134 00000073               .sect   ".cinit"
     135                      .align  1
     136 00000073 FFDE          .field          -$C$IR_2,16
     137 00000074 00C0-         .field          _FIR_COEFF+0,32
         00000075 0000 
     138 00000076 0EF0          .xfloat $strtod("-0x1.541dep-4")                ; _FIR_COEFF[0] @ 0
         00000077 BDAA 
     139 00000078 BD38          .xfloat $strtod("-0x1.5d7a7p-4")                ; _FIR_COEFF[1] @ 32
         00000079 BDAE 
     140 0000007a D6E0          .xfloat $strtod("-0x1.27adcp-4")                ; _FIR_COEFF[2] @ 64
         0000007b BD93 
     141 0000007c 7A31          .xfloat $strtod("-0x1.66f462p-5")               ; _FIR_COEFF[3] @ 96
         0000007d BD33 
     142 0000007e 2CAD          .xfloat $strtod("-0x1.0a595ap-8")               ; _FIR_COEFF[4] @ 128
         0000007f BB85 
     143 00000080 8A14          .xfloat $strtod("0x1.491428p-5")                ; _FIR_COEFF[5] @ 160
         00000081 3D24 
     144 00000082 A34C          .xfloat $strtod("0x1.494698p-4")                ; _FIR_COEFF[6] @ 192
         00000083 3DA4 
     145 00000084 1B6E          .xfloat $strtod("0x1.bc36dcp-4")                ; _FIR_COEFF[7] @ 224
         00000085 3DDE 
     146 00000086 B62F          .xfloat $strtod("0x1.e56c5ep-4")                ; _FIR_COEFF[8] @ 256
         00000087 3DF2 
     147 00000088 1B6E          .xfloat $strtod("0x1.bc36dcp-4")                ; _FIR_COEFF[9] @ 288
         00000089 3DDE 
     148 0000008a A34C          .xfloat $strtod("0x1.494698p-4")                ; _FIR_COEFF[10] @ 320
         0000008b 3DA4 
     149 0000008c 8A14          .xfloat $strtod("0x1.491428p-5")                ; _FIR_COEFF[11] @ 352
         0000008d 3D24 
     150 0000008e 2CAD          .xfloat $strtod("-0x1.0a595ap-8")               ; _FIR_COEFF[12] @ 384
         0000008f BB85 
     151 00000090 7A31          .xfloat $strtod("-0x1.66f462p-5")               ; _FIR_COEFF[13] @ 416
         00000091 BD33 
     152 00000092 D6E0          .xfloat $strtod("-0x1.27adcp-4")                ; _FIR_COEFF[14] @ 448
         00000093 BD93 
     153 00000094 BD38          .xfloat $strtod("-0x1.5d7a7p-4")                ; _FIR_COEFF[15] @ 480
         00000095 BDAE 
     154 00000096 0EF0          .xfloat $strtod("-0x1.541dep-4")                ; _FIR_COEFF[16] @ 512
TMS320C2000 Assembler PC v15.12.1 Tue Jul 04 10:45:52 2017

Tools Copyright (c) 1996-2015 Texas Instruments Incorporated
resolver.asm                                                         PAGE    5

         00000097 BDAA 
     155        0022  $C$IR_2:        .set    34
     156              
     157              
     158              $C$DW$1 .dwtag  DW_TAG_subprogram
     159                      .dwattr $C$DW$1, DW_AT_name("__builtin_abs")
     160                      .dwattr $C$DW$1, DW_AT_TI_symbol_name("___builtin_abs")
     161                      .dwattr $C$DW$1, DW_AT_type(*$C$DW$T$10)
     162                      .dwattr $C$DW$1, DW_AT_declaration
     163                      .dwattr $C$DW$1, DW_AT_external
     164              $C$DW$2 .dwtag  DW_TAG_formal_parameter
     165                      .dwattr $C$DW$2, DW_AT_type(*$C$DW$T$10)
     166              
     167                      .dwendtag $C$DW$1
     168              
     169              
     170              $C$DW$3 .dwtag  DW_TAG_subprogram
     171                      .dwattr $C$DW$3, DW_AT_name("resolver_algo_Float")
     172                      .dwattr $C$DW$3, DW_AT_TI_symbol_name("_resolver_algo_Float")
     173                      .dwattr $C$DW$3, DW_AT_type(*$C$DW$T$238)
     174                      .dwattr $C$DW$3, DW_AT_declaration
     175                      .dwattr $C$DW$3, DW_AT_external
     176                      .dwendtag $C$DW$3
     177              
     178              
     179              $C$DW$4 .dwtag  DW_TAG_subprogram
     180                      .dwattr $C$DW$4, DW_AT_name("abs")
     181                      .dwattr $C$DW$4, DW_AT_TI_symbol_name("_abs")
     182                      .dwattr $C$DW$4, DW_AT_type(*$C$DW$T$10)
     183                      .dwattr $C$DW$4, DW_AT_declaration
     184                      .dwattr $C$DW$4, DW_AT_external
     185              $C$DW$5 .dwtag  DW_TAG_formal_parameter
     186                      .dwattr $C$DW$5, DW_AT_type(*$C$DW$T$10)
     187              
     188                      .dwendtag $C$DW$4
     189              
     190                      .global _resMagMax
     191 00000000       _resMagMax:     .usect  ".ebss",2,1,1
     192              $C$DW$6 .dwtag  DW_TAG_variable
     193                      .dwattr $C$DW$6, DW_AT_name("resMagMax")
     194                      .dwattr $C$DW$6, DW_AT_TI_symbol_name("_resMagMax")
     195                      .dwattr $C$DW$6, DW_AT_location[DW_OP_addr _resMagMax]
     196                      .dwattr $C$DW$6, DW_AT_type(*$C$DW$T$21)
     197                      .dwattr $C$DW$6, DW_AT_external
     198              
     199                      .global _resetAll
     200 00000002       _resetAll:      .usect  ".ebss",2,1,1
     201              $C$DW$7 .dwtag  DW_TAG_variable
     202                      .dwattr $C$DW$7, DW_AT_name("resetAll")
     203                      .dwattr $C$DW$7, DW_AT_TI_symbol_name("_resetAll")
     204                      .dwattr $C$DW$7, DW_AT_location[DW_OP_addr _resetAll]
     205                      .dwattr $C$DW$7, DW_AT_type(*$C$DW$T$21)
     206                      .dwattr $C$DW$7, DW_AT_external
     207              
     208                      .global _DOS_ERROR
TMS320C2000 Assembler PC v15.12.1 Tue Jul 04 10:45:52 2017

Tools Copyright (c) 1996-2015 Texas Instruments Incorporated
resolver.asm                                                         PAGE    6

     209 00000004       _DOS_ERROR:     .usect  ".ebss",2,1,1
     210              $C$DW$8 .dwtag  DW_TAG_variable
     211                      .dwattr $C$DW$8, DW_AT_name("DOS_ERROR")
     212                      .dwattr $C$DW$8, DW_AT_TI_symbol_name("_DOS_ERROR")
     213                      .dwattr $C$DW$8, DW_AT_location[DW_OP_addr _DOS_ERROR]
     214                      .dwattr $C$DW$8, DW_AT_type(*$C$DW$T$21)
     215                      .dwattr $C$DW$8, DW_AT_external
     216              
     217                      .global _resMagMin
     218 00000006       _resMagMin:     .usect  ".ebss",2,1,1
     219              $C$DW$9 .dwtag  DW_TAG_variable
     220                      .dwattr $C$DW$9, DW_AT_name("resMagMin")
     221                      .dwattr $C$DW$9, DW_AT_TI_symbol_name("_resMagMin")
     222                      .dwattr $C$DW$9, DW_AT_location[DW_OP_addr _resMagMin]
     223                      .dwattr $C$DW$9, DW_AT_type(*$C$DW$T$21)
     224                      .dwattr $C$DW$9, DW_AT_external
     225              
     226                      .global _testCntr
     227 00000008       _testCntr:      .usect  ".ebss",2,1,1
     228              $C$DW$10        .dwtag  DW_TAG_variable
     229                      .dwattr $C$DW$10, DW_AT_name("testCntr")
     230                      .dwattr $C$DW$10, DW_AT_TI_symbol_name("_testCntr")
     231                      .dwattr $C$DW$10, DW_AT_location[DW_OP_addr _testCntr]
     232                      .dwattr $C$DW$10, DW_AT_type(*$C$DW$T$21)
     233                      .dwattr $C$DW$10, DW_AT_external
     234              
     235                      .global _piconFz
     236 0000000a       _piconFz:       .usect  ".ebss",2,1,1
     237              $C$DW$11        .dwtag  DW_TAG_variable
     238                      .dwattr $C$DW$11, DW_AT_name("piconFz")
     239                      .dwattr $C$DW$11, DW_AT_TI_symbol_name("_piconFz")
     240                      .dwattr $C$DW$11, DW_AT_location[DW_OP_addr _piconFz]
     241                      .dwattr $C$DW$11, DW_AT_type(*$C$DW$T$16)
     242                      .dwattr $C$DW$11, DW_AT_external
     243              
     244                      .global _testAngleMax
     245 0000000c       _testAngleMax:  .usect  ".ebss",2,1,1
     246              $C$DW$12        .dwtag  DW_TAG_variable
     247                      .dwattr $C$DW$12, DW_AT_name("testAngleMax")
     248                      .dwattr $C$DW$12, DW_AT_TI_symbol_name("_testAngleMax")
     249                      .dwattr $C$DW$12, DW_AT_location[DW_OP_addr _testAngleMax]
     250                      .dwattr $C$DW$12, DW_AT_type(*$C$DW$T$16)
     251                      .dwattr $C$DW$12, DW_AT_external
     252              
     253                      .global _testCntMax
     254 0000000e       _testCntMax:    .usect  ".ebss",2,1,1
     255              $C$DW$13        .dwtag  DW_TAG_variable
     256                      .dwattr $C$DW$13, DW_AT_name("testCntMax")
     257                      .dwattr $C$DW$13, DW_AT_TI_symbol_name("_testCntMax")
     258                      .dwattr $C$DW$13, DW_AT_location[DW_OP_addr _testCntMax]
     259                      .dwattr $C$DW$13, DW_AT_type(*$C$DW$T$21)
     260                      .dwattr $C$DW$13, DW_AT_external
     261              
     262                      .global _skipLosCnt
     263 00000010       _skipLosCnt:    .usect  ".ebss",2,1,1
TMS320C2000 Assembler PC v15.12.1 Tue Jul 04 10:45:52 2017

Tools Copyright (c) 1996-2015 Texas Instruments Incorporated
resolver.asm                                                         PAGE    7

     264              $C$DW$14        .dwtag  DW_TAG_variable
     265                      .dwattr $C$DW$14, DW_AT_name("skipLosCnt")
     266                      .dwattr $C$DW$14, DW_AT_TI_symbol_name("_skipLosCnt")
     267                      .dwattr $C$DW$14, DW_AT_location[DW_OP_addr _skipLosCnt]
     268                      .dwattr $C$DW$14, DW_AT_type(*$C$DW$T$21)
     269                      .dwattr $C$DW$14, DW_AT_external
     270              
     271                      .global _losLimit
     272 00000012       _losLimit:      .usect  ".ebss",2,1,1
     273              $C$DW$15        .dwtag  DW_TAG_variable
     274                      .dwattr $C$DW$15, DW_AT_name("losLimit")
     275                      .dwattr $C$DW$15, DW_AT_TI_symbol_name("_losLimit")
     276                      .dwattr $C$DW$15, DW_AT_location[DW_OP_addr _losLimit]
     277                      .dwattr $C$DW$15, DW_AT_type(*$C$DW$T$21)
     278                      .dwattr $C$DW$15, DW_AT_external
     279              
     280                      .global _angleErrMax
     281 00000014       _angleErrMax:   .usect  ".ebss",2,1,1
     282              $C$DW$16        .dwtag  DW_TAG_variable
     283                      .dwattr $C$DW$16, DW_AT_name("angleErrMax")
     284                      .dwattr $C$DW$16, DW_AT_TI_symbol_name("_angleErrMax")
     285                      .dwattr $C$DW$16, DW_AT_location[DW_OP_addr _angleErrMax]
     286                      .dwattr $C$DW$16, DW_AT_type(*$C$DW$T$21)
     287                      .dwattr $C$DW$16, DW_AT_external
     288              
     289                      .global _skipLosPrd
     290 00000016       _skipLosPrd:    .usect  ".ebss",2,1,1
     291              $C$DW$17        .dwtag  DW_TAG_variable
     292                      .dwattr $C$DW$17, DW_AT_name("skipLosPrd")
     293                      .dwattr $C$DW$17, DW_AT_TI_symbol_name("_skipLosPrd")
     294                      .dwattr $C$DW$17, DW_AT_location[DW_OP_addr _skipLosPrd]
     295                      .dwattr $C$DW$17, DW_AT_type(*$C$DW$T$21)
     296                      .dwattr $C$DW$17, DW_AT_external
     297              
     298                      .global _PLL_ERROR
     299 00000018       _PLL_ERROR:     .usect  ".ebss",2,1,1
     300              $C$DW$18        .dwtag  DW_TAG_variable
     301                      .dwattr $C$DW$18, DW_AT_name("PLL_ERROR")
     302                      .dwattr $C$DW$18, DW_AT_TI_symbol_name("_PLL_ERROR")
     303                      .dwattr $C$DW$18, DW_AT_location[DW_OP_addr _PLL_ERROR]
     304                      .dwattr $C$DW$18, DW_AT_type(*$C$DW$T$21)
     305                      .dwattr $C$DW$18, DW_AT_external
     306              
     307                      .global _LOS_ERROR
     308 0000001a       _LOS_ERROR:     .usect  ".ebss",2,1,1
     309              $C$DW$19        .dwtag  DW_TAG_variable
     310                      .dwattr $C$DW$19, DW_AT_name("LOS_ERROR")
     311                      .dwattr $C$DW$19, DW_AT_TI_symbol_name("_LOS_ERROR")
     312                      .dwattr $C$DW$19, DW_AT_location[DW_OP_addr _LOS_ERROR]
     313                      .dwattr $C$DW$19, DW_AT_type(*$C$DW$T$21)
     314                      .dwattr $C$DW$19, DW_AT_external
     315              
     316                      .global _dosLimit
     317 0000001c       _dosLimit:      .usect  ".ebss",2,1,1
     318              $C$DW$20        .dwtag  DW_TAG_variable
TMS320C2000 Assembler PC v15.12.1 Tue Jul 04 10:45:52 2017

Tools Copyright (c) 1996-2015 Texas Instruments Incorporated
resolver.asm                                                         PAGE    8

     319                      .dwattr $C$DW$20, DW_AT_name("dosLimit")
     320                      .dwattr $C$DW$20, DW_AT_TI_symbol_name("_dosLimit")
     321                      .dwattr $C$DW$20, DW_AT_location[DW_OP_addr _dosLimit]
     322                      .dwattr $C$DW$20, DW_AT_type(*$C$DW$T$21)
     323                      .dwattr $C$DW$20, DW_AT_external
     324              
     325                      .global _offsetFc
     326 0000001e       _offsetFc:      .usect  ".ebss",2,1,1
     327              $C$DW$21        .dwtag  DW_TAG_variable
     328                      .dwattr $C$DW$21, DW_AT_name("offsetFc")
     329                      .dwattr $C$DW$21, DW_AT_TI_symbol_name("_offsetFc")
     330                      .dwattr $C$DW$21, DW_AT_location[DW_OP_addr _offsetFc]
     331                      .dwattr $C$DW$21, DW_AT_type(*$C$DW$T$16)
     332                      .dwattr $C$DW$21, DW_AT_external
     333              
     334                      .global _offsetWfT
     335 00000020       _offsetWfT:     .usect  ".ebss",2,1,1
     336              $C$DW$22        .dwtag  DW_TAG_variable
     337                      .dwattr $C$DW$22, DW_AT_name("offsetWfT")
     338                      .dwattr $C$DW$22, DW_AT_TI_symbol_name("_offsetWfT")
     339                      .dwattr $C$DW$22, DW_AT_location[DW_OP_addr _offsetWfT]
     340                      .dwattr $C$DW$22, DW_AT_type(*$C$DW$T$16)
     341                      .dwattr $C$DW$22, DW_AT_external
     342              
     343                      .global _sineTable
     344 00000022       _sineTable:     .usect  ".ebss",2,1,1
     345              $C$DW$23        .dwtag  DW_TAG_variable
     346                      .dwattr $C$DW$23, DW_AT_name("sineTable")
     347                      .dwattr $C$DW$23, DW_AT_TI_symbol_name("_sineTable")
     348                      .dwattr $C$DW$23, DW_AT_location[DW_OP_addr _sineTable]
     349                      .dwattr $C$DW$23, DW_AT_type(*$C$DW$T$244)
     350                      .dwattr $C$DW$23, DW_AT_external
     351              
     352                      .global _rslvrKp
     353 00000024       _rslvrKp:       .usect  ".ebss",2,1,1
     354              $C$DW$24        .dwtag  DW_TAG_variable
     355                      .dwattr $C$DW$24, DW_AT_name("rslvrKp")
     356                      .dwattr $C$DW$24, DW_AT_TI_symbol_name("_rslvrKp")
     357                      .dwattr $C$DW$24, DW_AT_location[DW_OP_addr _rslvrKp]
     358                      .dwattr $C$DW$24, DW_AT_type(*$C$DW$T$16)
     359                      .dwattr $C$DW$24, DW_AT_external
     360              
     361                      .global _dos
     362 00000026       _dos:   .usect  ".ebss",2,1,1
     363              $C$DW$25        .dwtag  DW_TAG_variable
     364                      .dwattr $C$DW$25, DW_AT_name("dos")
     365                      .dwattr $C$DW$25, DW_AT_TI_symbol_name("_dos")
     366                      .dwattr $C$DW$25, DW_AT_location[DW_OP_addr _dos]
     367                      .dwattr $C$DW$25, DW_AT_type(*$C$DW$T$21)
     368                      .dwattr $C$DW$25, DW_AT_external
     369              
     370                      .global _firCoeff
     371 00000028       _firCoeff:      .usect  ".ebss",2,1,1
     372              $C$DW$26        .dwtag  DW_TAG_variable
     373                      .dwattr $C$DW$26, DW_AT_name("firCoeff")
TMS320C2000 Assembler PC v15.12.1 Tue Jul 04 10:45:52 2017

Tools Copyright (c) 1996-2015 Texas Instruments Incorporated
resolver.asm                                                         PAGE    9

     374                      .dwattr $C$DW$26, DW_AT_TI_symbol_name("_firCoeff")
     375                      .dwattr $C$DW$26, DW_AT_location[DW_OP_addr _firCoeff]
     376                      .dwattr $C$DW$26, DW_AT_type(*$C$DW$T$246)
     377                      .dwattr $C$DW$26, DW_AT_external
     378              
     379                      .global _errorFc
     380 0000002a       _errorFc:       .usect  ".ebss",2,1,1
     381              $C$DW$27        .dwtag  DW_TAG_variable
     382                      .dwattr $C$DW$27, DW_AT_name("errorFc")
     383                      .dwattr $C$DW$27, DW_AT_TI_symbol_name("_errorFc")
     384                      .dwattr $C$DW$27, DW_AT_location[DW_OP_addr _errorFc]
     385                      .dwattr $C$DW$27, DW_AT_type(*$C$DW$T$16)
     386                      .dwattr $C$DW$27, DW_AT_external
     387              
     388              $C$DW$28        .dwtag  DW_TAG_variable
     389                      .dwattr $C$DW$28, DW_AT_name("DacaRegs")
     390                      .dwattr $C$DW$28, DW_AT_TI_symbol_name("_DacaRegs")
     391                      .dwattr $C$DW$28, DW_AT_type(*$C$DW$T$229)
     392                      .dwattr $C$DW$28, DW_AT_declaration
     393                      .dwattr $C$DW$28, DW_AT_external
     394              
     395                      .global _rslvrIn
     396 0000002c       _rslvrIn:       .usect  ".ebss",20,1,1
     397              $C$DW$29        .dwtag  DW_TAG_variable
     398                      .dwattr $C$DW$29, DW_AT_name("rslvrIn")
     399                      .dwattr $C$DW$29, DW_AT_TI_symbol_name("_rslvrIn")
     400                      .dwattr $C$DW$29, DW_AT_location[DW_OP_addr _rslvrIn]
     401                      .dwattr $C$DW$29, DW_AT_type(*$C$DW$T$223)
     402                      .dwattr $C$DW$29, DW_AT_external
     403              
     404              $C$DW$30        .dwtag  DW_TAG_variable
     405                      .dwattr $C$DW$30, DW_AT_name("AdcdResultRegs")
     406                      .dwattr $C$DW$30, DW_AT_TI_symbol_name("_AdcdResultRegs")
     407                      .dwattr $C$DW$30, DW_AT_type(*$C$DW$T$228)
     408                      .dwattr $C$DW$30, DW_AT_declaration
     409                      .dwattr $C$DW$30, DW_AT_external
     410              
     411              $C$DW$31        .dwtag  DW_TAG_variable
     412                      .dwattr $C$DW$31, DW_AT_name("AdccResultRegs")
     413                      .dwattr $C$DW$31, DW_AT_TI_symbol_name("_AdccResultRegs")
     414                      .dwattr $C$DW$31, DW_AT_type(*$C$DW$T$228)
     415                      .dwattr $C$DW$31, DW_AT_declaration
     416                      .dwattr $C$DW$31, DW_AT_external
     417              
     418              $C$DW$32        .dwtag  DW_TAG_variable
     419                      .dwattr $C$DW$32, DW_AT_name("PieCtrlRegs")
     420                      .dwattr $C$DW$32, DW_AT_TI_symbol_name("_PieCtrlRegs")
     421                      .dwattr $C$DW$32, DW_AT_type(*$C$DW$T$232)
     422                      .dwattr $C$DW$32, DW_AT_declaration
     423                      .dwattr $C$DW$32, DW_AT_external
     424              
     425                      .global _SINE_TABLE
     426 00000040       _SINE_TABLE:    .usect  ".ebss",32,1,1
     427              $C$DW$33        .dwtag  DW_TAG_variable
     428                      .dwattr $C$DW$33, DW_AT_name("SINE_TABLE")
TMS320C2000 Assembler PC v15.12.1 Tue Jul 04 10:45:52 2017

Tools Copyright (c) 1996-2015 Texas Instruments Incorporated
resolver.asm                                                         PAGE   10

     429                      .dwattr $C$DW$33, DW_AT_TI_symbol_name("_SINE_TABLE")
     430                      .dwattr $C$DW$33, DW_AT_location[DW_OP_addr _SINE_TABLE]
     431                      .dwattr $C$DW$33, DW_AT_type(*$C$DW$T$243)
     432                      .dwattr $C$DW$33, DW_AT_external
     433              
     434                      .global _rslvrOut
     435 00000080       _rslvrOut:      .usect  ".ebss",34,1,1
     436              $C$DW$34        .dwtag  DW_TAG_variable
     437                      .dwattr $C$DW$34, DW_AT_name("rslvrOut")
     438                      .dwattr $C$DW$34, DW_AT_TI_symbol_name("_rslvrOut")
     439                      .dwattr $C$DW$34, DW_AT_location[DW_OP_addr _rslvrOut]
     440                      .dwattr $C$DW$34, DW_AT_type(*$C$DW$T$224)
     441                      .dwattr $C$DW$34, DW_AT_external
     442              
     443                      .global _FIR_COEFF
     444 000000c0       _FIR_COEFF:     .usect  ".ebss",34,1,1
     445              $C$DW$35        .dwtag  DW_TAG_variable
     446                      .dwattr $C$DW$35, DW_AT_name("FIR_COEFF")
     447                      .dwattr $C$DW$35, DW_AT_TI_symbol_name("_FIR_COEFF")
     448                      .dwattr $C$DW$35, DW_AT_location[DW_OP_addr _FIR_COEFF]
     449                      .dwattr $C$DW$35, DW_AT_type(*$C$DW$T$247)
     450                      .dwattr $C$DW$35, DW_AT_external
     451              
     452              $C$DW$36        .dwtag  DW_TAG_variable
     453                      .dwattr $C$DW$36, DW_AT_name("AdccRegs")
     454                      .dwattr $C$DW$36, DW_AT_TI_symbol_name("_AdccRegs")
     455                      .dwattr $C$DW$36, DW_AT_type(*$C$DW$T$226)
     456                      .dwattr $C$DW$36, DW_AT_declaration
     457                      .dwattr $C$DW$36, DW_AT_external
     458              
     459              ;       C:\ti\ccsv6\tools\compiler\ti-cgt-c2000_15.12.1.LTS\bin\opt2000.exe C:\\Users\\Keith\\AppData\\Local\
     460              ;       C:\ti\ccsv6\tools\compiler\ti-cgt-c2000_15.12.1.LTS\bin\ac2000.exe -@C:\\Users\\Keith\\AppData\\Local
     461 00000000               .sect   ".text"
     462                      .clink
     463                      .global _baseParamsInit
     464              
     465              $C$DW$37        .dwtag  DW_TAG_subprogram
     466                      .dwattr $C$DW$37, DW_AT_name("baseParamsInit")
     467                      .dwattr $C$DW$37, DW_AT_low_pc(_baseParamsInit)
     468                      .dwattr $C$DW$37, DW_AT_high_pc(0x00)
     469                      .dwattr $C$DW$37, DW_AT_TI_symbol_name("_baseParamsInit")
     470                      .dwattr $C$DW$37, DW_AT_external
     471                      .dwattr $C$DW$37, DW_AT_TI_begin_file("../resolver.c")
     472                      .dwattr $C$DW$37, DW_AT_TI_begin_line(0x74)
     473                      .dwattr $C$DW$37, DW_AT_TI_begin_column(0x06)
     474                      .dwattr $C$DW$37, DW_AT_TI_max_frame_size(-6)
     475                      .dwpsn  file "../resolver.c",line 116,column 27,is_stmt,address _baseParamsInit,isa 0
     476              
     477                      .dwfde $C$DW$CIE, _baseParamsInit
     478              
     479              ;***************************************************************
     480              ;* FNAME: _baseParamsInit               FR SIZE:   4           *
     481              ;*                                                             *
     482              ;* FUNCTION ENVIRONMENT                                        *
     483              ;*                                                             *
TMS320C2000 Assembler PC v15.12.1 Tue Jul 04 10:45:52 2017

Tools Copyright (c) 1996-2015 Texas Instruments Incorporated
resolver.asm                                                         PAGE   11

     484              ;* FUNCTION PROPERTIES                                         *
     485              ;*                            0 Parameter,  0 Auto,  4 SOE     *
     486              ;***************************************************************
     487              
     488 00000000       _baseParamsInit:
     489                      .dwcfi  cfa_offset, -2
     490                      .dwcfi  save_reg_to_mem, 26, 0
     491                      .dwpsn  file "../resolver.c",line 118,column 2,is_stmt,isa 0
     492 00000000 E801          MOVIZ     R0H,#14545            ; [CPU_] |118| 
         00000001 C688 
     493 00000002 E203          MOV32     *SP++,R4H             ; [CPU_] 
         00000003 04BD 
     494                      .dwpsn  file "../resolver.c",line 126,column 2,is_stmt,isa 0
     495 00000004 E802          MOVIZ     R1H,#17055            ; [CPU_] |126| 
         00000005 14F9 
     496 00000006 761F-         MOVW      DP,#_rslvrIn+10       ; [CPU_U] 
         00000007 0000 
     497                      .dwpsn  file "../resolver.c",line 127,column 2,is_stmt,isa 0
     498 00000008 E802          MOVIZ     R3H,#17530            ; [CPU_] |127| 
         00000009 23D3 
     499                      .dwpsn  file "../resolver.c",line 128,column 2,is_stmt,isa 0
     500 0000000a E802          MOVIZ     R2H,#17224            ; [CPU_] |128| 
         0000000b 1A42 
     501                      .dwpsn  file "../resolver.c",line 118,column 2,is_stmt,isa 0
     502 0000000c E80D          MOVXI     R0H,#46871            ; [CPU_] |118| 
         0000000d B8B8 
     503 0000000e E203          MOV32     *SP++,R5H             ; [CPU_] 
         0000000f 05BD 
     504                      .dwpsn  file "../resolver.c",line 126,column 2,is_stmt,isa 0
     505 00000010 E809          MOVXI     R1H,#10154            ; [CPU_] |126| 
         00000011 3D51 
     506                      .dwpsn  file "../resolver.c",line 118,column 2,is_stmt,isa 0
     507 00000012 E203-         MOV32     @_rslvrIn+10,R0H      ; [CPU_] |118| 
         00000013 0036 
     508                      .dwpsn  file "../resolver.c",line 123,column 2,is_stmt,isa 0
     509 00000014 E802          MOVIZ     R4H,#17224            ; [CPU_] |123| 
         00000015 1A44 
     510                      .dwpsn  file "../resolver.c",line 122,column 2,is_stmt,isa 0
     511 00000016 E595          ZERO      R5H                   ; [CPU_] |122| 
     512                      .dwpsn  file "../resolver.c",line 119,column 2,is_stmt,isa 0
     513 00000017 56BF-         MOVB      @_rslvrIn+3,#16,UNC   ; [CPU_] |119| 
         00000018 102F 
     514                      .dwpsn  file "../resolver.c",line 127,column 2,is_stmt,isa 0
     515 00000019 E203-         MOV32     @_errorFc,R3H         ; [CPU_] |127| 
         0000001a 032A 
     516                      .dwpsn  file "../resolver.c",line 128,column 2,is_stmt,isa 0
     517 0000001b E203-         MOV32     @_piconFz,R2H         ; [CPU_] |128| 
         0000001c 020A 
     518                      .dwpsn  file "../resolver.c",line 129,column 2,is_stmt,isa 0
     519 0000001d E802          MOVIZ     R0H,#17820            ; [CPU_] |129| 
         0000001e 2CE0 
     520                      .dwpsn  file "../resolver.c",line 120,column 2,is_stmt,isa 0
     521 0000001f 2B2E-         MOV       @_rslvrIn+2,#0        ; [CPU_] |120| 
     522                      .dwpsn  file "../resolver.c",line 126,column 2,is_stmt,isa 0
     523 00000020 E203-         MOV32     @_offsetFc,R1H        ; [CPU_] |126| 
TMS320C2000 Assembler PC v15.12.1 Tue Jul 04 10:45:52 2017

Tools Copyright (c) 1996-2015 Texas Instruments Incorporated
resolver.asm                                                         PAGE   12

         00000021 011E 
     524                      .dwpsn  file "../resolver.c",line 129,column 2,is_stmt,isa 0
     525 00000022 E80A          MOVXI     R0H,#16384            ; [CPU_] |129| 
         00000023 0000 
     526                      .dwpsn  file "../resolver.c",line 121,column 2,is_stmt,isa 0
     527 00000024 2B2D-         MOV       @_rslvrIn+1,#0        ; [CPU_] |121| 
     528                      .dwpsn  file "../resolver.c",line 129,column 2,is_stmt,isa 0
     529 00000025 E203-         MOV32     @_rslvrKp,R0H         ; [CPU_] |129| 
         00000026 0024 
     530                      .dwpsn  file "../resolver.c",line 122,column 2,is_stmt,isa 0
     531 00000027 E203-         MOV32     @_rslvrIn+8,R5H       ; [CPU_] |122| 
         00000028 0534 
     532                      .dwpsn  file "../resolver.c",line 123,column 2,is_stmt,isa 0
     533 00000029 E203-         MOV32     @_rslvrIn+18,R4H      ; [CPU_] |123| 
         0000002a 043E 
     534                      .dwpsn  file "../resolver.c",line 124,column 2,is_stmt,isa 0
     535 0000002b 56BF-         MOVB      @_rslvrIn,#3,UNC      ; [CPU_] |124| 
         0000002c 032C 
     536 0000002d E2AF          MOV32     R5H,*--SP             ; [CPU_] 
         0000002e 05BE 
     537 0000002f E2AF          MOV32     R4H,*--SP             ; [CPU_] 
         00000030 04BE 
     538              $C$DW$38        .dwtag  DW_TAG_TI_branch
     539                      .dwattr $C$DW$38, DW_AT_low_pc(0x00)
     540                      .dwattr $C$DW$38, DW_AT_TI_return
     541              
     542 00000031 0006          LRETR     ; [CPU_] 
     543                      ; return occurs ; [] 
     544                      .dwattr $C$DW$37, DW_AT_TI_end_file("../resolver.c")
     545                      .dwattr $C$DW$37, DW_AT_TI_end_line(0x84)
     546                      .dwattr $C$DW$37, DW_AT_TI_end_column(0x01)
     547                      .dwendentry
     548                      .dwendtag $C$DW$37
     549              
     550 00000032               .sect   ".text"
     551                      .clink
     552                      .global _derivParamsCal
     553              
     554              $C$DW$39        .dwtag  DW_TAG_subprogram
     555                      .dwattr $C$DW$39, DW_AT_name("derivParamsCal")
     556                      .dwattr $C$DW$39, DW_AT_low_pc(_derivParamsCal)
     557                      .dwattr $C$DW$39, DW_AT_high_pc(0x00)
     558                      .dwattr $C$DW$39, DW_AT_TI_symbol_name("_derivParamsCal")
     559                      .dwattr $C$DW$39, DW_AT_external
     560                      .dwattr $C$DW$39, DW_AT_TI_begin_file("../resolver.c")
     561                      .dwattr $C$DW$39, DW_AT_TI_begin_line(0x86)
     562                      .dwattr $C$DW$39, DW_AT_TI_begin_column(0x06)
     563                      .dwattr $C$DW$39, DW_AT_TI_max_frame_size(-2)
     564                      .dwpsn  file "../resolver.c",line 134,column 27,is_stmt,address _derivParamsCal,isa 0
     565              
     566                      .dwfde $C$DW$CIE, _derivParamsCal
     567              
     568              ;***************************************************************
     569              ;* FNAME: _derivParamsCal               FR SIZE:   0           *
     570              ;*                                                             *
TMS320C2000 Assembler PC v15.12.1 Tue Jul 04 10:45:52 2017

Tools Copyright (c) 1996-2015 Texas Instruments Incorporated
resolver.asm                                                         PAGE   13

     571              ;* FUNCTION ENVIRONMENT                                        *
     572              ;*                                                             *
     573              ;* FUNCTION PROPERTIES                                         *
     574              ;*                            0 Parameter,  0 Auto,  0 SOE     *
     575              ;***************************************************************
     576              
     577              _derivParamsCal:
     578              ;* R1HL  assigned to _kiTsBy2
     579              $C$DW$40        .dwtag  DW_TAG_variable
     580                      .dwattr $C$DW$40, DW_AT_name("kiTsBy2")
     581                      .dwattr $C$DW$40, DW_AT_TI_symbol_name("_kiTsBy2")
     582                      .dwattr $C$DW$40, DW_AT_type(*$C$DW$T$16)
     583                      .dwattr $C$DW$40, DW_AT_location[DW_OP_regx 0x2f]
     584              
     585                      .dwcfi  cfa_offset, -2
     586                      .dwcfi  save_reg_to_mem, 26, 0
     587 00000032 761F-         MOVW      DP,#_errorFc          ; [CPU_U] 
         00000033 0000 
     588                      .dwpsn  file "../resolver.c",line 137,column 2,is_stmt,isa 0
     589 00000034 E802          MOVIZ     R1H,#16585            ; [CPU_] |137| 
         00000035 0649 
     590                      .dwpsn  file "../resolver.c",line 139,column 2,is_stmt,isa 0
     591 00000036 E802          MOVIZ     R0H,#16585            ; [CPU_] |139| 
         00000037 0648 
     592                      .dwpsn  file "../resolver.c",line 137,column 2,is_stmt,isa 0
     593 00000038 E2AF-         MOV32     R2H,@_errorFc         ; [CPU_] |137| 
         00000039 022A 
     594 0000003a E808          MOVXI     R1H,#4059             ; [CPU_] |137| 
         0000003b 7ED9 
     595              
     596 0000003c E304-         MPYF32    R2H,R1H,R2H           ; [CPU_] |137| 
         0000003d 5336 
     597              ||      MOV32     R3H,@_rslvrIn+10      ; [CPU_] |137| 
     598              
     599                      .dwpsn  file "../resolver.c",line 139,column 2,is_stmt,isa 0
     600 0000003e E808          MOVXI     R0H,#4059             ; [CPU_] |139| 
         0000003f 7ED8 
     601                      .dwpsn  file "../resolver.c",line 137,column 2,is_stmt,isa 0
     602              
     603 00000040 E304-         MPYF32    R2H,R3H,R2H           ; [CPU_] |137| 
         00000041 D10A 
     604              ||      MOV32     R1H,@_piconFz         ; [CPU_] |139| 
     605              
     606                      .dwpsn  file "../resolver.c",line 139,column 2,is_stmt,isa 0
     607 00000042 E700          MPYF32    R0H,R0H,R1H           ; [CPU_] |139| 
         00000043 0040 
     608 00000044 E2AF-         MOV32     R1H,@_rslvrKp         ; [CPU_] |139| 
         00000045 0124 
     609                      .dwpsn  file "../resolver.c",line 137,column 2,is_stmt,isa 0
     610              
     611 00000046 E000-         MPYF32    R1H,R1H,R0H           ; [CPU_] |139| 
         00000047 4A38 
     612              ||      MOV32     @_rslvrIn+12,R2H      ; [CPU_] |137| 
     613              
     614                      .dwpsn  file "../resolver.c",line 139,column 2,is_stmt,isa 0
TMS320C2000 Assembler PC v15.12.1 Tue Jul 04 10:45:52 2017

Tools Copyright (c) 1996-2015 Texas Instruments Incorporated
resolver.asm                                                         PAGE   14

     615 00000048 E2AF-         MOV32     R2H,@_rslvrIn+10      ; [CPU_] |139| 
         00000049 0236 
     616              
     617 0000004a E302-         MPYF32    R1H,R2H,R1H           ; [CPU_] |139| 
         0000004b 8824 
     618              ||      MOV32     R0H,@_rslvrKp         ; [CPU_] |141| 
     619              
     620                      .dwpsn  file "../resolver.c",line 141,column 2,is_stmt,isa 0
     621 0000004c E6AF          NEGF32    R0H,R0H               ; [CPU_] |141| 
         0000004d 0000 
     622                      .dwpsn  file "../resolver.c",line 139,column 2,is_stmt,isa 0
     623 0000004e E84F          MPYF32    R1H,R1H,#16128        ; [CPU_] |139| 
         0000004f C009 
     624                      .dwpsn  file "../resolver.c",line 140,column 2,is_stmt,isa 0
     625 00000050 E2AF-         MOV32     R2H,@_rslvrKp         ; [CPU_] |140| 
         00000051 0224 
     626 00000052 E710          ADDF32    R2H,R2H,R1H           ; [CPU_] |140| 
         00000053 0052 
     627                      .dwpsn  file "../resolver.c",line 141,column 2,is_stmt,isa 0
     628 00000054 E710          ADDF32    R0H,R0H,R1H           ; [CPU_] |141| 
         00000055 0040 
     629                      .dwpsn  file "../resolver.c",line 140,column 2,is_stmt,isa 0
     630 00000056 E203-         MOV32     @_rslvrIn+14,R2H      ; [CPU_] |140| 
         00000057 023A 
     631                      .dwpsn  file "../resolver.c",line 141,column 2,is_stmt,isa 0
     632 00000058 E203-         MOV32     @_rslvrIn+16,R0H      ; [CPU_] |141| 
         00000059 003C 
     633              $C$DW$41        .dwtag  DW_TAG_TI_branch
     634                      .dwattr $C$DW$41, DW_AT_low_pc(0x00)
     635                      .dwattr $C$DW$41, DW_AT_TI_return
     636              
     637 0000005a 0006          LRETR     ; [CPU_] 
     638                      ; return occurs ; [] 
     639                      .dwattr $C$DW$39, DW_AT_TI_end_file("../resolver.c")
     640                      .dwattr $C$DW$39, DW_AT_TI_end_line(0x90)
     641                      .dwattr $C$DW$39, DW_AT_TI_end_column(0x01)
     642                      .dwendentry
     643                      .dwendtag $C$DW$39
     644              
     645 0000005b               .sect   ".text"
     646                      .clink
     647                      .global _resolver_PostProcess
     648              
     649              $C$DW$42        .dwtag  DW_TAG_subprogram
     650                      .dwattr $C$DW$42, DW_AT_name("resolver_PostProcess")
     651                      .dwattr $C$DW$42, DW_AT_low_pc(_resolver_PostProcess)
     652                      .dwattr $C$DW$42, DW_AT_high_pc(0x00)
     653                      .dwattr $C$DW$42, DW_AT_TI_symbol_name("_resolver_PostProcess")
     654                      .dwattr $C$DW$42, DW_AT_external
     655                      .dwattr $C$DW$42, DW_AT_TI_begin_file("../resolver.c")
     656                      .dwattr $C$DW$42, DW_AT_TI_begin_line(0x96)
     657                      .dwattr $C$DW$42, DW_AT_TI_begin_column(0x06)
     658                      .dwattr $C$DW$42, DW_AT_TI_max_frame_size(-2)
     659                      .dwpsn  file "../resolver.c",line 151,column 1,is_stmt,address _resolver_PostProcess,isa 0
     660              
TMS320C2000 Assembler PC v15.12.1 Tue Jul 04 10:45:52 2017

Tools Copyright (c) 1996-2015 Texas Instruments Incorporated
resolver.asm                                                         PAGE   15

     661                      .dwfde $C$DW$CIE, _resolver_PostProcess
     662              
     663              ;***************************************************************
     664              ;* FNAME: _resolver_PostProcess         FR SIZE:   0           *
     665              ;*                                                             *
     666              ;* FUNCTION ENVIRONMENT                                        *
     667              ;*                                                             *
     668              ;* FUNCTION PROPERTIES                                         *
     669              ;*                            0 Parameter,  0 Auto,  0 SOE     *
     670              ;***************************************************************
     671              
     672 0000005b       _resolver_PostProcess:
     673              ;* AL    assigned to $O$C1
     674              ;* AL    assigned to $O$C2
     675                      .dwcfi  cfa_offset, -2
     676                      .dwcfi  save_reg_to_mem, 26, 0
     677 0000005b 761F-         MOVW      DP,#_rslvrOut+26      ; [CPU_U] 
         0000005c 0002 
     678                      .dwpsn  file "../resolver.c",line 156,column 5,is_stmt,isa 0
     679 0000005d 061A-         MOVL      ACC,@_rslvrOut+26     ; [CPU_] |156| 
     680 0000005e 761F-         MOVW      DP,#_resMagMax        ; [CPU_U] 
         0000005f 0000 
     681 00000060 0F00-         CMPL      ACC,@_resMagMax       ; [CPU_] |156| 
     682 00000061 6205          B         $C$L1,GT              ; [CPU_] |156| 
     683                      ; branchcc occurs ; [] |156| 
     684                      .dwpsn  file "../resolver.c",line 158,column 10,is_stmt,isa 0
     685 00000062 0F06-         CMPL      ACC,@_resMagMin       ; [CPU_] |158| 
     686 00000063 6304          B         $C$L2,GEQ             ; [CPU_] |158| 
     687                      ; branchcc occurs ; [] |158| 
     688                      .dwpsn  file "../resolver.c",line 159,column 6,is_stmt,isa 0
     689 00000064 1E06-         MOVL      @_resMagMin,ACC       ; [CPU_] |159| 
     690 00000065 6F02          B         $C$L2,UNC             ; [CPU_] |159| 
     691                      ; branch occurs ; [] |159| 
     692 00000066       $C$L1:    
     693                      .dwpsn  file "../resolver.c",line 157,column 6,is_stmt,isa 0
     694 00000066 1E00-         MOVL      @_resMagMax,ACC       ; [CPU_] |157| 
     695 00000067       $C$L2:    
     696                      .dwpsn  file "../resolver.c",line 162,column 5,is_stmt,isa 0
     697 00000067 0600-         MOVL      ACC,@_resMagMax       ; [CPU_] |162| 
     698 00000068 0306-         SUBL      ACC,@_resMagMin       ; [CPU_] |162| 
     699 00000069 1E26-         MOVL      @_dos,ACC             ; [CPU_] |162| 
     700                      .dwpsn  file "../resolver.c",line 163,column 5,is_stmt,isa 0
     701 0000006a 0F1C-         CMPL      ACC,@_dosLimit        ; [CPU_] |163| 
     702 0000006b 6503          B         $C$L3,LEQ             ; [CPU_] |163| 
     703                      ; branchcc occurs ; [] |163| 
     704                      .dwpsn  file "../resolver.c",line 164,column 6,is_stmt,isa 0
     705 0000006c 0201          MOVB      ACC,#1                ; [CPU_] |164| 
     706 0000006d 1E04-         MOVL      @_DOS_ERROR,ACC       ; [CPU_] |164| 
     707 0000006e       $C$L3:    
     708                      .dwpsn  file "../resolver.c",line 167,column 5,is_stmt,isa 0
     709 0000006e 0616-         MOVL      ACC,@_skipLosPrd      ; [CPU_] |167| 
     710 0000006f 0F10-         CMPL      ACC,@_skipLosCnt      ; [CPU_] |167| 
     711 00000070 620B          B         $C$L4,GT              ; [CPU_] |167| 
     712                      ; branchcc occurs ; [] |167| 
     713                      .dwpsn  file "../resolver.c",line 169,column 10,is_stmt,isa 0
TMS320C2000 Assembler PC v15.12.1 Tue Jul 04 10:45:52 2017

Tools Copyright (c) 1996-2015 Texas Instruments Incorporated
resolver.asm                                                         PAGE   16

     714 00000071 0612-         MOVL      ACC,@_losLimit        ; [CPU_] |169| 
     715 00000072 761F-         MOVW      DP,#_rslvrOut+26      ; [CPU_U] 
         00000073 0002 
     716 00000074 0F1A-         CMPL      ACC,@_rslvrOut+26     ; [CPU_] |169| 
     717 00000075 6509          B         $C$L5,LEQ             ; [CPU_] |169| 
     718                      ; branchcc occurs ; [] |169| 
     719                      .dwpsn  file "../resolver.c",line 170,column 6,is_stmt,isa 0
     720 00000076 0201          MOVB      ACC,#1                ; [CPU_] |170| 
     721 00000077 761F-         MOVW      DP,#_LOS_ERROR        ; [CPU_U] 
         00000078 0000 
     722 00000079 1E1A-         MOVL      @_LOS_ERROR,ACC       ; [CPU_] |170| 
     723                      .dwpsn  file "../resolver.c",line 174,column 5,is_stmt,isa 0
     724 0000007a 6F04          B         $C$L5,UNC             ; [CPU_] |174| 
     725                      ; branch occurs ; [] |174| 
     726 0000007b       $C$L4:    
     727                      .dwpsn  file "../resolver.c",line 168,column 7,is_stmt,isa 0
     728 0000007b 0201          MOVB      ACC,#1                ; [CPU_] |168| 
     729 0000007c 5601-         ADDL      @_skipLosCnt,ACC      ; [CPU_] |168| 
         0000007d 0010 
     730 0000007e       $C$L5:    
     731 0000007e 3B01          SETC      SXM                   ; [CPU_] 
     732 0000007f 761F-         MOVW      DP,#_rslvrOut+24      ; [CPU_U] 
         00000080 0002 
     733                      .dwpsn  file "../resolver.c",line 174,column 5,is_stmt,isa 0
     734 00000081 8518-         MOV       ACC,@_rslvrOut+24     ; [CPU_] |174| 
     735 00000082 761F-         MOVW      DP,#_angleErrMax      ; [CPU_U] 
         00000083 0000 
     736 00000084 FF56          ABS       ACC                   ; [CPU_] |174| 
     737 00000085 85A9          MOV       ACC,AL                ; [CPU_] |174| 
     738 00000086 0F14-         CMPL      ACC,@_angleErrMax     ; [CPU_] |174| 
     739 00000087 6503          B         $C$L6,LEQ             ; [CPU_] |174| 
     740                      ; branchcc occurs ; [] |174| 
     741                      .dwpsn  file "../resolver.c",line 175,column 7,is_stmt,isa 0
     742 00000088 0201          MOVB      ACC,#1                ; [CPU_] |175| 
     743 00000089 1E18-         MOVL      @_PLL_ERROR,ACC       ; [CPU_] |175| 
     744 0000008a       $C$L6:    
     745                      .dwpsn  file "../resolver.c",line 178,column 5,is_stmt,isa 0
     746 0000008a 0201          MOVB      ACC,#1                ; [CPU_] |178| 
     747 0000008b 0F02-         CMPL      ACC,@_resetAll        ; [CPU_] |178| 
     748 0000008c 6010          B         $C$L7,NEQ             ; [CPU_] |178| 
     749                      ; branchcc occurs ; [] |178| 
     750                      .dwpsn  file "../resolver.c",line 183,column 6,is_stmt,isa 0
     751 0000008d 3100          MOV       P,#0                  ; [CPU_] |183| 
     752                      .dwpsn  file "../resolver.c",line 185,column 6,is_stmt,isa 0
     753 0000008e 0200          MOVB      ACC,#0                ; [CPU_] |185| 
     754                      .dwpsn  file "../resolver.c",line 180,column 6,is_stmt,isa 0
     755 0000008f D000          MOVB      XAR0,#0               ; [CPU_] |180| 
     756                      .dwpsn  file "../resolver.c",line 181,column 6,is_stmt,isa 0
     757 00000090 D500          MOVB      XAR5,#0               ; [CPU_] |181| 
     758                      .dwpsn  file "../resolver.c",line 182,column 6,is_stmt,isa 0
     759 00000091 D400          MOVB      XAR4,#0               ; [CPU_] |182| 
     760                      .dwpsn  file "../resolver.c",line 184,column 6,is_stmt,isa 0
     761 00000092 B600          MOVB      XAR7,#0               ; [CPU_] |184| 
     762                      .dwpsn  file "../resolver.c",line 186,column 6,is_stmt,isa 0
     763 00000093 BE02          MOVB      XAR6,#2               ; [CPU_] |186| 
TMS320C2000 Assembler PC v15.12.1 Tue Jul 04 10:45:52 2017

Tools Copyright (c) 1996-2015 Texas Instruments Incorporated
resolver.asm                                                         PAGE   17

     764                      .dwpsn  file "../resolver.c",line 183,column 6,is_stmt,isa 0
     765 00000094 A902-         MOVL      @_resetAll,P          ; [CPU_] |183| 
     766                      .dwpsn  file "../resolver.c",line 185,column 6,is_stmt,isa 0
     767 00000095 1902          SUBB      ACC,#2                ; [CPU_] |185| 
     768                      .dwpsn  file "../resolver.c",line 180,column 6,is_stmt,isa 0
     769 00000096 3A04-         MOVL      @_DOS_ERROR,XAR0      ; [CPU_] |180| 
     770                      .dwpsn  file "../resolver.c",line 181,column 6,is_stmt,isa 0
     771 00000097 A01A-         MOVL      @_LOS_ERROR,XAR5      ; [CPU_] |181| 
     772                      .dwpsn  file "../resolver.c",line 182,column 6,is_stmt,isa 0
     773 00000098 A818-         MOVL      @_PLL_ERROR,XAR4      ; [CPU_] |182| 
     774                      .dwpsn  file "../resolver.c",line 184,column 6,is_stmt,isa 0
     775 00000099 C310-         MOVL      @_skipLosCnt,XAR7     ; [CPU_] |184| 
     776                      .dwpsn  file "../resolver.c",line 186,column 6,is_stmt,isa 0
     777 0000009a C206-         MOVL      @_resMagMin,XAR6      ; [CPU_] |186| 
     778                      .dwpsn  file "../resolver.c",line 185,column 6,is_stmt,isa 0
     779 0000009b 1E00-         MOVL      @_resMagMax,ACC       ; [CPU_] |185| 
     780              $C$L7:    
     781              $C$DW$43        .dwtag  DW_TAG_TI_branch
     782                      .dwattr $C$DW$43, DW_AT_low_pc(0x00)
     783                      .dwattr $C$DW$43, DW_AT_TI_return
     784              
     785 0000009c 0006          LRETR     ; [CPU_] 
     786                      ; return occurs ; [] 
     787                      .dwattr $C$DW$42, DW_AT_TI_end_file("../resolver.c")
     788                      .dwattr $C$DW$42, DW_AT_TI_end_line(0xbe)
     789                      .dwattr $C$DW$42, DW_AT_TI_end_column(0x01)
     790                      .dwendentry
     791                      .dwendtag $C$DW$42
     792              
     793 00000000               .sect   ".text:retain"
     794                      .retain
     795                      .retainrefs
     796                      .global _ResolverISR
     797              
     798              $C$DW$44        .dwtag  DW_TAG_subprogram
     799                      .dwattr $C$DW$44, DW_AT_name("ResolverISR")
     800                      .dwattr $C$DW$44, DW_AT_low_pc(_ResolverISR)
     801                      .dwattr $C$DW$44, DW_AT_high_pc(0x00)
     802                      .dwattr $C$DW$44, DW_AT_TI_symbol_name("_ResolverISR")
     803                      .dwattr $C$DW$44, DW_AT_external
     804                      .dwattr $C$DW$44, DW_AT_TI_begin_file("../resolver.c")
     805                      .dwattr $C$DW$44, DW_AT_TI_begin_line(0xc6)
     806                      .dwattr $C$DW$44, DW_AT_TI_begin_column(0x10)
     807                      .dwattr $C$DW$44, DW_AT_TI_interrupt
     808                      .dwattr $C$DW$44, DW_AT_TI_max_frame_size(-28)
     809                      .dwpsn  file "../resolver.c",line 199,column 1,is_stmt,address _ResolverISR,isa 0
     810              
     811                      .dwfde $C$DW$CIE, _ResolverISR
     812              
     813              ;***************************************************************
     814              ;* FNAME: _ResolverISR                  FR SIZE:  26           *
     815              ;*                                                             *
     816              ;* FUNCTION ENVIRONMENT                                        *
     817              ;*                                                             *
     818              ;* FUNCTION PROPERTIES                                         *
TMS320C2000 Assembler PC v15.12.1 Tue Jul 04 10:45:52 2017

Tools Copyright (c) 1996-2015 Texas Instruments Incorporated
resolver.asm                                                         PAGE   18

     819              ;*                            2 Parameter,  0 Auto, 24 SOE     *
     820              ;***************************************************************
     821              
     822 00000000       _ResolverISR:
     823                      .dwcfi  cfa_offset, -2
     824                      .dwcfi  save_reg_to_mem, 26, 0
     825 00000000 761B          ASP       ; [CPU_] 
     826 00000001 FFF0          PUSH      RB                    ; [CPU_] 
     827                      .dwcfi  save_reg_to_mem, 73, 2
     828                      .dwcfi  save_reg_to_mem, 74, 3
     829                      .dwcfi  cfa_offset, -4
     830 00000002 0005          PUSH      AR1H:AR0H             ; [CPU_] 
     831                      .dwcfi  save_reg_to_mem, 5, 4
     832                      .dwcfi  save_reg_to_mem, 7, 5
     833                      .dwcfi  cfa_offset, -6
     834 00000003 ABBD          MOVL      *SP++,XT              ; [CPU_] 
     835                      .dwcfi  save_reg_to_mem, 21, 6
     836                      .dwcfi  save_reg_to_mem, 22, 7
     837                      .dwcfi  cfa_offset, -8
     838 00000004 A8BD          MOVL      *SP++,XAR4            ; [CPU_] 
     839                      .dwcfi  save_reg_to_mem, 12, 8
     840                      .dwcfi  save_reg_to_mem, 13, 9
     841                      .dwcfi  cfa_offset, -10
     842 00000005 A0BD          MOVL      *SP++,XAR5            ; [CPU_] 
     843                      .dwcfi  save_reg_to_mem, 14, 10
     844                      .dwcfi  save_reg_to_mem, 15, 11
     845                      .dwcfi  cfa_offset, -12
     846 00000006 C2BD          MOVL      *SP++,XAR6            ; [CPU_] 
     847                      .dwcfi  save_reg_to_mem, 16, 12
     848                      .dwcfi  save_reg_to_mem, 17, 13
     849                      .dwcfi  cfa_offset, -14
     850 00000007 C3BD          MOVL      *SP++,XAR7            ; [CPU_] 
     851                      .dwcfi  save_reg_to_mem, 18, 14
     852                      .dwcfi  save_reg_to_mem, 19, 15
     853                      .dwcfi  cfa_offset, -16
     854 00000008 E200          MOV32     *SP++,STF             ; [CPU_] 
         00000009 00BD 
     855                      .dwcfi  save_reg_to_mem, 39, 16
     856                      .dwcfi  save_reg_to_mem, 40, 17
     857                      .dwcfi  cfa_offset, -18
     858 0000000a E203          MOV32     *SP++,R0H             ; [CPU_] 
         0000000b 00BD 
     859 0000000c E203          MOV32     *SP++,R1H             ; [CPU_] 
         0000000d 01BD 
     860 0000000e E203          MOV32     *SP++,R2H             ; [CPU_] 
         0000000f 02BD 
     861 00000010 E203          MOV32     *SP++,R3H             ; [CPU_] 
         00000011 03BD 
     862 00000012 E630          SETFLG    RNDF32=1, RNDF64=1    ; [CPU_] 
         00000013 0600 
     863 00000014 FE02          ADDB      SP,#2                 ; [CPU_U] 
     864                      .dwcfi  cfa_offset, -28
     865 00000015 FF69          SPM       0                     ; [CPU_] 
     866 00000016 2942          CLRC      PAGE0,OVM             ; [CPU_] 
     867 00000017 5616          CLRC      AMODE                 ; [CPU_] 
TMS320C2000 Assembler PC v15.12.1 Tue Jul 04 10:45:52 2017

Tools Copyright (c) 1996-2015 Texas Instruments Incorporated
resolver.asm                                                         PAGE   19

     868 00000018 761F-         MOVW      DP,#_rslvrOut+32      ; [CPU_U] 
         00000019 0002 
     869                      .dwpsn  file "../resolver.c",line 201,column 2,is_stmt,isa 0
     870 0000001a 9320-         MOV       AH,@_rslvrOut+32      ; [CPU_] |201| 
     871 0000001b 2901          CLRC      SXM                   ; [CPU_] 
     872 0000001c 761F-         MOVW      DP,#_rslvrIn+3        ; [CPU_U] 
         0000001d 0000 
     873 0000001e 9DFF          ADDB      AH,#-1                ; [CPU_] |201| 
     874 0000001f 922F-         MOV       AL,@_rslvrIn+3        ; [CPU_] |201| 
     875 00000020 9CFF          ADDB      AL,#-1                ; [CPU_] |201| 
     876 00000021 761F-         MOVW      DP,#_rslvrOut+32      ; [CPU_U] 
         00000022 0002 
     877 00000023 CEA8          AND       AL,AH                 ; [CPU_] |201| 
     878 00000024 9620-         MOV       @_rslvrOut+32,AL      ; [CPU_] |201| 
     879                      .dwpsn  file "../resolver.c",line 202,column 2,is_stmt,isa 0
     880 00000025 5603-         MOV       ACC,@_rslvrOut+32 << 1 ; [CPU_] |202| 
         00000026 0120 
     881 00000027 761F-         MOVW      DP,#_sineTable        ; [CPU_U] 
         00000028 0000 
     882 00000029 0722-         ADDL      ACC,@_sineTable       ; [CPU_] |202| 
     883 0000002a 8AA9          MOVL      XAR4,ACC              ; [CPU_] |202| 
     884 0000002b 761F!         MOVW      DP,#_DacaRegs+3       ; [CPU_U] 
         0000002c 0000 
     885 0000002d CD03!         AND       AH,@_DacaRegs+3,#0xf000 ; [CPU_] |202| 
         0000002e F000 
     886 0000002f CCC4          AND       AL,*+XAR4[0],#0x0fff  ; [CPU_] |202| 
         00000030 0FFF 
     887 00000031 CAA8          OR        AL,AH                 ; [CPU_] |202| 
     888 00000032 9603!         MOV       @_DacaRegs+3,AL       ; [CPU_] |202| 
     889 00000033 761F!         MOVW      DP,#_AdcdResultRegs+16 ; [CPU_U] 
         00000034 0000 
     890                      .dwpsn  file "../resolver.c",line 206,column 2,is_stmt,isa 0
     891 00000035 E2AF!         MOV32     R1H,@_AdcdResultRegs+16 ; [CPU_] |206| 
         00000036 0110 
     892 00000037 761F!         MOVW      DP,#_AdccResultRegs+16 ; [CPU_U] 
         00000038 0000 
     893 00000039 E68D          I16TOF32  R1H,R1H               ; [CPU_] |206| 
         0000003a 0009 
     894                      .dwpsn  file "../resolver.c",line 207,column 2,is_stmt,isa 0
     895 0000003b E2AF!         MOV32     R0H,@_AdccResultRegs+16 ; [CPU_] |207| 
         0000003c 0010 
     896                      .dwpsn  file "../resolver.c",line 206,column 2,is_stmt,isa 0
     897 0000003d E84E          MPYF32    R1H,R1H,#14848        ; [CPU_] |206| 
         0000003e 8009 
     898                      .dwpsn  file "../resolver.c",line 207,column 2,is_stmt,isa 0
     899 0000003f E68D          I16TOF32  R0H,R0H               ; [CPU_] |207| 
         00000040 0000 
     900 00000041 761F-         MOVW      DP,#_rslvrOut+28      ; [CPU_U] 
         00000042 0002 
     901 00000043 E84E          MPYF32    R0H,R0H,#14848        ; [CPU_] |207| 
         00000044 8000 
     902                      .dwpsn  file "../resolver.c",line 206,column 2,is_stmt,isa 0
     903 00000045 E203-         MOV32     @_rslvrOut+28,R1H     ; [CPU_] |206| 
         00000046 011C 
     904                      .dwpsn  file "../resolver.c",line 207,column 2,is_stmt,isa 0
TMS320C2000 Assembler PC v15.12.1 Tue Jul 04 10:45:52 2017

Tools Copyright (c) 1996-2015 Texas Instruments Incorporated
resolver.asm                                                         PAGE   20

     905 00000047 E203-         MOV32     @_rslvrOut+30,R0H     ; [CPU_] |207| 
         00000048 001E 
     906                      .dwpsn  file "../resolver.c",line 209,column 2,is_stmt,isa 0
     907              $C$DW$45        .dwtag  DW_TAG_TI_branch
     908                      .dwattr $C$DW$45, DW_AT_low_pc(0x00)
     909                      .dwattr $C$DW$45, DW_AT_name("_resolver_algo_Float")
     910                      .dwattr $C$DW$45, DW_AT_TI_call
     911              
     912 00000049 7640!         LCR       #_resolver_algo_Float ; [CPU_] |209| 
         0000004a 0000 
     913                      ; call occurs [#_resolver_algo_Float] ; [] |209| 
     914 0000004b 5200          CMPB      AL,#0                 ; [CPU_] |209| 
     915 0000004c 6122          B         $C$L11,EQ             ; [CPU_] |209| 
     916                      ; branchcc occurs ; [] |209| 
     917 0000004d 761F-         MOVW      DP,#_rslvrIn+2        ; [CPU_U] 
         0000004e 0000 
     918                      .dwpsn  file "../resolver.c",line 213,column 6,is_stmt,isa 0
     919 0000004f 922E-         MOV       AL,@_rslvrIn+2        ; [CPU_] |213| 
     920 00000050 611C          B         $C$L10,EQ             ; [CPU_] |213| 
     921                      ; branchcc occurs ; [] |213| 
     922                      .dwpsn  file "../resolver.c",line 215,column 7,is_stmt,isa 0
     923 00000051 0201          MOVB      ACC,#1                ; [CPU_] |215| 
     924 00000052 5601-         ADDL      @_testCntr,ACC        ; [CPU_] |215| 
         00000053 0008 
     925 00000054 060E-         MOVL      ACC,@_testCntMax      ; [CPU_] |215| 
     926 00000055 0F08-         CMPL      ACC,@_testCntr        ; [CPU_] |215| 
     927 00000056 6218          B         $C$L11,GT             ; [CPU_] |215| 
     928                      ; branchcc occurs ; [] |215| 
     929                      .dwpsn  file "../resolver.c",line 217,column 8,is_stmt,isa 0
     930              $C$DW$46        .dwtag  DW_TAG_TI_branch
     931                      .dwattr $C$DW$46, DW_AT_low_pc(0x00)
     932                      .dwattr $C$DW$46, DW_AT_name("_derivParamsCal")
     933                      .dwattr $C$DW$46, DW_AT_TI_call
     934              
     935 00000057 7640'         LCR       #_derivParamsCal      ; [CPU_] |217| 
         00000058 0032 
     936                      ; call occurs [#_derivParamsCal] ; [] |217| 
     937                      .dwpsn  file "../resolver.c",line 219,column 9,is_stmt,isa 0
     938 00000059 E801          MOVIZ     R0H,#15897            ; [CPU_] |219| 
         0000005a F0C8 
     939 0000005b E2AF-         MOV32     R1H,@_rslvrIn+8       ; [CPU_] |219| 
         0000005c 0134 
     940 0000005d E80C          MOVXI     R0H,#39322            ; [CPU_] |219| 
         0000005e CCD0 
     941 0000005f E694          CMPF32    R1H,R0H               ; [CPU_] |219| 
         00000060 0001 
     942 00000061 AD14          MOVST0    ZF, NF                ; [CPU_] |219| 
     943 00000062 6503          B         $C$L8,LEQ             ; [CPU_] |219| 
     944                      ; branchcc occurs ; [] |219| 
     945 00000063 E590          ZERO      R0H                   ; [CPU_] |219| 
     946 00000064 6F03          B         $C$L9,UNC             ; [CPU_] |219| 
     947                      ; branch occurs ; [] |219| 
     948 00000065       $C$L8:    
     949 00000065 E2AF-         MOV32     R0H,@_testAngleMax    ; [CPU_] |219| 
         00000066 000C 
TMS320C2000 Assembler PC v15.12.1 Tue Jul 04 10:45:52 2017

Tools Copyright (c) 1996-2015 Texas Instruments Incorporated
resolver.asm                                                         PAGE   21

     950 00000067       $C$L9:    
     951                      .dwpsn  file "../resolver.c",line 222,column 11,is_stmt,isa 0
     952 00000067 0200          MOVB      ACC,#0                ; [CPU_] |222| 
     953                      .dwpsn  file "../resolver.c",line 219,column 9,is_stmt,isa 0
     954 00000068 E203-         MOV32     @_rslvrIn+8,R0H       ; [CPU_] |219| 
         00000069 0034 
     955                      .dwpsn  file "../resolver.c",line 222,column 11,is_stmt,isa 0
     956 0000006a 1E08-         MOVL      @_testCntr,ACC        ; [CPU_] |222| 
     957 0000006b 6F03          B         $C$L11,UNC            ; [CPU_] |222| 
     958                      ; branch occurs ; [] |222| 
     959 0000006c       $C$L10:    
     960                      .dwpsn  file "../resolver.c",line 228,column 7,is_stmt,isa 0
     961              $C$DW$47        .dwtag  DW_TAG_TI_branch
     962                      .dwattr $C$DW$47, DW_AT_low_pc(0x00)
     963                      .dwattr $C$DW$47, DW_AT_name("_resolver_PostProcess")
     964                      .dwattr $C$DW$47, DW_AT_TI_call
     965              
     966 0000006c 7640'         LCR       #_resolver_PostProcess ; [CPU_] |228| 
         0000006d 005B 
     967                      ; call occurs [#_resolver_PostProcess] ; [] |228| 
     968 0000006e       $C$L11:    
     969 0000006e 761F!         MOVW      DP,#_AdccRegs+4       ; [CPU_U] 
         0000006f 0000 
     970                      .dwpsn  file "../resolver.c",line 232,column 2,is_stmt,isa 0
     971 00000070 1A04!         OR        @_AdccRegs+4,#0x0001  ; [CPU_] |232| 
         00000071 0001 
     972 00000072 FE82          SUBB      SP,#2                 ; [CPU_U] 
     973                      .dwcfi  cfa_offset, -26
     974 00000073 761F!         MOVW      DP,#_PieCtrlRegs+1    ; [CPU_U] 
         00000074 0000 
     975 00000075 E2AF          MOV32     R3H,*--SP             ; [CPU_] 
         00000076 03BE 
     976                      .dwpsn  file "../resolver.c",line 233,column 2,is_stmt,isa 0
     977 00000077 56BF!         MOVB      @_PieCtrlRegs+1,#1,UNC ; [CPU_] |233| 
         00000078 0101 
     978 00000079 E2AF          MOV32     R2H,*--SP             ; [CPU_] 
         0000007a 02BE 
     979 0000007b E2AF          MOV32     R1H,*--SP             ; [CPU_] 
         0000007c 01BE 
     980 0000007d E2AF          MOV32     R0H,*--SP             ; [CPU_] 
         0000007e 00BE 
     981 0000007f E280          MOV32     STF,*--SP             ; [CPU_] 
         00000080 00BE 
     982                      .dwcfi  cfa_offset, -16
     983                      .dwcfi  restore_reg, 39
     984                      .dwcfi  restore_reg, 40
     985 00000081 C5BE          MOVL      XAR7,*--SP            ; [CPU_] 
     986                      .dwcfi  cfa_offset, -14
     987                      .dwcfi  restore_reg, 18
     988 00000082 C4BE          MOVL      XAR6,*--SP            ; [CPU_] 
     989                      .dwcfi  cfa_offset, -12
     990                      .dwcfi  restore_reg, 16
     991 00000083 83BE          MOVL      XAR5,*--SP            ; [CPU_] 
     992                      .dwcfi  cfa_offset, -10
     993                      .dwcfi  restore_reg, 14
TMS320C2000 Assembler PC v15.12.1 Tue Jul 04 10:45:52 2017

Tools Copyright (c) 1996-2015 Texas Instruments Incorporated
resolver.asm                                                         PAGE   22

     994 00000084 8ABE          MOVL      XAR4,*--SP            ; [CPU_] 
     995                      .dwcfi  cfa_offset, -8
     996                      .dwcfi  restore_reg, 12
     997 00000085 87BE          MOVL      XT,*--SP              ; [CPU_] 
     998                      .dwcfi  cfa_offset, -6
     999                      .dwcfi  restore_reg, 22
    1000                      .dwcfi  restore_reg, 21
    1001 00000086 0003          POP       AR1H:AR0H             ; [CPU_] 
    1002                      .dwcfi  cfa_offset, -4
    1003                      .dwcfi  restore_reg, 5
    1004                      .dwcfi  restore_reg, 7
    1005 00000087 FFF1          POP       RB                    ; [CPU_] 
    1006                      .dwcfi  cfa_offset, -2
    1007                      .dwcfi  restore_reg, 73
    1008                      .dwcfi  restore_reg, 74
    1009 00000088 7617          NASP      ; [CPU_] 
    1010              $C$DW$48        .dwtag  DW_TAG_TI_branch
    1011                      .dwattr $C$DW$48, DW_AT_low_pc(0x00)
    1012                      .dwattr $C$DW$48, DW_AT_TI_return
    1013              
    1014 00000089 7602          IRET      ; [CPU_] 
    1015                      ; return occurs ; [] 
    1016                      .dwattr $C$DW$44, DW_AT_TI_end_file("../resolver.c")
    1017                      .dwattr $C$DW$44, DW_AT_TI_end_line(0xec)
    1018                      .dwattr $C$DW$44, DW_AT_TI_end_column(0x01)
    1019                      .dwendentry
    1020                      .dwendtag $C$DW$44
    1021              
    1022              ;**************************************************************
    1023              ;* UNDEFINED EXTERNAL REFERENCES                              *
    1024              ;**************************************************************
    1025                      .global _resolver_algo_Float
    1026                      .global _DacaRegs
    1027                      .global _AdcdResultRegs
    1028                      .global _AdccResultRegs
    1029                      .global _PieCtrlRegs
    1030                      .global _AdccRegs
    1031              
    1032              ;***************************************************************
    1033              ;* TYPE INFORMATION                                            *
    1034              ;***************************************************************
    1035              
    1036              $C$DW$T$20      .dwtag  DW_TAG_structure_type
    1037                      .dwattr $C$DW$T$20, DW_AT_byte_size(0x14)
    1038              $C$DW$49        .dwtag  DW_TAG_member
    1039                      .dwattr $C$DW$49, DW_AT_type(*$C$DW$T$19)
    1040                      .dwattr $C$DW$49, DW_AT_name("firLag")
    1041                      .dwattr $C$DW$49, DW_AT_TI_symbol_name("_firLag")
    1042                      .dwattr $C$DW$49, DW_AT_data_member_location[DW_OP_plus_uconst 0x0]
    1043                      .dwattr $C$DW$49, DW_AT_accessibility(DW_ACCESS_public)
    1044              
    1045              $C$DW$50        .dwtag  DW_TAG_member
    1046                      .dwattr $C$DW$50, DW_AT_type(*$C$DW$T$19)
    1047                      .dwattr $C$DW$50, DW_AT_name("FIR32")
    1048                      .dwattr $C$DW$50, DW_AT_TI_symbol_name("_FIR32")
TMS320C2000 Assembler PC v15.12.1 Tue Jul 04 10:45:52 2017

Tools Copyright (c) 1996-2015 Texas Instruments Incorporated
resolver.asm                                                         PAGE   23

    1049                      .dwattr $C$DW$50, DW_AT_data_member_location[DW_OP_plus_uconst 0x1]
    1050                      .dwattr $C$DW$50, DW_AT_accessibility(DW_ACCESS_public)
    1051              
    1052              $C$DW$51        .dwtag  DW_TAG_member
    1053                      .dwattr $C$DW$51, DW_AT_type(*$C$DW$T$19)
    1054                      .dwattr $C$DW$51, DW_AT_name("TUNING")
    1055                      .dwattr $C$DW$51, DW_AT_TI_symbol_name("_TUNING")
    1056                      .dwattr $C$DW$51, DW_AT_data_member_location[DW_OP_plus_uconst 0x2]
    1057                      .dwattr $C$DW$51, DW_AT_accessibility(DW_ACCESS_public)
    1058              
    1059              $C$DW$52        .dwtag  DW_TAG_member
    1060                      .dwattr $C$DW$52, DW_AT_type(*$C$DW$T$19)
    1061                      .dwattr $C$DW$52, DW_AT_name("TABLE_LENGTH")
    1062                      .dwattr $C$DW$52, DW_AT_TI_symbol_name("_TABLE_LENGTH")
    1063                      .dwattr $C$DW$52, DW_AT_data_member_location[DW_OP_plus_uconst 0x3]
    1064                      .dwattr $C$DW$52, DW_AT_accessibility(DW_ACCESS_public)
    1065              
    1066              $C$DW$53        .dwtag  DW_TAG_member
    1067                      .dwattr $C$DW$53, DW_AT_type(*$C$DW$T$16)
    1068                      .dwattr $C$DW$53, DW_AT_name("offsetS")
    1069                      .dwattr $C$DW$53, DW_AT_TI_symbol_name("_offsetS")
    1070                      .dwattr $C$DW$53, DW_AT_data_member_location[DW_OP_plus_uconst 0x4]
    1071                      .dwattr $C$DW$53, DW_AT_accessibility(DW_ACCESS_public)
    1072              
    1073              $C$DW$54        .dwtag  DW_TAG_member
    1074                      .dwattr $C$DW$54, DW_AT_type(*$C$DW$T$16)
    1075                      .dwattr $C$DW$54, DW_AT_name("offsetC")
    1076                      .dwattr $C$DW$54, DW_AT_TI_symbol_name("_offsetC")
    1077                      .dwattr $C$DW$54, DW_AT_data_member_location[DW_OP_plus_uconst 0x6]
    1078                      .dwattr $C$DW$54, DW_AT_accessibility(DW_ACCESS_public)
    1079              
    1080              $C$DW$55        .dwtag  DW_TAG_member
    1081                      .dwattr $C$DW$55, DW_AT_type(*$C$DW$T$16)
    1082                      .dwattr $C$DW$55, DW_AT_name("testAngle")
    1083                      .dwattr $C$DW$55, DW_AT_TI_symbol_name("_testAngle")
    1084                      .dwattr $C$DW$55, DW_AT_data_member_location[DW_OP_plus_uconst 0x8]
    1085                      .dwattr $C$DW$55, DW_AT_accessibility(DW_ACCESS_public)
    1086              
    1087              $C$DW$56        .dwtag  DW_TAG_member
    1088                      .dwattr $C$DW$56, DW_AT_type(*$C$DW$T$16)
    1089                      .dwattr $C$DW$56, DW_AT_name("SAMPLING_TIME")
    1090                      .dwattr $C$DW$56, DW_AT_TI_symbol_name("_SAMPLING_TIME")
    1091                      .dwattr $C$DW$56, DW_AT_data_member_location[DW_OP_plus_uconst 0xa]
    1092                      .dwattr $C$DW$56, DW_AT_accessibility(DW_ACCESS_public)
    1093              
    1094              $C$DW$57        .dwtag  DW_TAG_member
    1095                      .dwattr $C$DW$57, DW_AT_type(*$C$DW$T$16)
    1096                      .dwattr $C$DW$57, DW_AT_name("errorWfT")
    1097                      .dwattr $C$DW$57, DW_AT_TI_symbol_name("_errorWfT")
    1098                      .dwattr $C$DW$57, DW_AT_data_member_location[DW_OP_plus_uconst 0xc]
    1099                      .dwattr $C$DW$57, DW_AT_accessibility(DW_ACCESS_public)
    1100              
    1101              $C$DW$58        .dwtag  DW_TAG_member
    1102                      .dwattr $C$DW$58, DW_AT_type(*$C$DW$T$16)
    1103                      .dwattr $C$DW$58, DW_AT_name("picon_K0")
TMS320C2000 Assembler PC v15.12.1 Tue Jul 04 10:45:52 2017

Tools Copyright (c) 1996-2015 Texas Instruments Incorporated
resolver.asm                                                         PAGE   24

    1104                      .dwattr $C$DW$58, DW_AT_TI_symbol_name("_picon_K0")
    1105                      .dwattr $C$DW$58, DW_AT_data_member_location[DW_OP_plus_uconst 0xe]
    1106                      .dwattr $C$DW$58, DW_AT_accessibility(DW_ACCESS_public)
    1107              
    1108              $C$DW$59        .dwtag  DW_TAG_member
    1109                      .dwattr $C$DW$59, DW_AT_type(*$C$DW$T$16)
    1110                      .dwattr $C$DW$59, DW_AT_name("picon_K1")
    1111                      .dwattr $C$DW$59, DW_AT_TI_symbol_name("_picon_K1")
    1112                      .dwattr $C$DW$59, DW_AT_data_member_location[DW_OP_plus_uconst 0x10]
    1113                      .dwattr $C$DW$59, DW_AT_accessibility(DW_ACCESS_public)
    1114              
    1115              $C$DW$60        .dwtag  DW_TAG_member
    1116                      .dwattr $C$DW$60, DW_AT_type(*$C$DW$T$16)
    1117                      .dwattr $C$DW$60, DW_AT_name("rpsMax")
    1118                      .dwattr $C$DW$60, DW_AT_TI_symbol_name("_rpsMax")
    1119                      .dwattr $C$DW$60, DW_AT_data_member_location[DW_OP_plus_uconst 0x12]
    1120                      .dwattr $C$DW$60, DW_AT_accessibility(DW_ACCESS_public)
    1121              
    1122                      .dwendtag $C$DW$T$20
    1123              
    1124              $C$DW$T$223     .dwtag  DW_TAG_typedef
    1125                      .dwattr $C$DW$T$223, DW_AT_name("RESOLVER_INPUT")
    1126                      .dwattr $C$DW$T$223, DW_AT_type(*$C$DW$T$20)
    1127                      .dwattr $C$DW$T$223, DW_AT_language(DW_LANG_C)
    1128              
    1129              
    1130              $C$DW$T$22      .dwtag  DW_TAG_structure_type
    1131                      .dwattr $C$DW$T$22, DW_AT_byte_size(0x22)
    1132              $C$DW$61        .dwtag  DW_TAG_member
    1133                      .dwattr $C$DW$61, DW_AT_type(*$C$DW$T$16)
    1134                      .dwattr $C$DW$61, DW_AT_name("angleRaw")
    1135                      .dwattr $C$DW$61, DW_AT_TI_symbol_name("_angleRaw")
    1136                      .dwattr $C$DW$61, DW_AT_data_member_location[DW_OP_plus_uconst 0x0]
    1137                      .dwattr $C$DW$61, DW_AT_accessibility(DW_ACCESS_public)
    1138              
    1139              $C$DW$62        .dwtag  DW_TAG_member
    1140                      .dwattr $C$DW$62, DW_AT_type(*$C$DW$T$16)
    1141                      .dwattr $C$DW$62, DW_AT_name("angleObs")
    1142                      .dwattr $C$DW$62, DW_AT_TI_symbol_name("_angleObs")
    1143                      .dwattr $C$DW$62, DW_AT_data_member_location[DW_OP_plus_uconst 0x2]
    1144                      .dwattr $C$DW$62, DW_AT_accessibility(DW_ACCESS_public)
    1145              
    1146              $C$DW$63        .dwtag  DW_TAG_member
    1147                      .dwattr $C$DW$63, DW_AT_type(*$C$DW$T$16)
    1148                      .dwattr $C$DW$63, DW_AT_name("angleOut")
    1149                      .dwattr $C$DW$63, DW_AT_TI_symbol_name("_angleOut")
    1150                      .dwattr $C$DW$63, DW_AT_data_member_location[DW_OP_plus_uconst 0x4]
    1151                      .dwattr $C$DW$63, DW_AT_accessibility(DW_ACCESS_public)
    1152              
    1153              $C$DW$64        .dwtag  DW_TAG_member
    1154                      .dwattr $C$DW$64, DW_AT_type(*$C$DW$T$16)
    1155                      .dwattr $C$DW$64, DW_AT_name("rpsObs")
    1156                      .dwattr $C$DW$64, DW_AT_TI_symbol_name("_rpsObs")
    1157                      .dwattr $C$DW$64, DW_AT_data_member_location[DW_OP_plus_uconst 0x6]
    1158                      .dwattr $C$DW$64, DW_AT_accessibility(DW_ACCESS_public)
TMS320C2000 Assembler PC v15.12.1 Tue Jul 04 10:45:52 2017

Tools Copyright (c) 1996-2015 Texas Instruments Incorporated
resolver.asm                                                         PAGE   25

    1159              
    1160              $C$DW$65        .dwtag  DW_TAG_member
    1161                      .dwattr $C$DW$65, DW_AT_type(*$C$DW$T$16)
    1162                      .dwattr $C$DW$65, DW_AT_name("errorNew")
    1163                      .dwattr $C$DW$65, DW_AT_TI_symbol_name("_errorNew")
    1164                      .dwattr $C$DW$65, DW_AT_data_member_location[DW_OP_plus_uconst 0x8]
    1165                      .dwattr $C$DW$65, DW_AT_accessibility(DW_ACCESS_public)
    1166              
    1167              $C$DW$66        .dwtag  DW_TAG_member
    1168                      .dwattr $C$DW$66, DW_AT_type(*$C$DW$T$16)
    1169                      .dwattr $C$DW$66, DW_AT_name("resMag")
    1170                      .dwattr $C$DW$66, DW_AT_TI_symbol_name("_resMag")
    1171                      .dwattr $C$DW$66, DW_AT_data_member_location[DW_OP_plus_uconst 0xa]
    1172                      .dwattr $C$DW$66, DW_AT_accessibility(DW_ACCESS_public)
    1173              
    1174              $C$DW$67        .dwtag  DW_TAG_member
    1175                      .dwattr $C$DW$67, DW_AT_type(*$C$DW$T$16)
    1176                      .dwattr $C$DW$67, DW_AT_name("sinFIRout")
    1177                      .dwattr $C$DW$67, DW_AT_TI_symbol_name("_sinFIRout")
    1178                      .dwattr $C$DW$67, DW_AT_data_member_location[DW_OP_plus_uconst 0xc]
    1179                      .dwattr $C$DW$67, DW_AT_accessibility(DW_ACCESS_public)
    1180              
    1181              $C$DW$68        .dwtag  DW_TAG_member
    1182                      .dwattr $C$DW$68, DW_AT_type(*$C$DW$T$16)
    1183                      .dwattr $C$DW$68, DW_AT_name("cosFIRout")
    1184                      .dwattr $C$DW$68, DW_AT_TI_symbol_name("_cosFIRout")
    1185                      .dwattr $C$DW$68, DW_AT_data_member_location[DW_OP_plus_uconst 0xe]
    1186                      .dwattr $C$DW$68, DW_AT_accessibility(DW_ACCESS_public)
    1187              
    1188              $C$DW$69        .dwtag  DW_TAG_member
    1189                      .dwattr $C$DW$69, DW_AT_type(*$C$DW$T$21)
    1190                      .dwattr $C$DW$69, DW_AT_name("angleRaw20")
    1191                      .dwattr $C$DW$69, DW_AT_TI_symbol_name("_angleRaw20")
    1192                      .dwattr $C$DW$69, DW_AT_data_member_location[DW_OP_plus_uconst 0x10]
    1193                      .dwattr $C$DW$69, DW_AT_accessibility(DW_ACCESS_public)
    1194              
    1195              $C$DW$70        .dwtag  DW_TAG_member
    1196                      .dwattr $C$DW$70, DW_AT_type(*$C$DW$T$21)
    1197                      .dwattr $C$DW$70, DW_AT_name("angleObs20")
    1198                      .dwattr $C$DW$70, DW_AT_TI_symbol_name("_angleObs20")
    1199                      .dwattr $C$DW$70, DW_AT_data_member_location[DW_OP_plus_uconst 0x12]
    1200                      .dwattr $C$DW$70, DW_AT_accessibility(DW_ACCESS_public)
    1201              
    1202              $C$DW$71        .dwtag  DW_TAG_member
    1203                      .dwattr $C$DW$71, DW_AT_type(*$C$DW$T$21)
    1204                      .dwattr $C$DW$71, DW_AT_name("angleOut20")
    1205                      .dwattr $C$DW$71, DW_AT_TI_symbol_name("_angleOut20")
    1206                      .dwattr $C$DW$71, DW_AT_data_member_location[DW_OP_plus_uconst 0x14]
    1207                      .dwattr $C$DW$71, DW_AT_accessibility(DW_ACCESS_public)
    1208              
    1209              $C$DW$72        .dwtag  DW_TAG_member
    1210                      .dwattr $C$DW$72, DW_AT_type(*$C$DW$T$21)
    1211                      .dwattr $C$DW$72, DW_AT_name("rpsObs20")
    1212                      .dwattr $C$DW$72, DW_AT_TI_symbol_name("_rpsObs20")
    1213                      .dwattr $C$DW$72, DW_AT_data_member_location[DW_OP_plus_uconst 0x16]
TMS320C2000 Assembler PC v15.12.1 Tue Jul 04 10:45:52 2017

Tools Copyright (c) 1996-2015 Texas Instruments Incorporated
resolver.asm                                                         PAGE   26

    1214                      .dwattr $C$DW$72, DW_AT_accessibility(DW_ACCESS_public)
    1215              
    1216              $C$DW$73        .dwtag  DW_TAG_member
    1217                      .dwattr $C$DW$73, DW_AT_type(*$C$DW$T$21)
    1218                      .dwattr $C$DW$73, DW_AT_name("errorNew20")
    1219                      .dwattr $C$DW$73, DW_AT_TI_symbol_name("_errorNew20")
    1220                      .dwattr $C$DW$73, DW_AT_data_member_location[DW_OP_plus_uconst 0x18]
    1221                      .dwattr $C$DW$73, DW_AT_accessibility(DW_ACCESS_public)
    1222              
    1223              $C$DW$74        .dwtag  DW_TAG_member
    1224                      .dwattr $C$DW$74, DW_AT_type(*$C$DW$T$21)
    1225                      .dwattr $C$DW$74, DW_AT_name("resMag20")
    1226                      .dwattr $C$DW$74, DW_AT_TI_symbol_name("_resMag20")
    1227                      .dwattr $C$DW$74, DW_AT_data_member_location[DW_OP_plus_uconst 0x1a]
    1228                      .dwattr $C$DW$74, DW_AT_accessibility(DW_ACCESS_public)
    1229              
    1230              $C$DW$75        .dwtag  DW_TAG_member
    1231                      .dwattr $C$DW$75, DW_AT_type(*$C$DW$T$16)
    1232                      .dwattr $C$DW$75, DW_AT_name("sin_input")
    1233                      .dwattr $C$DW$75, DW_AT_TI_symbol_name("_sin_input")
    1234                      .dwattr $C$DW$75, DW_AT_data_member_location[DW_OP_plus_uconst 0x1c]
    1235                      .dwattr $C$DW$75, DW_AT_accessibility(DW_ACCESS_public)
    1236              
    1237              $C$DW$76        .dwtag  DW_TAG_member
    1238                      .dwattr $C$DW$76, DW_AT_type(*$C$DW$T$16)
    1239                      .dwattr $C$DW$76, DW_AT_name("cos_input")
    1240                      .dwattr $C$DW$76, DW_AT_TI_symbol_name("_cos_input")
    1241                      .dwattr $C$DW$76, DW_AT_data_member_location[DW_OP_plus_uconst 0x1e]
    1242                      .dwattr $C$DW$76, DW_AT_accessibility(DW_ACCESS_public)
    1243              
    1244              $C$DW$77        .dwtag  DW_TAG_member
    1245                      .dwattr $C$DW$77, DW_AT_type(*$C$DW$T$19)
    1246                      .dwattr $C$DW$77, DW_AT_name("sineIndex")
    1247                      .dwattr $C$DW$77, DW_AT_TI_symbol_name("_sineIndex")
    1248                      .dwattr $C$DW$77, DW_AT_data_member_location[DW_OP_plus_uconst 0x20]
    1249                      .dwattr $C$DW$77, DW_AT_accessibility(DW_ACCESS_public)
    1250              
    1251                      .dwendtag $C$DW$T$22
    1252              
    1253              $C$DW$T$224     .dwtag  DW_TAG_typedef
    1254                      .dwattr $C$DW$T$224, DW_AT_name("RESOLVER_OUTPUT")
    1255                      .dwattr $C$DW$T$224, DW_AT_type(*$C$DW$T$22)
    1256                      .dwattr $C$DW$T$224, DW_AT_language(DW_LANG_C)
    1257              
    1258              
    1259              $C$DW$T$23      .dwtag  DW_TAG_structure_type
    1260                      .dwattr $C$DW$T$23, DW_AT_name("ADCBURSTCTL_BITS")
    1261                      .dwattr $C$DW$T$23, DW_AT_byte_size(0x01)
    1262              $C$DW$78        .dwtag  DW_TAG_member
    1263                      .dwattr $C$DW$78, DW_AT_type(*$C$DW$T$19)
    1264                      .dwattr $C$DW$78, DW_AT_name("BURSTTRIGSEL")
    1265                      .dwattr $C$DW$78, DW_AT_TI_symbol_name("_BURSTTRIGSEL")
    1266                      .dwattr $C$DW$78, DW_AT_bit_offset(0x0a)
    1267                      .dwattr $C$DW$78, DW_AT_bit_size(0x06)
    1268                      .dwattr $C$DW$78, DW_AT_data_member_location[DW_OP_plus_uconst 0x0]
TMS320C2000 Assembler PC v15.12.1 Tue Jul 04 10:45:52 2017

Tools Copyright (c) 1996-2015 Texas Instruments Incorporated
resolver.asm                                                         PAGE   27

    1269                      .dwattr $C$DW$78, DW_AT_accessibility(DW_ACCESS_public)
    1270              
    1271              $C$DW$79        .dwtag  DW_TAG_member
    1272                      .dwattr $C$DW$79, DW_AT_type(*$C$DW$T$19)
    1273                      .dwattr $C$DW$79, DW_AT_name("rsvd1")
    1274                      .dwattr $C$DW$79, DW_AT_TI_symbol_name("_rsvd1")
    1275                      .dwattr $C$DW$79, DW_AT_bit_offset(0x08)
    1276                      .dwattr $C$DW$79, DW_AT_bit_size(0x02)
    1277                      .dwattr $C$DW$79, DW_AT_data_member_location[DW_OP_plus_uconst 0x0]
    1278                      .dwattr $C$DW$79, DW_AT_accessibility(DW_ACCESS_public)
    1279              
    1280              $C$DW$80        .dwtag  DW_TAG_member
    1281                      .dwattr $C$DW$80, DW_AT_type(*$C$DW$T$19)
    1282                      .dwattr $C$DW$80, DW_AT_name("BURSTSIZE")
    1283                      .dwattr $C$DW$80, DW_AT_TI_symbol_name("_BURSTSIZE")
    1284                      .dwattr $C$DW$80, DW_AT_bit_offset(0x04)
    1285                      .dwattr $C$DW$80, DW_AT_bit_size(0x04)
    1286                      .dwattr $C$DW$80, DW_AT_data_member_location[DW_OP_plus_uconst 0x0]
    1287                      .dwattr $C$DW$80, DW_AT_accessibility(DW_ACCESS_public)
    1288              
    1289              $C$DW$81        .dwtag  DW_TAG_member
    1290                      .dwattr $C$DW$81, DW_AT_type(*$C$DW$T$19)
    1291                      .dwattr $C$DW$81, DW_AT_name("rsvd2")
    1292                      .dwattr $C$DW$81, DW_AT_TI_symbol_name("_rsvd2")
    1293                      .dwattr $C$DW$81, DW_AT_bit_offset(0x01)
    1294                      .dwattr $C$DW$81, DW_AT_bit_size(0x03)
    1295                      .dwattr $C$DW$81, DW_AT_data_member_location[DW_OP_plus_uconst 0x0]
    1296                      .dwattr $C$DW$81, DW_AT_accessibility(DW_ACCESS_public)
    1297              
    1298              $C$DW$82        .dwtag  DW_TAG_member
    1299                      .dwattr $C$DW$82, DW_AT_type(*$C$DW$T$19)
    1300                      .dwattr $C$DW$82, DW_AT_name("BURSTEN")
    1301                      .dwattr $C$DW$82, DW_AT_TI_symbol_name("_BURSTEN")
    1302                      .dwattr $C$DW$82, DW_AT_bit_offset(0x00)
    1303                      .dwattr $C$DW$82, DW_AT_bit_size(0x01)
    1304                      .dwattr $C$DW$82, DW_AT_data_member_location[DW_OP_plus_uconst 0x0]
    1305                      .dwattr $C$DW$82, DW_AT_accessibility(DW_ACCESS_public)
    1306              
    1307                      .dwendtag $C$DW$T$23
    1308              
    1309              
    1310              $C$DW$T$24      .dwtag  DW_TAG_union_type
    1311                      .dwattr $C$DW$T$24, DW_AT_name("ADCBURSTCTL_REG")
    1312                      .dwattr $C$DW$T$24, DW_AT_byte_size(0x01)
    1313              $C$DW$83        .dwtag  DW_TAG_member
    1314                      .dwattr $C$DW$83, DW_AT_type(*$C$DW$T$19)
    1315                      .dwattr $C$DW$83, DW_AT_name("all")
    1316                      .dwattr $C$DW$83, DW_AT_TI_symbol_name("_all")
    1317                      .dwattr $C$DW$83, DW_AT_data_member_location[DW_OP_plus_uconst 0x0]
    1318                      .dwattr $C$DW$83, DW_AT_accessibility(DW_ACCESS_public)
    1319              
    1320              $C$DW$84        .dwtag  DW_TAG_member
    1321                      .dwattr $C$DW$84, DW_AT_type(*$C$DW$T$23)
    1322                      .dwattr $C$DW$84, DW_AT_name("bit")
    1323                      .dwattr $C$DW$84, DW_AT_TI_symbol_name("_bit")
TMS320C2000 Assembler PC v15.12.1 Tue Jul 04 10:45:52 2017

Tools Copyright (c) 1996-2015 Texas Instruments Incorporated
resolver.asm                                                         PAGE   28

    1324                      .dwattr $C$DW$84, DW_AT_data_member_location[DW_OP_plus_uconst 0x0]
    1325                      .dwattr $C$DW$84, DW_AT_accessibility(DW_ACCESS_public)
    1326              
    1327                      .dwendtag $C$DW$T$24
    1328              
    1329              
    1330              $C$DW$T$25      .dwtag  DW_TAG_structure_type
    1331                      .dwattr $C$DW$T$25, DW_AT_name("ADCCOUNTER_BITS")
    1332                      .dwattr $C$DW$T$25, DW_AT_byte_size(0x01)
    1333              $C$DW$85        .dwtag  DW_TAG_member
    1334                      .dwattr $C$DW$85, DW_AT_type(*$C$DW$T$19)
    1335                      .dwattr $C$DW$85, DW_AT_name("FREECOUNT")
    1336                      .dwattr $C$DW$85, DW_AT_TI_symbol_name("_FREECOUNT")
    1337                      .dwattr $C$DW$85, DW_AT_bit_offset(0x04)
    1338                      .dwattr $C$DW$85, DW_AT_bit_size(0x0c)
    1339                      .dwattr $C$DW$85, DW_AT_data_member_location[DW_OP_plus_uconst 0x0]
    1340                      .dwattr $C$DW$85, DW_AT_accessibility(DW_ACCESS_public)
    1341              
    1342              $C$DW$86        .dwtag  DW_TAG_member
    1343                      .dwattr $C$DW$86, DW_AT_type(*$C$DW$T$19)
    1344                      .dwattr $C$DW$86, DW_AT_name("rsvd1")
    1345                      .dwattr $C$DW$86, DW_AT_TI_symbol_name("_rsvd1")
    1346                      .dwattr $C$DW$86, DW_AT_bit_offset(0x00)
    1347                      .dwattr $C$DW$86, DW_AT_bit_size(0x04)
    1348                      .dwattr $C$DW$86, DW_AT_data_member_location[DW_OP_plus_uconst 0x0]
    1349                      .dwattr $C$DW$86, DW_AT_accessibility(DW_ACCESS_public)
    1350              
    1351                      .dwendtag $C$DW$T$25
    1352              
    1353              
    1354              $C$DW$T$26      .dwtag  DW_TAG_union_type
    1355                      .dwattr $C$DW$T$26, DW_AT_name("ADCCOUNTER_REG")
    1356                      .dwattr $C$DW$T$26, DW_AT_byte_size(0x01)
    1357              $C$DW$87        .dwtag  DW_TAG_member
    1358                      .dwattr $C$DW$87, DW_AT_type(*$C$DW$T$19)
    1359                      .dwattr $C$DW$87, DW_AT_name("all")
    1360                      .dwattr $C$DW$87, DW_AT_TI_symbol_name("_all")
    1361                      .dwattr $C$DW$87, DW_AT_data_member_location[DW_OP_plus_uconst 0x0]
    1362                      .dwattr $C$DW$87, DW_AT_accessibility(DW_ACCESS_public)
    1363              
    1364              $C$DW$88        .dwtag  DW_TAG_member
    1365                      .dwattr $C$DW$88, DW_AT_type(*$C$DW$T$25)
    1366                      .dwattr $C$DW$88, DW_AT_name("bit")
    1367                      .dwattr $C$DW$88, DW_AT_TI_symbol_name("_bit")
    1368                      .dwattr $C$DW$88, DW_AT_data_member_location[DW_OP_plus_uconst 0x0]
    1369                      .dwattr $C$DW$88, DW_AT_accessibility(DW_ACCESS_public)
    1370              
    1371                      .dwendtag $C$DW$T$26
    1372              
    1373              
    1374              $C$DW$T$27      .dwtag  DW_TAG_structure_type
    1375                      .dwattr $C$DW$T$27, DW_AT_name("ADCCTL1_BITS")
    1376                      .dwattr $C$DW$T$27, DW_AT_byte_size(0x01)
    1377              $C$DW$89        .dwtag  DW_TAG_member
    1378                      .dwattr $C$DW$89, DW_AT_type(*$C$DW$T$19)
TMS320C2000 Assembler PC v15.12.1 Tue Jul 04 10:45:52 2017

Tools Copyright (c) 1996-2015 Texas Instruments Incorporated
resolver.asm                                                         PAGE   29

    1379                      .dwattr $C$DW$89, DW_AT_name("rsvd1")
    1380                      .dwattr $C$DW$89, DW_AT_TI_symbol_name("_rsvd1")
    1381                      .dwattr $C$DW$89, DW_AT_bit_offset(0x0e)
    1382                      .dwattr $C$DW$89, DW_AT_bit_size(0x02)
    1383                      .dwattr $C$DW$89, DW_AT_data_member_location[DW_OP_plus_uconst 0x0]
    1384                      .dwattr $C$DW$89, DW_AT_accessibility(DW_ACCESS_public)
    1385              
    1386              $C$DW$90        .dwtag  DW_TAG_member
    1387                      .dwattr $C$DW$90, DW_AT_type(*$C$DW$T$19)
    1388                      .dwattr $C$DW$90, DW_AT_name("INTPULSEPOS")
    1389                      .dwattr $C$DW$90, DW_AT_TI_symbol_name("_INTPULSEPOS")
    1390                      .dwattr $C$DW$90, DW_AT_bit_offset(0x0d)
    1391                      .dwattr $C$DW$90, DW_AT_bit_size(0x01)
    1392                      .dwattr $C$DW$90, DW_AT_data_member_location[DW_OP_plus_uconst 0x0]
    1393                      .dwattr $C$DW$90, DW_AT_accessibility(DW_ACCESS_public)
    1394              
    1395              $C$DW$91        .dwtag  DW_TAG_member
    1396                      .dwattr $C$DW$91, DW_AT_type(*$C$DW$T$19)
    1397                      .dwattr $C$DW$91, DW_AT_name("rsvd2")
    1398                      .dwattr $C$DW$91, DW_AT_TI_symbol_name("_rsvd2")
    1399                      .dwattr $C$DW$91, DW_AT_bit_offset(0x09)
    1400                      .dwattr $C$DW$91, DW_AT_bit_size(0x04)
    1401                      .dwattr $C$DW$91, DW_AT_data_member_location[DW_OP_plus_uconst 0x0]
    1402                      .dwattr $C$DW$91, DW_AT_accessibility(DW_ACCESS_public)
    1403              
    1404              $C$DW$92        .dwtag  DW_TAG_member
    1405                      .dwattr $C$DW$92, DW_AT_type(*$C$DW$T$19)
    1406                      .dwattr $C$DW$92, DW_AT_name("ADCPWDNZ")
    1407                      .dwattr $C$DW$92, DW_AT_TI_symbol_name("_ADCPWDNZ")
    1408                      .dwattr $C$DW$92, DW_AT_bit_offset(0x08)
    1409                      .dwattr $C$DW$92, DW_AT_bit_size(0x01)
    1410                      .dwattr $C$DW$92, DW_AT_data_member_location[DW_OP_plus_uconst 0x0]
    1411                      .dwattr $C$DW$92, DW_AT_accessibility(DW_ACCESS_public)
    1412              
    1413              $C$DW$93        .dwtag  DW_TAG_member
    1414                      .dwattr $C$DW$93, DW_AT_type(*$C$DW$T$19)
    1415                      .dwattr $C$DW$93, DW_AT_name("ADCBSYCHN")
    1416                      .dwattr $C$DW$93, DW_AT_TI_symbol_name("_ADCBSYCHN")
    1417                      .dwattr $C$DW$93, DW_AT_bit_offset(0x04)
    1418                      .dwattr $C$DW$93, DW_AT_bit_size(0x04)
    1419                      .dwattr $C$DW$93, DW_AT_data_member_location[DW_OP_plus_uconst 0x0]
    1420                      .dwattr $C$DW$93, DW_AT_accessibility(DW_ACCESS_public)
    1421              
    1422              $C$DW$94        .dwtag  DW_TAG_member
    1423                      .dwattr $C$DW$94, DW_AT_type(*$C$DW$T$19)
    1424                      .dwattr $C$DW$94, DW_AT_name("rsvd3")
    1425                      .dwattr $C$DW$94, DW_AT_TI_symbol_name("_rsvd3")
    1426                      .dwattr $C$DW$94, DW_AT_bit_offset(0x03)
    1427                      .dwattr $C$DW$94, DW_AT_bit_size(0x01)
    1428                      .dwattr $C$DW$94, DW_AT_data_member_location[DW_OP_plus_uconst 0x0]
    1429                      .dwattr $C$DW$94, DW_AT_accessibility(DW_ACCESS_public)
    1430              
    1431              $C$DW$95        .dwtag  DW_TAG_member
    1432                      .dwattr $C$DW$95, DW_AT_type(*$C$DW$T$19)
    1433                      .dwattr $C$DW$95, DW_AT_name("ADCBSY")
TMS320C2000 Assembler PC v15.12.1 Tue Jul 04 10:45:52 2017

Tools Copyright (c) 1996-2015 Texas Instruments Incorporated
resolver.asm                                                         PAGE   30

    1434                      .dwattr $C$DW$95, DW_AT_TI_symbol_name("_ADCBSY")
    1435                      .dwattr $C$DW$95, DW_AT_bit_offset(0x02)
    1436                      .dwattr $C$DW$95, DW_AT_bit_size(0x01)
    1437                      .dwattr $C$DW$95, DW_AT_data_member_location[DW_OP_plus_uconst 0x0]
    1438                      .dwattr $C$DW$95, DW_AT_accessibility(DW_ACCESS_public)
    1439              
    1440              $C$DW$96        .dwtag  DW_TAG_member
    1441                      .dwattr $C$DW$96, DW_AT_type(*$C$DW$T$19)
    1442                      .dwattr $C$DW$96, DW_AT_name("rsvd4")
    1443                      .dwattr $C$DW$96, DW_AT_TI_symbol_name("_rsvd4")
    1444                      .dwattr $C$DW$96, DW_AT_bit_offset(0x00)
    1445                      .dwattr $C$DW$96, DW_AT_bit_size(0x02)
    1446                      .dwattr $C$DW$96, DW_AT_data_member_location[DW_OP_plus_uconst 0x0]
    1447                      .dwattr $C$DW$96, DW_AT_accessibility(DW_ACCESS_public)
    1448              
    1449                      .dwendtag $C$DW$T$27
    1450              
    1451              
    1452              $C$DW$T$28      .dwtag  DW_TAG_union_type
    1453                      .dwattr $C$DW$T$28, DW_AT_name("ADCCTL1_REG")
    1454                      .dwattr $C$DW$T$28, DW_AT_byte_size(0x01)
    1455              $C$DW$97        .dwtag  DW_TAG_member
    1456                      .dwattr $C$DW$97, DW_AT_type(*$C$DW$T$19)
    1457                      .dwattr $C$DW$97, DW_AT_name("all")
    1458                      .dwattr $C$DW$97, DW_AT_TI_symbol_name("_all")
    1459                      .dwattr $C$DW$97, DW_AT_data_member_location[DW_OP_plus_uconst 0x0]
    1460                      .dwattr $C$DW$97, DW_AT_accessibility(DW_ACCESS_public)
    1461              
    1462              $C$DW$98        .dwtag  DW_TAG_member
    1463                      .dwattr $C$DW$98, DW_AT_type(*$C$DW$T$27)
    1464                      .dwattr $C$DW$98, DW_AT_name("bit")
    1465                      .dwattr $C$DW$98, DW_AT_TI_symbol_name("_bit")
    1466                      .dwattr $C$DW$98, DW_AT_data_member_location[DW_OP_plus_uconst 0x0]
    1467                      .dwattr $C$DW$98, DW_AT_accessibility(DW_ACCESS_public)
    1468              
    1469                      .dwendtag $C$DW$T$28
    1470              
    1471              
    1472              $C$DW$T$29      .dwtag  DW_TAG_structure_type
    1473                      .dwattr $C$DW$T$29, DW_AT_name("ADCCTL2_BITS")
    1474                      .dwattr $C$DW$T$29, DW_AT_byte_size(0x01)
    1475              $C$DW$99        .dwtag  DW_TAG_member
    1476                      .dwattr $C$DW$99, DW_AT_type(*$C$DW$T$19)
    1477                      .dwattr $C$DW$99, DW_AT_name("PRESCALE")
    1478                      .dwattr $C$DW$99, DW_AT_TI_symbol_name("_PRESCALE")
    1479                      .dwattr $C$DW$99, DW_AT_bit_offset(0x0c)
    1480                      .dwattr $C$DW$99, DW_AT_bit_size(0x04)
    1481                      .dwattr $C$DW$99, DW_AT_data_member_location[DW_OP_plus_uconst 0x0]
    1482                      .dwattr $C$DW$99, DW_AT_accessibility(DW_ACCESS_public)
    1483              
    1484              $C$DW$100       .dwtag  DW_TAG_member
    1485                      .dwattr $C$DW$100, DW_AT_type(*$C$DW$T$19)
    1486                      .dwattr $C$DW$100, DW_AT_name("rsvd1")
    1487                      .dwattr $C$DW$100, DW_AT_TI_symbol_name("_rsvd1")
    1488                      .dwattr $C$DW$100, DW_AT_bit_offset(0x0a)
TMS320C2000 Assembler PC v15.12.1 Tue Jul 04 10:45:52 2017

Tools Copyright (c) 1996-2015 Texas Instruments Incorporated
resolver.asm                                                         PAGE   31

    1489                      .dwattr $C$DW$100, DW_AT_bit_size(0x02)
    1490                      .dwattr $C$DW$100, DW_AT_data_member_location[DW_OP_plus_uconst 0x0]
    1491                      .dwattr $C$DW$100, DW_AT_accessibility(DW_ACCESS_public)
    1492              
    1493              $C$DW$101       .dwtag  DW_TAG_member
    1494                      .dwattr $C$DW$101, DW_AT_type(*$C$DW$T$19)
    1495                      .dwattr $C$DW$101, DW_AT_name("RESOLUTION")
    1496                      .dwattr $C$DW$101, DW_AT_TI_symbol_name("_RESOLUTION")
    1497                      .dwattr $C$DW$101, DW_AT_bit_offset(0x09)
    1498                      .dwattr $C$DW$101, DW_AT_bit_size(0x01)
    1499                      .dwattr $C$DW$101, DW_AT_data_member_location[DW_OP_plus_uconst 0x0]
    1500                      .dwattr $C$DW$101, DW_AT_accessibility(DW_ACCESS_public)
    1501              
    1502              $C$DW$102       .dwtag  DW_TAG_member
    1503                      .dwattr $C$DW$102, DW_AT_type(*$C$DW$T$19)
    1504                      .dwattr $C$DW$102, DW_AT_name("SIGNALMODE")
    1505                      .dwattr $C$DW$102, DW_AT_TI_symbol_name("_SIGNALMODE")
    1506                      .dwattr $C$DW$102, DW_AT_bit_offset(0x08)
    1507                      .dwattr $C$DW$102, DW_AT_bit_size(0x01)
    1508                      .dwattr $C$DW$102, DW_AT_data_member_location[DW_OP_plus_uconst 0x0]
    1509                      .dwattr $C$DW$102, DW_AT_accessibility(DW_ACCESS_public)
    1510              
    1511              $C$DW$103       .dwtag  DW_TAG_member
    1512                      .dwattr $C$DW$103, DW_AT_type(*$C$DW$T$19)
    1513                      .dwattr $C$DW$103, DW_AT_name("rsvd2")
    1514                      .dwattr $C$DW$103, DW_AT_TI_symbol_name("_rsvd2")
    1515                      .dwattr $C$DW$103, DW_AT_bit_offset(0x03)
    1516                      .dwattr $C$DW$103, DW_AT_bit_size(0x05)
    1517                      .dwattr $C$DW$103, DW_AT_data_member_location[DW_OP_plus_uconst 0x0]
    1518                      .dwattr $C$DW$103, DW_AT_accessibility(DW_ACCESS_public)
    1519              
    1520              $C$DW$104       .dwtag  DW_TAG_member
    1521                      .dwattr $C$DW$104, DW_AT_type(*$C$DW$T$19)
    1522                      .dwattr $C$DW$104, DW_AT_name("rsvd3")
    1523                      .dwattr $C$DW$104, DW_AT_TI_symbol_name("_rsvd3")
    1524                      .dwattr $C$DW$104, DW_AT_bit_offset(0x00)
    1525                      .dwattr $C$DW$104, DW_AT_bit_size(0x03)
    1526                      .dwattr $C$DW$104, DW_AT_data_member_location[DW_OP_plus_uconst 0x0]
    1527                      .dwattr $C$DW$104, DW_AT_accessibility(DW_ACCESS_public)
    1528              
    1529                      .dwendtag $C$DW$T$29
    1530              
    1531              
    1532              $C$DW$T$30      .dwtag  DW_TAG_union_type
    1533                      .dwattr $C$DW$T$30, DW_AT_name("ADCCTL2_REG")
    1534                      .dwattr $C$DW$T$30, DW_AT_byte_size(0x01)
    1535              $C$DW$105       .dwtag  DW_TAG_member
    1536                      .dwattr $C$DW$105, DW_AT_type(*$C$DW$T$19)
    1537                      .dwattr $C$DW$105, DW_AT_name("all")
    1538                      .dwattr $C$DW$105, DW_AT_TI_symbol_name("_all")
    1539                      .dwattr $C$DW$105, DW_AT_data_member_location[DW_OP_plus_uconst 0x0]
    1540                      .dwattr $C$DW$105, DW_AT_accessibility(DW_ACCESS_public)
    1541              
    1542              $C$DW$106       .dwtag  DW_TAG_member
    1543                      .dwattr $C$DW$106, DW_AT_type(*$C$DW$T$29)
TMS320C2000 Assembler PC v15.12.1 Tue Jul 04 10:45:52 2017

Tools Copyright (c) 1996-2015 Texas Instruments Incorporated
resolver.asm                                                         PAGE   32

    1544                      .dwattr $C$DW$106, DW_AT_name("bit")
    1545                      .dwattr $C$DW$106, DW_AT_TI_symbol_name("_bit")
    1546                      .dwattr $C$DW$106, DW_AT_data_member_location[DW_OP_plus_uconst 0x0]
    1547                      .dwattr $C$DW$106, DW_AT_accessibility(DW_ACCESS_public)
    1548              
    1549                      .dwendtag $C$DW$T$30
    1550              
    1551              
    1552              $C$DW$T$31      .dwtag  DW_TAG_structure_type
    1553                      .dwattr $C$DW$T$31, DW_AT_name("ADCEVTCLR_BITS")
    1554                      .dwattr $C$DW$T$31, DW_AT_byte_size(0x01)
    1555              $C$DW$107       .dwtag  DW_TAG_member
    1556                      .dwattr $C$DW$107, DW_AT_type(*$C$DW$T$19)
    1557                      .dwattr $C$DW$107, DW_AT_name("PPB1TRIPHI")
    1558                      .dwattr $C$DW$107, DW_AT_TI_symbol_name("_PPB1TRIPHI")
    1559                      .dwattr $C$DW$107, DW_AT_bit_offset(0x0f)
    1560                      .dwattr $C$DW$107, DW_AT_bit_size(0x01)
    1561                      .dwattr $C$DW$107, DW_AT_data_member_location[DW_OP_plus_uconst 0x0]
    1562                      .dwattr $C$DW$107, DW_AT_accessibility(DW_ACCESS_public)
    1563              
    1564              $C$DW$108       .dwtag  DW_TAG_member
    1565                      .dwattr $C$DW$108, DW_AT_type(*$C$DW$T$19)
    1566                      .dwattr $C$DW$108, DW_AT_name("PPB1TRIPLO")
    1567                      .dwattr $C$DW$108, DW_AT_TI_symbol_name("_PPB1TRIPLO")
    1568                      .dwattr $C$DW$108, DW_AT_bit_offset(0x0e)
    1569                      .dwattr $C$DW$108, DW_AT_bit_size(0x01)
    1570                      .dwattr $C$DW$108, DW_AT_data_member_location[DW_OP_plus_uconst 0x0]
    1571                      .dwattr $C$DW$108, DW_AT_accessibility(DW_ACCESS_public)
    1572              
    1573              $C$DW$109       .dwtag  DW_TAG_member
    1574                      .dwattr $C$DW$109, DW_AT_type(*$C$DW$T$19)
    1575                      .dwattr $C$DW$109, DW_AT_name("PPB1ZERO")
    1576                      .dwattr $C$DW$109, DW_AT_TI_symbol_name("_PPB1ZERO")
    1577                      .dwattr $C$DW$109, DW_AT_bit_offset(0x0d)
    1578                      .dwattr $C$DW$109, DW_AT_bit_size(0x01)
    1579                      .dwattr $C$DW$109, DW_AT_data_member_location[DW_OP_plus_uconst 0x0]
    1580                      .dwattr $C$DW$109, DW_AT_accessibility(DW_ACCESS_public)
    1581              
    1582              $C$DW$110       .dwtag  DW_TAG_member
    1583                      .dwattr $C$DW$110, DW_AT_type(*$C$DW$T$19)
    1584                      .dwattr $C$DW$110, DW_AT_name("rsvd1")
    1585                      .dwattr $C$DW$110, DW_AT_TI_symbol_name("_rsvd1")
    1586                      .dwattr $C$DW$110, DW_AT_bit_offset(0x0c)
    1587                      .dwattr $C$DW$110, DW_AT_bit_size(0x01)
    1588                      .dwattr $C$DW$110, DW_AT_data_member_location[DW_OP_plus_uconst 0x0]
    1589                      .dwattr $C$DW$110, DW_AT_accessibility(DW_ACCESS_public)
    1590              
    1591              $C$DW$111       .dwtag  DW_TAG_member
    1592                      .dwattr $C$DW$111, DW_AT_type(*$C$DW$T$19)
    1593                      .dwattr $C$DW$111, DW_AT_name("PPB2TRIPHI")
    1594                      .dwattr $C$DW$111, DW_AT_TI_symbol_name("_PPB2TRIPHI")
    1595                      .dwattr $C$DW$111, DW_AT_bit_offset(0x0b)
    1596                      .dwattr $C$DW$111, DW_AT_bit_size(0x01)
    1597                      .dwattr $C$DW$111, DW_AT_data_member_location[DW_OP_plus_uconst 0x0]
    1598                      .dwattr $C$DW$111, DW_AT_accessibility(DW_ACCESS_public)
TMS320C2000 Assembler PC v15.12.1 Tue Jul 04 10:45:52 2017

Tools Copyright (c) 1996-2015 Texas Instruments Incorporated
resolver.asm                                                         PAGE   33

    1599              
    1600              $C$DW$112       .dwtag  DW_TAG_member
    1601                      .dwattr $C$DW$112, DW_AT_type(*$C$DW$T$19)
    1602                      .dwattr $C$DW$112, DW_AT_name("PPB2TRIPLO")
    1603                      .dwattr $C$DW$112, DW_AT_TI_symbol_name("_PPB2TRIPLO")
    1604                      .dwattr $C$DW$112, DW_AT_bit_offset(0x0a)
    1605                      .dwattr $C$DW$112, DW_AT_bit_size(0x01)
    1606                      .dwattr $C$DW$112, DW_AT_data_member_location[DW_OP_plus_uconst 0x0]
    1607                      .dwattr $C$DW$112, DW_AT_accessibility(DW_ACCESS_public)
    1608              
    1609              $C$DW$113       .dwtag  DW_TAG_member
    1610                      .dwattr $C$DW$113, DW_AT_type(*$C$DW$T$19)
    1611                      .dwattr $C$DW$113, DW_AT_name("PPB2ZERO")
    1612                      .dwattr $C$DW$113, DW_AT_TI_symbol_name("_PPB2ZERO")
    1613                      .dwattr $C$DW$113, DW_AT_bit_offset(0x09)
    1614                      .dwattr $C$DW$113, DW_AT_bit_size(0x01)
    1615                      .dwattr $C$DW$113, DW_AT_data_member_location[DW_OP_plus_uconst 0x0]
    1616                      .dwattr $C$DW$113, DW_AT_accessibility(DW_ACCESS_public)
    1617              
    1618              $C$DW$114       .dwtag  DW_TAG_member
    1619                      .dwattr $C$DW$114, DW_AT_type(*$C$DW$T$19)
    1620                      .dwattr $C$DW$114, DW_AT_name("rsvd2")
    1621                      .dwattr $C$DW$114, DW_AT_TI_symbol_name("_rsvd2")
    1622                      .dwattr $C$DW$114, DW_AT_bit_offset(0x08)
    1623                      .dwattr $C$DW$114, DW_AT_bit_size(0x01)
    1624                      .dwattr $C$DW$114, DW_AT_data_member_location[DW_OP_plus_uconst 0x0]
    1625                      .dwattr $C$DW$114, DW_AT_accessibility(DW_ACCESS_public)
    1626              
    1627              $C$DW$115       .dwtag  DW_TAG_member
    1628                      .dwattr $C$DW$115, DW_AT_type(*$C$DW$T$19)
    1629                      .dwattr $C$DW$115, DW_AT_name("PPB3TRIPHI")
    1630                      .dwattr $C$DW$115, DW_AT_TI_symbol_name("_PPB3TRIPHI")
    1631                      .dwattr $C$DW$115, DW_AT_bit_offset(0x07)
    1632                      .dwattr $C$DW$115, DW_AT_bit_size(0x01)
    1633                      .dwattr $C$DW$115, DW_AT_data_member_location[DW_OP_plus_uconst 0x0]
    1634                      .dwattr $C$DW$115, DW_AT_accessibility(DW_ACCESS_public)
    1635              
    1636              $C$DW$116       .dwtag  DW_TAG_member
    1637                      .dwattr $C$DW$116, DW_AT_type(*$C$DW$T$19)
    1638                      .dwattr $C$DW$116, DW_AT_name("PPB3TRIPLO")
    1639                      .dwattr $C$DW$116, DW_AT_TI_symbol_name("_PPB3TRIPLO")
    1640                      .dwattr $C$DW$116, DW_AT_bit_offset(0x06)
    1641                      .dwattr $C$DW$116, DW_AT_bit_size(0x01)
    1642                      .dwattr $C$DW$116, DW_AT_data_member_location[DW_OP_plus_uconst 0x0]
    1643                      .dwattr $C$DW$116, DW_AT_accessibility(DW_ACCESS_public)
    1644              
    1645              $C$DW$117       .dwtag  DW_TAG_member
    1646                      .dwattr $C$DW$117, DW_AT_type(*$C$DW$T$19)
    1647                      .dwattr $C$DW$117, DW_AT_name("PPB3ZERO")
    1648                      .dwattr $C$DW$117, DW_AT_TI_symbol_name("_PPB3ZERO")
    1649                      .dwattr $C$DW$117, DW_AT_bit_offset(0x05)
    1650                      .dwattr $C$DW$117, DW_AT_bit_size(0x01)
    1651                      .dwattr $C$DW$117, DW_AT_data_member_location[DW_OP_plus_uconst 0x0]
    1652                      .dwattr $C$DW$117, DW_AT_accessibility(DW_ACCESS_public)
    1653              
TMS320C2000 Assembler PC v15.12.1 Tue Jul 04 10:45:52 2017

Tools Copyright (c) 1996-2015 Texas Instruments Incorporated
resolver.asm                                                         PAGE   34

    1654              $C$DW$118       .dwtag  DW_TAG_member
    1655                      .dwattr $C$DW$118, DW_AT_type(*$C$DW$T$19)
    1656                      .dwattr $C$DW$118, DW_AT_name("rsvd3")
    1657                      .dwattr $C$DW$118, DW_AT_TI_symbol_name("_rsvd3")
    1658                      .dwattr $C$DW$118, DW_AT_bit_offset(0x04)
    1659                      .dwattr $C$DW$118, DW_AT_bit_size(0x01)
    1660                      .dwattr $C$DW$118, DW_AT_data_member_location[DW_OP_plus_uconst 0x0]
    1661                      .dwattr $C$DW$118, DW_AT_accessibility(DW_ACCESS_public)
    1662              
    1663              $C$DW$119       .dwtag  DW_TAG_member
    1664                      .dwattr $C$DW$119, DW_AT_type(*$C$DW$T$19)
    1665                      .dwattr $C$DW$119, DW_AT_name("PPB4TRIPHI")
    1666                      .dwattr $C$DW$119, DW_AT_TI_symbol_name("_PPB4TRIPHI")
    1667                      .dwattr $C$DW$119, DW_AT_bit_offset(0x03)
    1668                      .dwattr $C$DW$119, DW_AT_bit_size(0x01)
    1669                      .dwattr $C$DW$119, DW_AT_data_member_location[DW_OP_plus_uconst 0x0]
    1670                      .dwattr $C$DW$119, DW_AT_accessibility(DW_ACCESS_public)
    1671              
    1672              $C$DW$120       .dwtag  DW_TAG_member
    1673                      .dwattr $C$DW$120, DW_AT_type(*$C$DW$T$19)
    1674                      .dwattr $C$DW$120, DW_AT_name("PPB4TRIPLO")
    1675                      .dwattr $C$DW$120, DW_AT_TI_symbol_name("_PPB4TRIPLO")
    1676                      .dwattr $C$DW$120, DW_AT_bit_offset(0x02)
    1677                      .dwattr $C$DW$120, DW_AT_bit_size(0x01)
    1678                      .dwattr $C$DW$120, DW_AT_data_member_location[DW_OP_plus_uconst 0x0]
    1679                      .dwattr $C$DW$120, DW_AT_accessibility(DW_ACCESS_public)
    1680              
    1681              $C$DW$121       .dwtag  DW_TAG_member
    1682                      .dwattr $C$DW$121, DW_AT_type(*$C$DW$T$19)
    1683                      .dwattr $C$DW$121, DW_AT_name("PPB4ZERO")
    1684                      .dwattr $C$DW$121, DW_AT_TI_symbol_name("_PPB4ZERO")
    1685                      .dwattr $C$DW$121, DW_AT_bit_offset(0x01)
    1686                      .dwattr $C$DW$121, DW_AT_bit_size(0x01)
    1687                      .dwattr $C$DW$121, DW_AT_data_member_location[DW_OP_plus_uconst 0x0]
    1688                      .dwattr $C$DW$121, DW_AT_accessibility(DW_ACCESS_public)
    1689              
    1690              $C$DW$122       .dwtag  DW_TAG_member
    1691                      .dwattr $C$DW$122, DW_AT_type(*$C$DW$T$19)
    1692                      .dwattr $C$DW$122, DW_AT_name("rsvd4")
    1693                      .dwattr $C$DW$122, DW_AT_TI_symbol_name("_rsvd4")
    1694                      .dwattr $C$DW$122, DW_AT_bit_offset(0x00)
    1695                      .dwattr $C$DW$122, DW_AT_bit_size(0x01)
    1696                      .dwattr $C$DW$122, DW_AT_data_member_location[DW_OP_plus_uconst 0x0]
    1697                      .dwattr $C$DW$122, DW_AT_accessibility(DW_ACCESS_public)
    1698              
    1699                      .dwendtag $C$DW$T$31
    1700              
    1701              
    1702              $C$DW$T$32      .dwtag  DW_TAG_union_type
    1703                      .dwattr $C$DW$T$32, DW_AT_name("ADCEVTCLR_REG")
    1704                      .dwattr $C$DW$T$32, DW_AT_byte_size(0x01)
    1705              $C$DW$123       .dwtag  DW_TAG_member
    1706                      .dwattr $C$DW$123, DW_AT_type(*$C$DW$T$19)
    1707                      .dwattr $C$DW$123, DW_AT_name("all")
    1708                      .dwattr $C$DW$123, DW_AT_TI_symbol_name("_all")
TMS320C2000 Assembler PC v15.12.1 Tue Jul 04 10:45:52 2017

Tools Copyright (c) 1996-2015 Texas Instruments Incorporated
resolver.asm                                                         PAGE   35

    1709                      .dwattr $C$DW$123, DW_AT_data_member_location[DW_OP_plus_uconst 0x0]
    1710                      .dwattr $C$DW$123, DW_AT_accessibility(DW_ACCESS_public)
    1711              
    1712              $C$DW$124       .dwtag  DW_TAG_member
    1713                      .dwattr $C$DW$124, DW_AT_type(*$C$DW$T$31)
    1714                      .dwattr $C$DW$124, DW_AT_name("bit")
    1715                      .dwattr $C$DW$124, DW_AT_TI_symbol_name("_bit")
    1716                      .dwattr $C$DW$124, DW_AT_data_member_location[DW_OP_plus_uconst 0x0]
    1717                      .dwattr $C$DW$124, DW_AT_accessibility(DW_ACCESS_public)
    1718              
    1719                      .dwendtag $C$DW$T$32
    1720              
    1721              
    1722              $C$DW$T$33      .dwtag  DW_TAG_structure_type
    1723                      .dwattr $C$DW$T$33, DW_AT_name("ADCEVTINTSEL_BITS")
    1724                      .dwattr $C$DW$T$33, DW_AT_byte_size(0x01)
    1725              $C$DW$125       .dwtag  DW_TAG_member
    1726                      .dwattr $C$DW$125, DW_AT_type(*$C$DW$T$19)
    1727                      .dwattr $C$DW$125, DW_AT_name("PPB1TRIPHI")
    1728                      .dwattr $C$DW$125, DW_AT_TI_symbol_name("_PPB1TRIPHI")
    1729                      .dwattr $C$DW$125, DW_AT_bit_offset(0x0f)
    1730                      .dwattr $C$DW$125, DW_AT_bit_size(0x01)
    1731                      .dwattr $C$DW$125, DW_AT_data_member_location[DW_OP_plus_uconst 0x0]
    1732                      .dwattr $C$DW$125, DW_AT_accessibility(DW_ACCESS_public)
    1733              
    1734              $C$DW$126       .dwtag  DW_TAG_member
    1735                      .dwattr $C$DW$126, DW_AT_type(*$C$DW$T$19)
    1736                      .dwattr $C$DW$126, DW_AT_name("PPB1TRIPLO")
    1737                      .dwattr $C$DW$126, DW_AT_TI_symbol_name("_PPB1TRIPLO")
    1738                      .dwattr $C$DW$126, DW_AT_bit_offset(0x0e)
    1739                      .dwattr $C$DW$126, DW_AT_bit_size(0x01)
    1740                      .dwattr $C$DW$126, DW_AT_data_member_location[DW_OP_plus_uconst 0x0]
    1741                      .dwattr $C$DW$126, DW_AT_accessibility(DW_ACCESS_public)
    1742              
    1743              $C$DW$127       .dwtag  DW_TAG_member
    1744                      .dwattr $C$DW$127, DW_AT_type(*$C$DW$T$19)
    1745                      .dwattr $C$DW$127, DW_AT_name("PPB1ZERO")
    1746                      .dwattr $C$DW$127, DW_AT_TI_symbol_name("_PPB1ZERO")
    1747                      .dwattr $C$DW$127, DW_AT_bit_offset(0x0d)
    1748                      .dwattr $C$DW$127, DW_AT_bit_size(0x01)
    1749                      .dwattr $C$DW$127, DW_AT_data_member_location[DW_OP_plus_uconst 0x0]
    1750                      .dwattr $C$DW$127, DW_AT_accessibility(DW_ACCESS_public)
    1751              
    1752              $C$DW$128       .dwtag  DW_TAG_member
    1753                      .dwattr $C$DW$128, DW_AT_type(*$C$DW$T$19)
    1754                      .dwattr $C$DW$128, DW_AT_name("rsvd1")
    1755                      .dwattr $C$DW$128, DW_AT_TI_symbol_name("_rsvd1")
    1756                      .dwattr $C$DW$128, DW_AT_bit_offset(0x0c)
    1757                      .dwattr $C$DW$128, DW_AT_bit_size(0x01)
    1758                      .dwattr $C$DW$128, DW_AT_data_member_location[DW_OP_plus_uconst 0x0]
    1759                      .dwattr $C$DW$128, DW_AT_accessibility(DW_ACCESS_public)
    1760              
    1761              $C$DW$129       .dwtag  DW_TAG_member
    1762                      .dwattr $C$DW$129, DW_AT_type(*$C$DW$T$19)
    1763                      .dwattr $C$DW$129, DW_AT_name("PPB2TRIPHI")
TMS320C2000 Assembler PC v15.12.1 Tue Jul 04 10:45:52 2017

Tools Copyright (c) 1996-2015 Texas Instruments Incorporated
resolver.asm                                                         PAGE   36

    1764                      .dwattr $C$DW$129, DW_AT_TI_symbol_name("_PPB2TRIPHI")
    1765                      .dwattr $C$DW$129, DW_AT_bit_offset(0x0b)
    1766                      .dwattr $C$DW$129, DW_AT_bit_size(0x01)
    1767                      .dwattr $C$DW$129, DW_AT_data_member_location[DW_OP_plus_uconst 0x0]
    1768                      .dwattr $C$DW$129, DW_AT_accessibility(DW_ACCESS_public)
    1769              
    1770              $C$DW$130       .dwtag  DW_TAG_member
    1771                      .dwattr $C$DW$130, DW_AT_type(*$C$DW$T$19)
    1772                      .dwattr $C$DW$130, DW_AT_name("PPB2TRIPLO")
    1773                      .dwattr $C$DW$130, DW_AT_TI_symbol_name("_PPB2TRIPLO")
    1774                      .dwattr $C$DW$130, DW_AT_bit_offset(0x0a)
    1775                      .dwattr $C$DW$130, DW_AT_bit_size(0x01)
    1776                      .dwattr $C$DW$130, DW_AT_data_member_location[DW_OP_plus_uconst 0x0]
    1777                      .dwattr $C$DW$130, DW_AT_accessibility(DW_ACCESS_public)
    1778              
    1779              $C$DW$131       .dwtag  DW_TAG_member
    1780                      .dwattr $C$DW$131, DW_AT_type(*$C$DW$T$19)
    1781                      .dwattr $C$DW$131, DW_AT_name("PPB2ZERO")
    1782                      .dwattr $C$DW$131, DW_AT_TI_symbol_name("_PPB2ZERO")
    1783                      .dwattr $C$DW$131, DW_AT_bit_offset(0x09)
    1784                      .dwattr $C$DW$131, DW_AT_bit_size(0x01)
    1785                      .dwattr $C$DW$131, DW_AT_data_member_location[DW_OP_plus_uconst 0x0]
    1786                      .dwattr $C$DW$131, DW_AT_accessibility(DW_ACCESS_public)
    1787              
    1788              $C$DW$132       .dwtag  DW_TAG_member
    1789                      .dwattr $C$DW$132, DW_AT_type(*$C$DW$T$19)
    1790                      .dwattr $C$DW$132, DW_AT_name("rsvd2")
    1791                      .dwattr $C$DW$132, DW_AT_TI_symbol_name("_rsvd2")
    1792                      .dwattr $C$DW$132, DW_AT_bit_offset(0x08)
    1793                      .dwattr $C$DW$132, DW_AT_bit_size(0x01)
    1794                      .dwattr $C$DW$132, DW_AT_data_member_location[DW_OP_plus_uconst 0x0]
    1795                      .dwattr $C$DW$132, DW_AT_accessibility(DW_ACCESS_public)
    1796              
    1797              $C$DW$133       .dwtag  DW_TAG_member
    1798                      .dwattr $C$DW$133, DW_AT_type(*$C$DW$T$19)
    1799                      .dwattr $C$DW$133, DW_AT_name("PPB3TRIPHI")
    1800                      .dwattr $C$DW$133, DW_AT_TI_symbol_name("_PPB3TRIPHI")
    1801                      .dwattr $C$DW$133, DW_AT_bit_offset(0x07)
    1802                      .dwattr $C$DW$133, DW_AT_bit_size(0x01)
    1803                      .dwattr $C$DW$133, DW_AT_data_member_location[DW_OP_plus_uconst 0x0]
    1804                      .dwattr $C$DW$133, DW_AT_accessibility(DW_ACCESS_public)
    1805              
    1806              $C$DW$134       .dwtag  DW_TAG_member
    1807                      .dwattr $C$DW$134, DW_AT_type(*$C$DW$T$19)
    1808                      .dwattr $C$DW$134, DW_AT_name("PPB3TRIPLO")
    1809                      .dwattr $C$DW$134, DW_AT_TI_symbol_name("_PPB3TRIPLO")
    1810                      .dwattr $C$DW$134, DW_AT_bit_offset(0x06)
    1811                      .dwattr $C$DW$134, DW_AT_bit_size(0x01)
    1812                      .dwattr $C$DW$134, DW_AT_data_member_location[DW_OP_plus_uconst 0x0]
    1813                      .dwattr $C$DW$134, DW_AT_accessibility(DW_ACCESS_public)
    1814              
    1815              $C$DW$135       .dwtag  DW_TAG_member
    1816                      .dwattr $C$DW$135, DW_AT_type(*$C$DW$T$19)
    1817                      .dwattr $C$DW$135, DW_AT_name("PPB3ZERO")
    1818                      .dwattr $C$DW$135, DW_AT_TI_symbol_name("_PPB3ZERO")
TMS320C2000 Assembler PC v15.12.1 Tue Jul 04 10:45:52 2017

Tools Copyright (c) 1996-2015 Texas Instruments Incorporated
resolver.asm                                                         PAGE   37

    1819                      .dwattr $C$DW$135, DW_AT_bit_offset(0x05)
    1820                      .dwattr $C$DW$135, DW_AT_bit_size(0x01)
    1821                      .dwattr $C$DW$135, DW_AT_data_member_location[DW_OP_plus_uconst 0x0]
    1822                      .dwattr $C$DW$135, DW_AT_accessibility(DW_ACCESS_public)
    1823              
    1824              $C$DW$136       .dwtag  DW_TAG_member
    1825                      .dwattr $C$DW$136, DW_AT_type(*$C$DW$T$19)
    1826                      .dwattr $C$DW$136, DW_AT_name("rsvd3")
    1827                      .dwattr $C$DW$136, DW_AT_TI_symbol_name("_rsvd3")
    1828                      .dwattr $C$DW$136, DW_AT_bit_offset(0x04)
    1829                      .dwattr $C$DW$136, DW_AT_bit_size(0x01)
    1830                      .dwattr $C$DW$136, DW_AT_data_member_location[DW_OP_plus_uconst 0x0]
    1831                      .dwattr $C$DW$136, DW_AT_accessibility(DW_ACCESS_public)
    1832              
    1833              $C$DW$137       .dwtag  DW_TAG_member
    1834                      .dwattr $C$DW$137, DW_AT_type(*$C$DW$T$19)
    1835                      .dwattr $C$DW$137, DW_AT_name("PPB4TRIPHI")
    1836                      .dwattr $C$DW$137, DW_AT_TI_symbol_name("_PPB4TRIPHI")
    1837                      .dwattr $C$DW$137, DW_AT_bit_offset(0x03)
    1838                      .dwattr $C$DW$137, DW_AT_bit_size(0x01)
    1839                      .dwattr $C$DW$137, DW_AT_data_member_location[DW_OP_plus_uconst 0x0]
    1840                      .dwattr $C$DW$137, DW_AT_accessibility(DW_ACCESS_public)
    1841              
    1842              $C$DW$138       .dwtag  DW_TAG_member
    1843                      .dwattr $C$DW$138, DW_AT_type(*$C$DW$T$19)
    1844                      .dwattr $C$DW$138, DW_AT_name("PPB4TRIPLO")
    1845                      .dwattr $C$DW$138, DW_AT_TI_symbol_name("_PPB4TRIPLO")
    1846                      .dwattr $C$DW$138, DW_AT_bit_offset(0x02)
    1847                      .dwattr $C$DW$138, DW_AT_bit_size(0x01)
    1848                      .dwattr $C$DW$138, DW_AT_data_member_location[DW_OP_plus_uconst 0x0]
    1849                      .dwattr $C$DW$138, DW_AT_accessibility(DW_ACCESS_public)
    1850              
    1851              $C$DW$139       .dwtag  DW_TAG_member
    1852                      .dwattr $C$DW$139, DW_AT_type(*$C$DW$T$19)
    1853                      .dwattr $C$DW$139, DW_AT_name("PPB4ZERO")
    1854                      .dwattr $C$DW$139, DW_AT_TI_symbol_name("_PPB4ZERO")
    1855                      .dwattr $C$DW$139, DW_AT_bit_offset(0x01)
    1856                      .dwattr $C$DW$139, DW_AT_bit_size(0x01)
    1857                      .dwattr $C$DW$139, DW_AT_data_member_location[DW_OP_plus_uconst 0x0]
    1858                      .dwattr $C$DW$139, DW_AT_accessibility(DW_ACCESS_public)
    1859              
    1860              $C$DW$140       .dwtag  DW_TAG_member
    1861                      .dwattr $C$DW$140, DW_AT_type(*$C$DW$T$19)
    1862                      .dwattr $C$DW$140, DW_AT_name("rsvd4")
    1863                      .dwattr $C$DW$140, DW_AT_TI_symbol_name("_rsvd4")
    1864                      .dwattr $C$DW$140, DW_AT_bit_offset(0x00)
    1865                      .dwattr $C$DW$140, DW_AT_bit_size(0x01)
    1866                      .dwattr $C$DW$140, DW_AT_data_member_location[DW_OP_plus_uconst 0x0]
    1867                      .dwattr $C$DW$140, DW_AT_accessibility(DW_ACCESS_public)
    1868              
    1869                      .dwendtag $C$DW$T$33
    1870              
    1871              
    1872              $C$DW$T$34      .dwtag  DW_TAG_union_type
    1873                      .dwattr $C$DW$T$34, DW_AT_name("ADCEVTINTSEL_REG")
TMS320C2000 Assembler PC v15.12.1 Tue Jul 04 10:45:52 2017

Tools Copyright (c) 1996-2015 Texas Instruments Incorporated
resolver.asm                                                         PAGE   38

    1874                      .dwattr $C$DW$T$34, DW_AT_byte_size(0x01)
    1875              $C$DW$141       .dwtag  DW_TAG_member
    1876                      .dwattr $C$DW$141, DW_AT_type(*$C$DW$T$19)
    1877                      .dwattr $C$DW$141, DW_AT_name("all")
    1878                      .dwattr $C$DW$141, DW_AT_TI_symbol_name("_all")
    1879                      .dwattr $C$DW$141, DW_AT_data_member_location[DW_OP_plus_uconst 0x0]
    1880                      .dwattr $C$DW$141, DW_AT_accessibility(DW_ACCESS_public)
    1881              
    1882              $C$DW$142       .dwtag  DW_TAG_member
    1883                      .dwattr $C$DW$142, DW_AT_type(*$C$DW$T$33)
    1884                      .dwattr $C$DW$142, DW_AT_name("bit")
    1885                      .dwattr $C$DW$142, DW_AT_TI_symbol_name("_bit")
    1886                      .dwattr $C$DW$142, DW_AT_data_member_location[DW_OP_plus_uconst 0x0]
    1887                      .dwattr $C$DW$142, DW_AT_accessibility(DW_ACCESS_public)
    1888              
    1889                      .dwendtag $C$DW$T$34
    1890              
    1891              
    1892              $C$DW$T$35      .dwtag  DW_TAG_structure_type
    1893                      .dwattr $C$DW$T$35, DW_AT_name("ADCEVTSEL_BITS")
    1894                      .dwattr $C$DW$T$35, DW_AT_byte_size(0x01)
    1895              $C$DW$143       .dwtag  DW_TAG_member
    1896                      .dwattr $C$DW$143, DW_AT_type(*$C$DW$T$19)
    1897                      .dwattr $C$DW$143, DW_AT_name("PPB1TRIPHI")
    1898                      .dwattr $C$DW$143, DW_AT_TI_symbol_name("_PPB1TRIPHI")
    1899                      .dwattr $C$DW$143, DW_AT_bit_offset(0x0f)
    1900                      .dwattr $C$DW$143, DW_AT_bit_size(0x01)
    1901                      .dwattr $C$DW$143, DW_AT_data_member_location[DW_OP_plus_uconst 0x0]
    1902                      .dwattr $C$DW$143, DW_AT_accessibility(DW_ACCESS_public)
    1903              
    1904              $C$DW$144       .dwtag  DW_TAG_member
    1905                      .dwattr $C$DW$144, DW_AT_type(*$C$DW$T$19)
    1906                      .dwattr $C$DW$144, DW_AT_name("PPB1TRIPLO")
    1907                      .dwattr $C$DW$144, DW_AT_TI_symbol_name("_PPB1TRIPLO")
    1908                      .dwattr $C$DW$144, DW_AT_bit_offset(0x0e)
    1909                      .dwattr $C$DW$144, DW_AT_bit_size(0x01)
    1910                      .dwattr $C$DW$144, DW_AT_data_member_location[DW_OP_plus_uconst 0x0]
    1911                      .dwattr $C$DW$144, DW_AT_accessibility(DW_ACCESS_public)
    1912              
    1913              $C$DW$145       .dwtag  DW_TAG_member
    1914                      .dwattr $C$DW$145, DW_AT_type(*$C$DW$T$19)
    1915                      .dwattr $C$DW$145, DW_AT_name("PPB1ZERO")
    1916                      .dwattr $C$DW$145, DW_AT_TI_symbol_name("_PPB1ZERO")
    1917                      .dwattr $C$DW$145, DW_AT_bit_offset(0x0d)
    1918                      .dwattr $C$DW$145, DW_AT_bit_size(0x01)
    1919                      .dwattr $C$DW$145, DW_AT_data_member_location[DW_OP_plus_uconst 0x0]
    1920                      .dwattr $C$DW$145, DW_AT_accessibility(DW_ACCESS_public)
    1921              
    1922              $C$DW$146       .dwtag  DW_TAG_member
    1923                      .dwattr $C$DW$146, DW_AT_type(*$C$DW$T$19)
    1924                      .dwattr $C$DW$146, DW_AT_name("rsvd1")
    1925                      .dwattr $C$DW$146, DW_AT_TI_symbol_name("_rsvd1")
    1926                      .dwattr $C$DW$146, DW_AT_bit_offset(0x0c)
    1927                      .dwattr $C$DW$146, DW_AT_bit_size(0x01)
    1928                      .dwattr $C$DW$146, DW_AT_data_member_location[DW_OP_plus_uconst 0x0]
TMS320C2000 Assembler PC v15.12.1 Tue Jul 04 10:45:52 2017

Tools Copyright (c) 1996-2015 Texas Instruments Incorporated
resolver.asm                                                         PAGE   39

    1929                      .dwattr $C$DW$146, DW_AT_accessibility(DW_ACCESS_public)
    1930              
    1931              $C$DW$147       .dwtag  DW_TAG_member
    1932                      .dwattr $C$DW$147, DW_AT_type(*$C$DW$T$19)
    1933                      .dwattr $C$DW$147, DW_AT_name("PPB2TRIPHI")
    1934                      .dwattr $C$DW$147, DW_AT_TI_symbol_name("_PPB2TRIPHI")
    1935                      .dwattr $C$DW$147, DW_AT_bit_offset(0x0b)
    1936                      .dwattr $C$DW$147, DW_AT_bit_size(0x01)
    1937                      .dwattr $C$DW$147, DW_AT_data_member_location[DW_OP_plus_uconst 0x0]
    1938                      .dwattr $C$DW$147, DW_AT_accessibility(DW_ACCESS_public)
    1939              
    1940              $C$DW$148       .dwtag  DW_TAG_member
    1941                      .dwattr $C$DW$148, DW_AT_type(*$C$DW$T$19)
    1942                      .dwattr $C$DW$148, DW_AT_name("PPB2TRIPLO")
    1943                      .dwattr $C$DW$148, DW_AT_TI_symbol_name("_PPB2TRIPLO")
    1944                      .dwattr $C$DW$148, DW_AT_bit_offset(0x0a)
    1945                      .dwattr $C$DW$148, DW_AT_bit_size(0x01)
    1946                      .dwattr $C$DW$148, DW_AT_data_member_location[DW_OP_plus_uconst 0x0]
    1947                      .dwattr $C$DW$148, DW_AT_accessibility(DW_ACCESS_public)
    1948              
    1949              $C$DW$149       .dwtag  DW_TAG_member
    1950                      .dwattr $C$DW$149, DW_AT_type(*$C$DW$T$19)
    1951                      .dwattr $C$DW$149, DW_AT_name("PPB2ZERO")
    1952                      .dwattr $C$DW$149, DW_AT_TI_symbol_name("_PPB2ZERO")
    1953                      .dwattr $C$DW$149, DW_AT_bit_offset(0x09)
    1954                      .dwattr $C$DW$149, DW_AT_bit_size(0x01)
    1955                      .dwattr $C$DW$149, DW_AT_data_member_location[DW_OP_plus_uconst 0x0]
    1956                      .dwattr $C$DW$149, DW_AT_accessibility(DW_ACCESS_public)
    1957              
    1958              $C$DW$150       .dwtag  DW_TAG_member
    1959                      .dwattr $C$DW$150, DW_AT_type(*$C$DW$T$19)
    1960                      .dwattr $C$DW$150, DW_AT_name("rsvd2")
    1961                      .dwattr $C$DW$150, DW_AT_TI_symbol_name("_rsvd2")
    1962                      .dwattr $C$DW$150, DW_AT_bit_offset(0x08)
    1963                      .dwattr $C$DW$150, DW_AT_bit_size(0x01)
    1964                      .dwattr $C$DW$150, DW_AT_data_member_location[DW_OP_plus_uconst 0x0]
    1965                      .dwattr $C$DW$150, DW_AT_accessibility(DW_ACCESS_public)
    1966              
    1967              $C$DW$151       .dwtag  DW_TAG_member
    1968                      .dwattr $C$DW$151, DW_AT_type(*$C$DW$T$19)
    1969                      .dwattr $C$DW$151, DW_AT_name("PPB3TRIPHI")
    1970                      .dwattr $C$DW$151, DW_AT_TI_symbol_name("_PPB3TRIPHI")
    1971                      .dwattr $C$DW$151, DW_AT_bit_offset(0x07)
    1972                      .dwattr $C$DW$151, DW_AT_bit_size(0x01)
    1973                      .dwattr $C$DW$151, DW_AT_data_member_location[DW_OP_plus_uconst 0x0]
    1974                      .dwattr $C$DW$151, DW_AT_accessibility(DW_ACCESS_public)
    1975              
    1976              $C$DW$152       .dwtag  DW_TAG_member
    1977                      .dwattr $C$DW$152, DW_AT_type(*$C$DW$T$19)
    1978                      .dwattr $C$DW$152, DW_AT_name("PPB3TRIPLO")
    1979                      .dwattr $C$DW$152, DW_AT_TI_symbol_name("_PPB3TRIPLO")
    1980                      .dwattr $C$DW$152, DW_AT_bit_offset(0x06)
    1981                      .dwattr $C$DW$152, DW_AT_bit_size(0x01)
    1982                      .dwattr $C$DW$152, DW_AT_data_member_location[DW_OP_plus_uconst 0x0]
    1983                      .dwattr $C$DW$152, DW_AT_accessibility(DW_ACCESS_public)
TMS320C2000 Assembler PC v15.12.1 Tue Jul 04 10:45:52 2017

Tools Copyright (c) 1996-2015 Texas Instruments Incorporated
resolver.asm                                                         PAGE   40

    1984              
    1985              $C$DW$153       .dwtag  DW_TAG_member
    1986                      .dwattr $C$DW$153, DW_AT_type(*$C$DW$T$19)
    1987                      .dwattr $C$DW$153, DW_AT_name("PPB3ZERO")
    1988                      .dwattr $C$DW$153, DW_AT_TI_symbol_name("_PPB3ZERO")
    1989                      .dwattr $C$DW$153, DW_AT_bit_offset(0x05)
    1990                      .dwattr $C$DW$153, DW_AT_bit_size(0x01)
    1991                      .dwattr $C$DW$153, DW_AT_data_member_location[DW_OP_plus_uconst 0x0]
    1992                      .dwattr $C$DW$153, DW_AT_accessibility(DW_ACCESS_public)
    1993              
    1994              $C$DW$154       .dwtag  DW_TAG_member
    1995                      .dwattr $C$DW$154, DW_AT_type(*$C$DW$T$19)
    1996                      .dwattr $C$DW$154, DW_AT_name("rsvd3")
    1997                      .dwattr $C$DW$154, DW_AT_TI_symbol_name("_rsvd3")
    1998                      .dwattr $C$DW$154, DW_AT_bit_offset(0x04)
    1999                      .dwattr $C$DW$154, DW_AT_bit_size(0x01)
    2000                      .dwattr $C$DW$154, DW_AT_data_member_location[DW_OP_plus_uconst 0x0]
    2001                      .dwattr $C$DW$154, DW_AT_accessibility(DW_ACCESS_public)
    2002              
    2003              $C$DW$155       .dwtag  DW_TAG_member
    2004                      .dwattr $C$DW$155, DW_AT_type(*$C$DW$T$19)
    2005                      .dwattr $C$DW$155, DW_AT_name("PPB4TRIPHI")
    2006                      .dwattr $C$DW$155, DW_AT_TI_symbol_name("_PPB4TRIPHI")
    2007                      .dwattr $C$DW$155, DW_AT_bit_offset(0x03)
    2008                      .dwattr $C$DW$155, DW_AT_bit_size(0x01)
    2009                      .dwattr $C$DW$155, DW_AT_data_member_location[DW_OP_plus_uconst 0x0]
    2010                      .dwattr $C$DW$155, DW_AT_accessibility(DW_ACCESS_public)
    2011              
    2012              $C$DW$156       .dwtag  DW_TAG_member
    2013                      .dwattr $C$DW$156, DW_AT_type(*$C$DW$T$19)
    2014                      .dwattr $C$DW$156, DW_AT_name("PPB4TRIPLO")
    2015                      .dwattr $C$DW$156, DW_AT_TI_symbol_name("_PPB4TRIPLO")
    2016                      .dwattr $C$DW$156, DW_AT_bit_offset(0x02)
    2017                      .dwattr $C$DW$156, DW_AT_bit_size(0x01)
    2018                      .dwattr $C$DW$156, DW_AT_data_member_location[DW_OP_plus_uconst 0x0]
    2019                      .dwattr $C$DW$156, DW_AT_accessibility(DW_ACCESS_public)
    2020              
    2021              $C$DW$157       .dwtag  DW_TAG_member
    2022                      .dwattr $C$DW$157, DW_AT_type(*$C$DW$T$19)
    2023                      .dwattr $C$DW$157, DW_AT_name("PPB4ZERO")
    2024                      .dwattr $C$DW$157, DW_AT_TI_symbol_name("_PPB4ZERO")
    2025                      .dwattr $C$DW$157, DW_AT_bit_offset(0x01)
    2026                      .dwattr $C$DW$157, DW_AT_bit_size(0x01)
    2027                      .dwattr $C$DW$157, DW_AT_data_member_location[DW_OP_plus_uconst 0x0]
    2028                      .dwattr $C$DW$157, DW_AT_accessibility(DW_ACCESS_public)
    2029              
    2030              $C$DW$158       .dwtag  DW_TAG_member
    2031                      .dwattr $C$DW$158, DW_AT_type(*$C$DW$T$19)
    2032                      .dwattr $C$DW$158, DW_AT_name("rsvd4")
    2033                      .dwattr $C$DW$158, DW_AT_TI_symbol_name("_rsvd4")
    2034                      .dwattr $C$DW$158, DW_AT_bit_offset(0x00)
    2035                      .dwattr $C$DW$158, DW_AT_bit_size(0x01)
    2036                      .dwattr $C$DW$158, DW_AT_data_member_location[DW_OP_plus_uconst 0x0]
    2037                      .dwattr $C$DW$158, DW_AT_accessibility(DW_ACCESS_public)
    2038              
TMS320C2000 Assembler PC v15.12.1 Tue Jul 04 10:45:52 2017

Tools Copyright (c) 1996-2015 Texas Instruments Incorporated
resolver.asm                                                         PAGE   41

    2039                      .dwendtag $C$DW$T$35
    2040              
    2041              
    2042              $C$DW$T$36      .dwtag  DW_TAG_union_type
    2043                      .dwattr $C$DW$T$36, DW_AT_name("ADCEVTSEL_REG")
    2044                      .dwattr $C$DW$T$36, DW_AT_byte_size(0x01)
    2045              $C$DW$159       .dwtag  DW_TAG_member
    2046                      .dwattr $C$DW$159, DW_AT_type(*$C$DW$T$19)
    2047                      .dwattr $C$DW$159, DW_AT_name("all")
    2048                      .dwattr $C$DW$159, DW_AT_TI_symbol_name("_all")
    2049                      .dwattr $C$DW$159, DW_AT_data_member_location[DW_OP_plus_uconst 0x0]
    2050                      .dwattr $C$DW$159, DW_AT_accessibility(DW_ACCESS_public)
    2051              
    2052              $C$DW$160       .dwtag  DW_TAG_member
    2053                      .dwattr $C$DW$160, DW_AT_type(*$C$DW$T$35)
    2054                      .dwattr $C$DW$160, DW_AT_name("bit")
    2055                      .dwattr $C$DW$160, DW_AT_TI_symbol_name("_bit")
    2056                      .dwattr $C$DW$160, DW_AT_data_member_location[DW_OP_plus_uconst 0x0]
    2057                      .dwattr $C$DW$160, DW_AT_accessibility(DW_ACCESS_public)
    2058              
    2059                      .dwendtag $C$DW$T$36
    2060              
    2061              
    2062              $C$DW$T$37      .dwtag  DW_TAG_structure_type
    2063                      .dwattr $C$DW$T$37, DW_AT_name("ADCEVTSTAT_BITS")
    2064                      .dwattr $C$DW$T$37, DW_AT_byte_size(0x01)
    2065              $C$DW$161       .dwtag  DW_TAG_member
    2066                      .dwattr $C$DW$161, DW_AT_type(*$C$DW$T$19)
    2067                      .dwattr $C$DW$161, DW_AT_name("PPB1TRIPHI")
    2068                      .dwattr $C$DW$161, DW_AT_TI_symbol_name("_PPB1TRIPHI")
    2069                      .dwattr $C$DW$161, DW_AT_bit_offset(0x0f)
    2070                      .dwattr $C$DW$161, DW_AT_bit_size(0x01)
    2071                      .dwattr $C$DW$161, DW_AT_data_member_location[DW_OP_plus_uconst 0x0]
    2072                      .dwattr $C$DW$161, DW_AT_accessibility(DW_ACCESS_public)
    2073              
    2074              $C$DW$162       .dwtag  DW_TAG_member
    2075                      .dwattr $C$DW$162, DW_AT_type(*$C$DW$T$19)
    2076                      .dwattr $C$DW$162, DW_AT_name("PPB1TRIPLO")
    2077                      .dwattr $C$DW$162, DW_AT_TI_symbol_name("_PPB1TRIPLO")
    2078                      .dwattr $C$DW$162, DW_AT_bit_offset(0x0e)
    2079                      .dwattr $C$DW$162, DW_AT_bit_size(0x01)
    2080                      .dwattr $C$DW$162, DW_AT_data_member_location[DW_OP_plus_uconst 0x0]
    2081                      .dwattr $C$DW$162, DW_AT_accessibility(DW_ACCESS_public)
    2082              
    2083              $C$DW$163       .dwtag  DW_TAG_member
    2084                      .dwattr $C$DW$163, DW_AT_type(*$C$DW$T$19)
    2085                      .dwattr $C$DW$163, DW_AT_name("PPB1ZERO")
    2086                      .dwattr $C$DW$163, DW_AT_TI_symbol_name("_PPB1ZERO")
    2087                      .dwattr $C$DW$163, DW_AT_bit_offset(0x0d)
    2088                      .dwattr $C$DW$163, DW_AT_bit_size(0x01)
    2089                      .dwattr $C$DW$163, DW_AT_data_member_location[DW_OP_plus_uconst 0x0]
    2090                      .dwattr $C$DW$163, DW_AT_accessibility(DW_ACCESS_public)
    2091              
    2092              $C$DW$164       .dwtag  DW_TAG_member
    2093                      .dwattr $C$DW$164, DW_AT_type(*$C$DW$T$19)
TMS320C2000 Assembler PC v15.12.1 Tue Jul 04 10:45:52 2017

Tools Copyright (c) 1996-2015 Texas Instruments Incorporated
resolver.asm                                                         PAGE   42

    2094                      .dwattr $C$DW$164, DW_AT_name("rsvd1")
    2095                      .dwattr $C$DW$164, DW_AT_TI_symbol_name("_rsvd1")
    2096                      .dwattr $C$DW$164, DW_AT_bit_offset(0x0c)
    2097                      .dwattr $C$DW$164, DW_AT_bit_size(0x01)
    2098                      .dwattr $C$DW$164, DW_AT_data_member_location[DW_OP_plus_uconst 0x0]
    2099                      .dwattr $C$DW$164, DW_AT_accessibility(DW_ACCESS_public)
    2100              
    2101              $C$DW$165       .dwtag  DW_TAG_member
    2102                      .dwattr $C$DW$165, DW_AT_type(*$C$DW$T$19)
    2103                      .dwattr $C$DW$165, DW_AT_name("PPB2TRIPHI")
    2104                      .dwattr $C$DW$165, DW_AT_TI_symbol_name("_PPB2TRIPHI")
    2105                      .dwattr $C$DW$165, DW_AT_bit_offset(0x0b)
    2106                      .dwattr $C$DW$165, DW_AT_bit_size(0x01)
    2107                      .dwattr $C$DW$165, DW_AT_data_member_location[DW_OP_plus_uconst 0x0]
    2108                      .dwattr $C$DW$165, DW_AT_accessibility(DW_ACCESS_public)
    2109              
    2110              $C$DW$166       .dwtag  DW_TAG_member
    2111                      .dwattr $C$DW$166, DW_AT_type(*$C$DW$T$19)
    2112                      .dwattr $C$DW$166, DW_AT_name("PPB2TRIPLO")
    2113                      .dwattr $C$DW$166, DW_AT_TI_symbol_name("_PPB2TRIPLO")
    2114                      .dwattr $C$DW$166, DW_AT_bit_offset(0x0a)
    2115                      .dwattr $C$DW$166, DW_AT_bit_size(0x01)
    2116                      .dwattr $C$DW$166, DW_AT_data_member_location[DW_OP_plus_uconst 0x0]
    2117                      .dwattr $C$DW$166, DW_AT_accessibility(DW_ACCESS_public)
    2118              
    2119              $C$DW$167       .dwtag  DW_TAG_member
    2120                      .dwattr $C$DW$167, DW_AT_type(*$C$DW$T$19)
    2121                      .dwattr $C$DW$167, DW_AT_name("PPB2ZERO")
    2122                      .dwattr $C$DW$167, DW_AT_TI_symbol_name("_PPB2ZERO")
    2123                      .dwattr $C$DW$167, DW_AT_bit_offset(0x09)
    2124                      .dwattr $C$DW$167, DW_AT_bit_size(0x01)
    2125                      .dwattr $C$DW$167, DW_AT_data_member_location[DW_OP_plus_uconst 0x0]
    2126                      .dwattr $C$DW$167, DW_AT_accessibility(DW_ACCESS_public)
    2127              
    2128              $C$DW$168       .dwtag  DW_TAG_member
    2129                      .dwattr $C$DW$168, DW_AT_type(*$C$DW$T$19)
    2130                      .dwattr $C$DW$168, DW_AT_name("rsvd2")
    2131                      .dwattr $C$DW$168, DW_AT_TI_symbol_name("_rsvd2")
    2132                      .dwattr $C$DW$168, DW_AT_bit_offset(0x08)
    2133                      .dwattr $C$DW$168, DW_AT_bit_size(0x01)
    2134                      .dwattr $C$DW$168, DW_AT_data_member_location[DW_OP_plus_uconst 0x0]
    2135                      .dwattr $C$DW$168, DW_AT_accessibility(DW_ACCESS_public)
    2136              
    2137              $C$DW$169       .dwtag  DW_TAG_member
    2138                      .dwattr $C$DW$169, DW_AT_type(*$C$DW$T$19)
    2139                      .dwattr $C$DW$169, DW_AT_name("PPB3TRIPHI")
    2140                      .dwattr $C$DW$169, DW_AT_TI_symbol_name("_PPB3TRIPHI")
    2141                      .dwattr $C$DW$169, DW_AT_bit_offset(0x07)
    2142                      .dwattr $C$DW$169, DW_AT_bit_size(0x01)
    2143                      .dwattr $C$DW$169, DW_AT_data_member_location[DW_OP_plus_uconst 0x0]
    2144                      .dwattr $C$DW$169, DW_AT_accessibility(DW_ACCESS_public)
    2145              
    2146              $C$DW$170       .dwtag  DW_TAG_member
    2147                      .dwattr $C$DW$170, DW_AT_type(*$C$DW$T$19)
    2148                      .dwattr $C$DW$170, DW_AT_name("PPB3TRIPLO")
TMS320C2000 Assembler PC v15.12.1 Tue Jul 04 10:45:52 2017

Tools Copyright (c) 1996-2015 Texas Instruments Incorporated
resolver.asm                                                         PAGE   43

    2149                      .dwattr $C$DW$170, DW_AT_TI_symbol_name("_PPB3TRIPLO")
    2150                      .dwattr $C$DW$170, DW_AT_bit_offset(0x06)
    2151                      .dwattr $C$DW$170, DW_AT_bit_size(0x01)
    2152                      .dwattr $C$DW$170, DW_AT_data_member_location[DW_OP_plus_uconst 0x0]
    2153                      .dwattr $C$DW$170, DW_AT_accessibility(DW_ACCESS_public)
    2154              
    2155              $C$DW$171       .dwtag  DW_TAG_member
    2156                      .dwattr $C$DW$171, DW_AT_type(*$C$DW$T$19)
    2157                      .dwattr $C$DW$171, DW_AT_name("PPB3ZERO")
    2158                      .dwattr $C$DW$171, DW_AT_TI_symbol_name("_PPB3ZERO")
    2159                      .dwattr $C$DW$171, DW_AT_bit_offset(0x05)
    2160                      .dwattr $C$DW$171, DW_AT_bit_size(0x01)
    2161                      .dwattr $C$DW$171, DW_AT_data_member_location[DW_OP_plus_uconst 0x0]
    2162                      .dwattr $C$DW$171, DW_AT_accessibility(DW_ACCESS_public)
    2163              
    2164              $C$DW$172       .dwtag  DW_TAG_member
    2165                      .dwattr $C$DW$172, DW_AT_type(*$C$DW$T$19)
    2166                      .dwattr $C$DW$172, DW_AT_name("rsvd3")
    2167                      .dwattr $C$DW$172, DW_AT_TI_symbol_name("_rsvd3")
    2168                      .dwattr $C$DW$172, DW_AT_bit_offset(0x04)
    2169                      .dwattr $C$DW$172, DW_AT_bit_size(0x01)
    2170                      .dwattr $C$DW$172, DW_AT_data_member_location[DW_OP_plus_uconst 0x0]
    2171                      .dwattr $C$DW$172, DW_AT_accessibility(DW_ACCESS_public)
    2172              
    2173              $C$DW$173       .dwtag  DW_TAG_member
    2174                      .dwattr $C$DW$173, DW_AT_type(*$C$DW$T$19)
    2175                      .dwattr $C$DW$173, DW_AT_name("PPB4TRIPHI")
    2176                      .dwattr $C$DW$173, DW_AT_TI_symbol_name("_PPB4TRIPHI")
    2177                      .dwattr $C$DW$173, DW_AT_bit_offset(0x03)
    2178                      .dwattr $C$DW$173, DW_AT_bit_size(0x01)
    2179                      .dwattr $C$DW$173, DW_AT_data_member_location[DW_OP_plus_uconst 0x0]
    2180                      .dwattr $C$DW$173, DW_AT_accessibility(DW_ACCESS_public)
    2181              
    2182              $C$DW$174       .dwtag  DW_TAG_member
    2183                      .dwattr $C$DW$174, DW_AT_type(*$C$DW$T$19)
    2184                      .dwattr $C$DW$174, DW_AT_name("PPB4TRIPLO")
    2185                      .dwattr $C$DW$174, DW_AT_TI_symbol_name("_PPB4TRIPLO")
    2186                      .dwattr $C$DW$174, DW_AT_bit_offset(0x02)
    2187                      .dwattr $C$DW$174, DW_AT_bit_size(0x01)
    2188                      .dwattr $C$DW$174, DW_AT_data_member_location[DW_OP_plus_uconst 0x0]
    2189                      .dwattr $C$DW$174, DW_AT_accessibility(DW_ACCESS_public)
    2190              
    2191              $C$DW$175       .dwtag  DW_TAG_member
    2192                      .dwattr $C$DW$175, DW_AT_type(*$C$DW$T$19)
    2193                      .dwattr $C$DW$175, DW_AT_name("PPB4ZERO")
    2194                      .dwattr $C$DW$175, DW_AT_TI_symbol_name("_PPB4ZERO")
    2195                      .dwattr $C$DW$175, DW_AT_bit_offset(0x01)
    2196                      .dwattr $C$DW$175, DW_AT_bit_size(0x01)
    2197                      .dwattr $C$DW$175, DW_AT_data_member_location[DW_OP_plus_uconst 0x0]
    2198                      .dwattr $C$DW$175, DW_AT_accessibility(DW_ACCESS_public)
    2199              
    2200              $C$DW$176       .dwtag  DW_TAG_member
    2201                      .dwattr $C$DW$176, DW_AT_type(*$C$DW$T$19)
    2202                      .dwattr $C$DW$176, DW_AT_name("rsvd4")
    2203                      .dwattr $C$DW$176, DW_AT_TI_symbol_name("_rsvd4")
TMS320C2000 Assembler PC v15.12.1 Tue Jul 04 10:45:52 2017

Tools Copyright (c) 1996-2015 Texas Instruments Incorporated
resolver.asm                                                         PAGE   44

    2204                      .dwattr $C$DW$176, DW_AT_bit_offset(0x00)
    2205                      .dwattr $C$DW$176, DW_AT_bit_size(0x01)
    2206                      .dwattr $C$DW$176, DW_AT_data_member_location[DW_OP_plus_uconst 0x0]
    2207                      .dwattr $C$DW$176, DW_AT_accessibility(DW_ACCESS_public)
    2208              
    2209                      .dwendtag $C$DW$T$37
    2210              
    2211              
    2212              $C$DW$T$38      .dwtag  DW_TAG_union_type
    2213                      .dwattr $C$DW$T$38, DW_AT_name("ADCEVTSTAT_REG")
    2214                      .dwattr $C$DW$T$38, DW_AT_byte_size(0x01)
    2215              $C$DW$177       .dwtag  DW_TAG_member
    2216                      .dwattr $C$DW$177, DW_AT_type(*$C$DW$T$19)
    2217                      .dwattr $C$DW$177, DW_AT_name("all")
    2218                      .dwattr $C$DW$177, DW_AT_TI_symbol_name("_all")
    2219                      .dwattr $C$DW$177, DW_AT_data_member_location[DW_OP_plus_uconst 0x0]
    2220                      .dwattr $C$DW$177, DW_AT_accessibility(DW_ACCESS_public)
    2221              
    2222              $C$DW$178       .dwtag  DW_TAG_member
    2223                      .dwattr $C$DW$178, DW_AT_type(*$C$DW$T$37)
    2224                      .dwattr $C$DW$178, DW_AT_name("bit")
    2225                      .dwattr $C$DW$178, DW_AT_TI_symbol_name("_bit")
    2226                      .dwattr $C$DW$178, DW_AT_data_member_location[DW_OP_plus_uconst 0x0]
    2227                      .dwattr $C$DW$178, DW_AT_accessibility(DW_ACCESS_public)
    2228              
    2229                      .dwendtag $C$DW$T$38
    2230              
    2231              
    2232              $C$DW$T$39      .dwtag  DW_TAG_structure_type
    2233                      .dwattr $C$DW$T$39, DW_AT_name("ADCINTFLGCLR_BITS")
    2234                      .dwattr $C$DW$T$39, DW_AT_byte_size(0x01)
    2235              $C$DW$179       .dwtag  DW_TAG_member
    2236                      .dwattr $C$DW$179, DW_AT_type(*$C$DW$T$19)
    2237                      .dwattr $C$DW$179, DW_AT_name("ADCINT1")
    2238                      .dwattr $C$DW$179, DW_AT_TI_symbol_name("_ADCINT1")
    2239                      .dwattr $C$DW$179, DW_AT_bit_offset(0x0f)
    2240                      .dwattr $C$DW$179, DW_AT_bit_size(0x01)
    2241                      .dwattr $C$DW$179, DW_AT_data_member_location[DW_OP_plus_uconst 0x0]
    2242                      .dwattr $C$DW$179, DW_AT_accessibility(DW_ACCESS_public)
    2243              
    2244              $C$DW$180       .dwtag  DW_TAG_member
    2245                      .dwattr $C$DW$180, DW_AT_type(*$C$DW$T$19)
    2246                      .dwattr $C$DW$180, DW_AT_name("ADCINT2")
    2247                      .dwattr $C$DW$180, DW_AT_TI_symbol_name("_ADCINT2")
    2248                      .dwattr $C$DW$180, DW_AT_bit_offset(0x0e)
    2249                      .dwattr $C$DW$180, DW_AT_bit_size(0x01)
    2250                      .dwattr $C$DW$180, DW_AT_data_member_location[DW_OP_plus_uconst 0x0]
    2251                      .dwattr $C$DW$180, DW_AT_accessibility(DW_ACCESS_public)
    2252              
    2253              $C$DW$181       .dwtag  DW_TAG_member
    2254                      .dwattr $C$DW$181, DW_AT_type(*$C$DW$T$19)
    2255                      .dwattr $C$DW$181, DW_AT_name("ADCINT3")
    2256                      .dwattr $C$DW$181, DW_AT_TI_symbol_name("_ADCINT3")
    2257                      .dwattr $C$DW$181, DW_AT_bit_offset(0x0d)
    2258                      .dwattr $C$DW$181, DW_AT_bit_size(0x01)
TMS320C2000 Assembler PC v15.12.1 Tue Jul 04 10:45:52 2017

Tools Copyright (c) 1996-2015 Texas Instruments Incorporated
resolver.asm                                                         PAGE   45

    2259                      .dwattr $C$DW$181, DW_AT_data_member_location[DW_OP_plus_uconst 0x0]
    2260                      .dwattr $C$DW$181, DW_AT_accessibility(DW_ACCESS_public)
    2261              
    2262              $C$DW$182       .dwtag  DW_TAG_member
    2263                      .dwattr $C$DW$182, DW_AT_type(*$C$DW$T$19)
    2264                      .dwattr $C$DW$182, DW_AT_name("ADCINT4")
    2265                      .dwattr $C$DW$182, DW_AT_TI_symbol_name("_ADCINT4")
    2266                      .dwattr $C$DW$182, DW_AT_bit_offset(0x0c)
    2267                      .dwattr $C$DW$182, DW_AT_bit_size(0x01)
    2268                      .dwattr $C$DW$182, DW_AT_data_member_location[DW_OP_plus_uconst 0x0]
    2269                      .dwattr $C$DW$182, DW_AT_accessibility(DW_ACCESS_public)
    2270              
    2271              $C$DW$183       .dwtag  DW_TAG_member
    2272                      .dwattr $C$DW$183, DW_AT_type(*$C$DW$T$19)
    2273                      .dwattr $C$DW$183, DW_AT_name("rsvd1")
    2274                      .dwattr $C$DW$183, DW_AT_TI_symbol_name("_rsvd1")
    2275                      .dwattr $C$DW$183, DW_AT_bit_offset(0x00)
    2276                      .dwattr $C$DW$183, DW_AT_bit_size(0x0c)
    2277                      .dwattr $C$DW$183, DW_AT_data_member_location[DW_OP_plus_uconst 0x0]
    2278                      .dwattr $C$DW$183, DW_AT_accessibility(DW_ACCESS_public)
    2279              
    2280                      .dwendtag $C$DW$T$39
    2281              
    2282              
    2283              $C$DW$T$40      .dwtag  DW_TAG_union_type
    2284                      .dwattr $C$DW$T$40, DW_AT_name("ADCINTFLGCLR_REG")
    2285                      .dwattr $C$DW$T$40, DW_AT_byte_size(0x01)
    2286              $C$DW$184       .dwtag  DW_TAG_member
    2287                      .dwattr $C$DW$184, DW_AT_type(*$C$DW$T$19)
    2288                      .dwattr $C$DW$184, DW_AT_name("all")
    2289                      .dwattr $C$DW$184, DW_AT_TI_symbol_name("_all")
    2290                      .dwattr $C$DW$184, DW_AT_data_member_location[DW_OP_plus_uconst 0x0]
    2291                      .dwattr $C$DW$184, DW_AT_accessibility(DW_ACCESS_public)
    2292              
    2293              $C$DW$185       .dwtag  DW_TAG_member
    2294                      .dwattr $C$DW$185, DW_AT_type(*$C$DW$T$39)
    2295                      .dwattr $C$DW$185, DW_AT_name("bit")
    2296                      .dwattr $C$DW$185, DW_AT_TI_symbol_name("_bit")
    2297                      .dwattr $C$DW$185, DW_AT_data_member_location[DW_OP_plus_uconst 0x0]
    2298                      .dwattr $C$DW$185, DW_AT_accessibility(DW_ACCESS_public)
    2299              
    2300                      .dwendtag $C$DW$T$40
    2301              
    2302              
    2303              $C$DW$T$41      .dwtag  DW_TAG_structure_type
    2304                      .dwattr $C$DW$T$41, DW_AT_name("ADCINTFLG_BITS")
    2305                      .dwattr $C$DW$T$41, DW_AT_byte_size(0x01)
    2306              $C$DW$186       .dwtag  DW_TAG_member
    2307                      .dwattr $C$DW$186, DW_AT_type(*$C$DW$T$19)
    2308                      .dwattr $C$DW$186, DW_AT_name("ADCINT1")
    2309                      .dwattr $C$DW$186, DW_AT_TI_symbol_name("_ADCINT1")
    2310                      .dwattr $C$DW$186, DW_AT_bit_offset(0x0f)
    2311                      .dwattr $C$DW$186, DW_AT_bit_size(0x01)
    2312                      .dwattr $C$DW$186, DW_AT_data_member_location[DW_OP_plus_uconst 0x0]
    2313                      .dwattr $C$DW$186, DW_AT_accessibility(DW_ACCESS_public)
TMS320C2000 Assembler PC v15.12.1 Tue Jul 04 10:45:52 2017

Tools Copyright (c) 1996-2015 Texas Instruments Incorporated
resolver.asm                                                         PAGE   46

    2314              
    2315              $C$DW$187       .dwtag  DW_TAG_member
    2316                      .dwattr $C$DW$187, DW_AT_type(*$C$DW$T$19)
    2317                      .dwattr $C$DW$187, DW_AT_name("ADCINT2")
    2318                      .dwattr $C$DW$187, DW_AT_TI_symbol_name("_ADCINT2")
    2319                      .dwattr $C$DW$187, DW_AT_bit_offset(0x0e)
    2320                      .dwattr $C$DW$187, DW_AT_bit_size(0x01)
    2321                      .dwattr $C$DW$187, DW_AT_data_member_location[DW_OP_plus_uconst 0x0]
    2322                      .dwattr $C$DW$187, DW_AT_accessibility(DW_ACCESS_public)
    2323              
    2324              $C$DW$188       .dwtag  DW_TAG_member
    2325                      .dwattr $C$DW$188, DW_AT_type(*$C$DW$T$19)
    2326                      .dwattr $C$DW$188, DW_AT_name("ADCINT3")
    2327                      .dwattr $C$DW$188, DW_AT_TI_symbol_name("_ADCINT3")
    2328                      .dwattr $C$DW$188, DW_AT_bit_offset(0x0d)
    2329                      .dwattr $C$DW$188, DW_AT_bit_size(0x01)
    2330                      .dwattr $C$DW$188, DW_AT_data_member_location[DW_OP_plus_uconst 0x0]
    2331                      .dwattr $C$DW$188, DW_AT_accessibility(DW_ACCESS_public)
    2332              
    2333              $C$DW$189       .dwtag  DW_TAG_member
    2334                      .dwattr $C$DW$189, DW_AT_type(*$C$DW$T$19)
    2335                      .dwattr $C$DW$189, DW_AT_name("ADCINT4")
    2336                      .dwattr $C$DW$189, DW_AT_TI_symbol_name("_ADCINT4")
    2337                      .dwattr $C$DW$189, DW_AT_bit_offset(0x0c)
    2338                      .dwattr $C$DW$189, DW_AT_bit_size(0x01)
    2339                      .dwattr $C$DW$189, DW_AT_data_member_location[DW_OP_plus_uconst 0x0]
    2340                      .dwattr $C$DW$189, DW_AT_accessibility(DW_ACCESS_public)
    2341              
    2342              $C$DW$190       .dwtag  DW_TAG_member
    2343                      .dwattr $C$DW$190, DW_AT_type(*$C$DW$T$19)
    2344                      .dwattr $C$DW$190, DW_AT_name("rsvd1")
    2345                      .dwattr $C$DW$190, DW_AT_TI_symbol_name("_rsvd1")
    2346                      .dwattr $C$DW$190, DW_AT_bit_offset(0x00)
    2347                      .dwattr $C$DW$190, DW_AT_bit_size(0x0c)
    2348                      .dwattr $C$DW$190, DW_AT_data_member_location[DW_OP_plus_uconst 0x0]
    2349                      .dwattr $C$DW$190, DW_AT_accessibility(DW_ACCESS_public)
    2350              
    2351                      .dwendtag $C$DW$T$41
    2352              
    2353              
    2354              $C$DW$T$42      .dwtag  DW_TAG_union_type
    2355                      .dwattr $C$DW$T$42, DW_AT_name("ADCINTFLG_REG")
    2356                      .dwattr $C$DW$T$42, DW_AT_byte_size(0x01)
    2357              $C$DW$191       .dwtag  DW_TAG_member
    2358                      .dwattr $C$DW$191, DW_AT_type(*$C$DW$T$19)
    2359                      .dwattr $C$DW$191, DW_AT_name("all")
    2360                      .dwattr $C$DW$191, DW_AT_TI_symbol_name("_all")
    2361                      .dwattr $C$DW$191, DW_AT_data_member_location[DW_OP_plus_uconst 0x0]
    2362                      .dwattr $C$DW$191, DW_AT_accessibility(DW_ACCESS_public)
    2363              
    2364              $C$DW$192       .dwtag  DW_TAG_member
    2365                      .dwattr $C$DW$192, DW_AT_type(*$C$DW$T$41)
    2366                      .dwattr $C$DW$192, DW_AT_name("bit")
    2367                      .dwattr $C$DW$192, DW_AT_TI_symbol_name("_bit")
    2368                      .dwattr $C$DW$192, DW_AT_data_member_location[DW_OP_plus_uconst 0x0]
TMS320C2000 Assembler PC v15.12.1 Tue Jul 04 10:45:52 2017

Tools Copyright (c) 1996-2015 Texas Instruments Incorporated
resolver.asm                                                         PAGE   47

    2369                      .dwattr $C$DW$192, DW_AT_accessibility(DW_ACCESS_public)
    2370              
    2371                      .dwendtag $C$DW$T$42
    2372              
    2373              
    2374              $C$DW$T$43      .dwtag  DW_TAG_structure_type
    2375                      .dwattr $C$DW$T$43, DW_AT_name("ADCINTOVFCLR_BITS")
    2376                      .dwattr $C$DW$T$43, DW_AT_byte_size(0x01)
    2377              $C$DW$193       .dwtag  DW_TAG_member
    2378                      .dwattr $C$DW$193, DW_AT_type(*$C$DW$T$19)
    2379                      .dwattr $C$DW$193, DW_AT_name("ADCINT1")
    2380                      .dwattr $C$DW$193, DW_AT_TI_symbol_name("_ADCINT1")
    2381                      .dwattr $C$DW$193, DW_AT_bit_offset(0x0f)
    2382                      .dwattr $C$DW$193, DW_AT_bit_size(0x01)
    2383                      .dwattr $C$DW$193, DW_AT_data_member_location[DW_OP_plus_uconst 0x0]
    2384                      .dwattr $C$DW$193, DW_AT_accessibility(DW_ACCESS_public)
    2385              
    2386              $C$DW$194       .dwtag  DW_TAG_member
    2387                      .dwattr $C$DW$194, DW_AT_type(*$C$DW$T$19)
    2388                      .dwattr $C$DW$194, DW_AT_name("ADCINT2")
    2389                      .dwattr $C$DW$194, DW_AT_TI_symbol_name("_ADCINT2")
    2390                      .dwattr $C$DW$194, DW_AT_bit_offset(0x0e)
    2391                      .dwattr $C$DW$194, DW_AT_bit_size(0x01)
    2392                      .dwattr $C$DW$194, DW_AT_data_member_location[DW_OP_plus_uconst 0x0]
    2393                      .dwattr $C$DW$194, DW_AT_accessibility(DW_ACCESS_public)
    2394              
    2395              $C$DW$195       .dwtag  DW_TAG_member
    2396                      .dwattr $C$DW$195, DW_AT_type(*$C$DW$T$19)
    2397                      .dwattr $C$DW$195, DW_AT_name("ADCINT3")
    2398                      .dwattr $C$DW$195, DW_AT_TI_symbol_name("_ADCINT3")
    2399                      .dwattr $C$DW$195, DW_AT_bit_offset(0x0d)
    2400                      .dwattr $C$DW$195, DW_AT_bit_size(0x01)
    2401                      .dwattr $C$DW$195, DW_AT_data_member_location[DW_OP_plus_uconst 0x0]
    2402                      .dwattr $C$DW$195, DW_AT_accessibility(DW_ACCESS_public)
    2403              
    2404              $C$DW$196       .dwtag  DW_TAG_member
    2405                      .dwattr $C$DW$196, DW_AT_type(*$C$DW$T$19)
    2406                      .dwattr $C$DW$196, DW_AT_name("ADCINT4")
    2407                      .dwattr $C$DW$196, DW_AT_TI_symbol_name("_ADCINT4")
    2408                      .dwattr $C$DW$196, DW_AT_bit_offset(0x0c)
    2409                      .dwattr $C$DW$196, DW_AT_bit_size(0x01)
    2410                      .dwattr $C$DW$196, DW_AT_data_member_location[DW_OP_plus_uconst 0x0]
    2411                      .dwattr $C$DW$196, DW_AT_accessibility(DW_ACCESS_public)
    2412              
    2413              $C$DW$197       .dwtag  DW_TAG_member
    2414                      .dwattr $C$DW$197, DW_AT_type(*$C$DW$T$19)
    2415                      .dwattr $C$DW$197, DW_AT_name("rsvd1")
    2416                      .dwattr $C$DW$197, DW_AT_TI_symbol_name("_rsvd1")
    2417                      .dwattr $C$DW$197, DW_AT_bit_offset(0x00)
    2418                      .dwattr $C$DW$197, DW_AT_bit_size(0x0c)
    2419                      .dwattr $C$DW$197, DW_AT_data_member_location[DW_OP_plus_uconst 0x0]
    2420                      .dwattr $C$DW$197, DW_AT_accessibility(DW_ACCESS_public)
    2421              
    2422                      .dwendtag $C$DW$T$43
    2423              
TMS320C2000 Assembler PC v15.12.1 Tue Jul 04 10:45:52 2017

Tools Copyright (c) 1996-2015 Texas Instruments Incorporated
resolver.asm                                                         PAGE   48

    2424              
    2425              $C$DW$T$44      .dwtag  DW_TAG_union_type
    2426                      .dwattr $C$DW$T$44, DW_AT_name("ADCINTOVFCLR_REG")
    2427                      .dwattr $C$DW$T$44, DW_AT_byte_size(0x01)
    2428              $C$DW$198       .dwtag  DW_TAG_member
    2429                      .dwattr $C$DW$198, DW_AT_type(*$C$DW$T$19)
    2430                      .dwattr $C$DW$198, DW_AT_name("all")
    2431                      .dwattr $C$DW$198, DW_AT_TI_symbol_name("_all")
    2432                      .dwattr $C$DW$198, DW_AT_data_member_location[DW_OP_plus_uconst 0x0]
    2433                      .dwattr $C$DW$198, DW_AT_accessibility(DW_ACCESS_public)
    2434              
    2435              $C$DW$199       .dwtag  DW_TAG_member
    2436                      .dwattr $C$DW$199, DW_AT_type(*$C$DW$T$43)
    2437                      .dwattr $C$DW$199, DW_AT_name("bit")
    2438                      .dwattr $C$DW$199, DW_AT_TI_symbol_name("_bit")
    2439                      .dwattr $C$DW$199, DW_AT_data_member_location[DW_OP_plus_uconst 0x0]
    2440                      .dwattr $C$DW$199, DW_AT_accessibility(DW_ACCESS_public)
    2441              
    2442                      .dwendtag $C$DW$T$44
    2443              
    2444              
    2445              $C$DW$T$45      .dwtag  DW_TAG_structure_type
    2446                      .dwattr $C$DW$T$45, DW_AT_name("ADCINTOVF_BITS")
    2447                      .dwattr $C$DW$T$45, DW_AT_byte_size(0x01)
    2448              $C$DW$200       .dwtag  DW_TAG_member
    2449                      .dwattr $C$DW$200, DW_AT_type(*$C$DW$T$19)
    2450                      .dwattr $C$DW$200, DW_AT_name("ADCINT1")
    2451                      .dwattr $C$DW$200, DW_AT_TI_symbol_name("_ADCINT1")
    2452                      .dwattr $C$DW$200, DW_AT_bit_offset(0x0f)
    2453                      .dwattr $C$DW$200, DW_AT_bit_size(0x01)
    2454                      .dwattr $C$DW$200, DW_AT_data_member_location[DW_OP_plus_uconst 0x0]
    2455                      .dwattr $C$DW$200, DW_AT_accessibility(DW_ACCESS_public)
    2456              
    2457              $C$DW$201       .dwtag  DW_TAG_member
    2458                      .dwattr $C$DW$201, DW_AT_type(*$C$DW$T$19)
    2459                      .dwattr $C$DW$201, DW_AT_name("ADCINT2")
    2460                      .dwattr $C$DW$201, DW_AT_TI_symbol_name("_ADCINT2")
    2461                      .dwattr $C$DW$201, DW_AT_bit_offset(0x0e)
    2462                      .dwattr $C$DW$201, DW_AT_bit_size(0x01)
    2463                      .dwattr $C$DW$201, DW_AT_data_member_location[DW_OP_plus_uconst 0x0]
    2464                      .dwattr $C$DW$201, DW_AT_accessibility(DW_ACCESS_public)
    2465              
    2466              $C$DW$202       .dwtag  DW_TAG_member
    2467                      .dwattr $C$DW$202, DW_AT_type(*$C$DW$T$19)
    2468                      .dwattr $C$DW$202, DW_AT_name("ADCINT3")
    2469                      .dwattr $C$DW$202, DW_AT_TI_symbol_name("_ADCINT3")
    2470                      .dwattr $C$DW$202, DW_AT_bit_offset(0x0d)
    2471                      .dwattr $C$DW$202, DW_AT_bit_size(0x01)
    2472                      .dwattr $C$DW$202, DW_AT_data_member_location[DW_OP_plus_uconst 0x0]
    2473                      .dwattr $C$DW$202, DW_AT_accessibility(DW_ACCESS_public)
    2474              
    2475              $C$DW$203       .dwtag  DW_TAG_member
    2476                      .dwattr $C$DW$203, DW_AT_type(*$C$DW$T$19)
    2477                      .dwattr $C$DW$203, DW_AT_name("ADCINT4")
    2478                      .dwattr $C$DW$203, DW_AT_TI_symbol_name("_ADCINT4")
TMS320C2000 Assembler PC v15.12.1 Tue Jul 04 10:45:52 2017

Tools Copyright (c) 1996-2015 Texas Instruments Incorporated
resolver.asm                                                         PAGE   49

    2479                      .dwattr $C$DW$203, DW_AT_bit_offset(0x0c)
    2480                      .dwattr $C$DW$203, DW_AT_bit_size(0x01)
    2481                      .dwattr $C$DW$203, DW_AT_data_member_location[DW_OP_plus_uconst 0x0]
    2482                      .dwattr $C$DW$203, DW_AT_accessibility(DW_ACCESS_public)
    2483              
    2484              $C$DW$204       .dwtag  DW_TAG_member
    2485                      .dwattr $C$DW$204, DW_AT_type(*$C$DW$T$19)
    2486                      .dwattr $C$DW$204, DW_AT_name("rsvd1")
    2487                      .dwattr $C$DW$204, DW_AT_TI_symbol_name("_rsvd1")
    2488                      .dwattr $C$DW$204, DW_AT_bit_offset(0x00)
    2489                      .dwattr $C$DW$204, DW_AT_bit_size(0x0c)
    2490                      .dwattr $C$DW$204, DW_AT_data_member_location[DW_OP_plus_uconst 0x0]
    2491                      .dwattr $C$DW$204, DW_AT_accessibility(DW_ACCESS_public)
    2492              
    2493                      .dwendtag $C$DW$T$45
    2494              
    2495              
    2496              $C$DW$T$46      .dwtag  DW_TAG_union_type
    2497                      .dwattr $C$DW$T$46, DW_AT_name("ADCINTOVF_REG")
    2498                      .dwattr $C$DW$T$46, DW_AT_byte_size(0x01)
    2499              $C$DW$205       .dwtag  DW_TAG_member
    2500                      .dwattr $C$DW$205, DW_AT_type(*$C$DW$T$19)
    2501                      .dwattr $C$DW$205, DW_AT_name("all")
    2502                      .dwattr $C$DW$205, DW_AT_TI_symbol_name("_all")
    2503                      .dwattr $C$DW$205, DW_AT_data_member_location[DW_OP_plus_uconst 0x0]
    2504                      .dwattr $C$DW$205, DW_AT_accessibility(DW_ACCESS_public)
    2505              
    2506              $C$DW$206       .dwtag  DW_TAG_member
    2507                      .dwattr $C$DW$206, DW_AT_type(*$C$DW$T$45)
    2508                      .dwattr $C$DW$206, DW_AT_name("bit")
    2509                      .dwattr $C$DW$206, DW_AT_TI_symbol_name("_bit")
    2510                      .dwattr $C$DW$206, DW_AT_data_member_location[DW_OP_plus_uconst 0x0]
    2511                      .dwattr $C$DW$206, DW_AT_accessibility(DW_ACCESS_public)
    2512              
    2513                      .dwendtag $C$DW$T$46
    2514              
    2515              
    2516              $C$DW$T$47      .dwtag  DW_TAG_structure_type
    2517                      .dwattr $C$DW$T$47, DW_AT_name("ADCINTSEL1N2_BITS")
    2518                      .dwattr $C$DW$T$47, DW_AT_byte_size(0x01)
    2519              $C$DW$207       .dwtag  DW_TAG_member
    2520                      .dwattr $C$DW$207, DW_AT_type(*$C$DW$T$19)
    2521                      .dwattr $C$DW$207, DW_AT_name("INT1SEL")
    2522                      .dwattr $C$DW$207, DW_AT_TI_symbol_name("_INT1SEL")
    2523                      .dwattr $C$DW$207, DW_AT_bit_offset(0x0c)
    2524                      .dwattr $C$DW$207, DW_AT_bit_size(0x04)
    2525                      .dwattr $C$DW$207, DW_AT_data_member_location[DW_OP_plus_uconst 0x0]
    2526                      .dwattr $C$DW$207, DW_AT_accessibility(DW_ACCESS_public)
    2527              
    2528              $C$DW$208       .dwtag  DW_TAG_member
    2529                      .dwattr $C$DW$208, DW_AT_type(*$C$DW$T$19)
    2530                      .dwattr $C$DW$208, DW_AT_name("rsvd1")
    2531                      .dwattr $C$DW$208, DW_AT_TI_symbol_name("_rsvd1")
    2532                      .dwattr $C$DW$208, DW_AT_bit_offset(0x0b)
    2533                      .dwattr $C$DW$208, DW_AT_bit_size(0x01)
TMS320C2000 Assembler PC v15.12.1 Tue Jul 04 10:45:52 2017

Tools Copyright (c) 1996-2015 Texas Instruments Incorporated
resolver.asm                                                         PAGE   50

    2534                      .dwattr $C$DW$208, DW_AT_data_member_location[DW_OP_plus_uconst 0x0]
    2535                      .dwattr $C$DW$208, DW_AT_accessibility(DW_ACCESS_public)
    2536              
    2537              $C$DW$209       .dwtag  DW_TAG_member
    2538                      .dwattr $C$DW$209, DW_AT_type(*$C$DW$T$19)
    2539                      .dwattr $C$DW$209, DW_AT_name("INT1E")
    2540                      .dwattr $C$DW$209, DW_AT_TI_symbol_name("_INT1E")
    2541                      .dwattr $C$DW$209, DW_AT_bit_offset(0x0a)
    2542                      .dwattr $C$DW$209, DW_AT_bit_size(0x01)
    2543                      .dwattr $C$DW$209, DW_AT_data_member_location[DW_OP_plus_uconst 0x0]
    2544                      .dwattr $C$DW$209, DW_AT_accessibility(DW_ACCESS_public)
    2545              
    2546              $C$DW$210       .dwtag  DW_TAG_member
    2547                      .dwattr $C$DW$210, DW_AT_type(*$C$DW$T$19)
    2548                      .dwattr $C$DW$210, DW_AT_name("INT1CONT")
    2549                      .dwattr $C$DW$210, DW_AT_TI_symbol_name("_INT1CONT")
    2550                      .dwattr $C$DW$210, DW_AT_bit_offset(0x09)
    2551                      .dwattr $C$DW$210, DW_AT_bit_size(0x01)
    2552                      .dwattr $C$DW$210, DW_AT_data_member_location[DW_OP_plus_uconst 0x0]
    2553                      .dwattr $C$DW$210, DW_AT_accessibility(DW_ACCESS_public)
    2554              
    2555              $C$DW$211       .dwtag  DW_TAG_member
    2556                      .dwattr $C$DW$211, DW_AT_type(*$C$DW$T$19)
    2557                      .dwattr $C$DW$211, DW_AT_name("rsvd2")
    2558                      .dwattr $C$DW$211, DW_AT_TI_symbol_name("_rsvd2")
    2559                      .dwattr $C$DW$211, DW_AT_bit_offset(0x08)
    2560                      .dwattr $C$DW$211, DW_AT_bit_size(0x01)
    2561                      .dwattr $C$DW$211, DW_AT_data_member_location[DW_OP_plus_uconst 0x0]
    2562                      .dwattr $C$DW$211, DW_AT_accessibility(DW_ACCESS_public)
    2563              
    2564              $C$DW$212       .dwtag  DW_TAG_member
    2565                      .dwattr $C$DW$212, DW_AT_type(*$C$DW$T$19)
    2566                      .dwattr $C$DW$212, DW_AT_name("INT2SEL")
    2567                      .dwattr $C$DW$212, DW_AT_TI_symbol_name("_INT2SEL")
    2568                      .dwattr $C$DW$212, DW_AT_bit_offset(0x04)
    2569                      .dwattr $C$DW$212, DW_AT_bit_size(0x04)
    2570                      .dwattr $C$DW$212, DW_AT_data_member_location[DW_OP_plus_uconst 0x0]
    2571                      .dwattr $C$DW$212, DW_AT_accessibility(DW_ACCESS_public)
    2572              
    2573              $C$DW$213       .dwtag  DW_TAG_member
    2574                      .dwattr $C$DW$213, DW_AT_type(*$C$DW$T$19)
    2575                      .dwattr $C$DW$213, DW_AT_name("rsvd3")
    2576                      .dwattr $C$DW$213, DW_AT_TI_symbol_name("_rsvd3")
    2577                      .dwattr $C$DW$213, DW_AT_bit_offset(0x03)
    2578                      .dwattr $C$DW$213, DW_AT_bit_size(0x01)
    2579                      .dwattr $C$DW$213, DW_AT_data_member_location[DW_OP_plus_uconst 0x0]
    2580                      .dwattr $C$DW$213, DW_AT_accessibility(DW_ACCESS_public)
    2581              
    2582              $C$DW$214       .dwtag  DW_TAG_member
    2583                      .dwattr $C$DW$214, DW_AT_type(*$C$DW$T$19)
    2584                      .dwattr $C$DW$214, DW_AT_name("INT2E")
    2585                      .dwattr $C$DW$214, DW_AT_TI_symbol_name("_INT2E")
    2586                      .dwattr $C$DW$214, DW_AT_bit_offset(0x02)
    2587                      .dwattr $C$DW$214, DW_AT_bit_size(0x01)
    2588                      .dwattr $C$DW$214, DW_AT_data_member_location[DW_OP_plus_uconst 0x0]
TMS320C2000 Assembler PC v15.12.1 Tue Jul 04 10:45:52 2017

Tools Copyright (c) 1996-2015 Texas Instruments Incorporated
resolver.asm                                                         PAGE   51

    2589                      .dwattr $C$DW$214, DW_AT_accessibility(DW_ACCESS_public)
    2590              
    2591              $C$DW$215       .dwtag  DW_TAG_member
    2592                      .dwattr $C$DW$215, DW_AT_type(*$C$DW$T$19)
    2593                      .dwattr $C$DW$215, DW_AT_name("INT2CONT")
    2594                      .dwattr $C$DW$215, DW_AT_TI_symbol_name("_INT2CONT")
    2595                      .dwattr $C$DW$215, DW_AT_bit_offset(0x01)
    2596                      .dwattr $C$DW$215, DW_AT_bit_size(0x01)
    2597                      .dwattr $C$DW$215, DW_AT_data_member_location[DW_OP_plus_uconst 0x0]
    2598                      .dwattr $C$DW$215, DW_AT_accessibility(DW_ACCESS_public)
    2599              
    2600              $C$DW$216       .dwtag  DW_TAG_member
    2601                      .dwattr $C$DW$216, DW_AT_type(*$C$DW$T$19)
    2602                      .dwattr $C$DW$216, DW_AT_name("rsvd4")
    2603                      .dwattr $C$DW$216, DW_AT_TI_symbol_name("_rsvd4")
    2604                      .dwattr $C$DW$216, DW_AT_bit_offset(0x00)
    2605                      .dwattr $C$DW$216, DW_AT_bit_size(0x01)
    2606                      .dwattr $C$DW$216, DW_AT_data_member_location[DW_OP_plus_uconst 0x0]
    2607                      .dwattr $C$DW$216, DW_AT_accessibility(DW_ACCESS_public)
    2608              
    2609                      .dwendtag $C$DW$T$47
    2610              
    2611              
    2612              $C$DW$T$48      .dwtag  DW_TAG_union_type
    2613                      .dwattr $C$DW$T$48, DW_AT_name("ADCINTSEL1N2_REG")
    2614                      .dwattr $C$DW$T$48, DW_AT_byte_size(0x01)
    2615              $C$DW$217       .dwtag  DW_TAG_member
    2616                      .dwattr $C$DW$217, DW_AT_type(*$C$DW$T$19)
    2617                      .dwattr $C$DW$217, DW_AT_name("all")
    2618                      .dwattr $C$DW$217, DW_AT_TI_symbol_name("_all")
    2619                      .dwattr $C$DW$217, DW_AT_data_member_location[DW_OP_plus_uconst 0x0]
    2620                      .dwattr $C$DW$217, DW_AT_accessibility(DW_ACCESS_public)
    2621              
    2622              $C$DW$218       .dwtag  DW_TAG_member
    2623                      .dwattr $C$DW$218, DW_AT_type(*$C$DW$T$47)
    2624                      .dwattr $C$DW$218, DW_AT_name("bit")
    2625                      .dwattr $C$DW$218, DW_AT_TI_symbol_name("_bit")
    2626                      .dwattr $C$DW$218, DW_AT_data_member_location[DW_OP_plus_uconst 0x0]
    2627                      .dwattr $C$DW$218, DW_AT_accessibility(DW_ACCESS_public)
    2628              
    2629                      .dwendtag $C$DW$T$48
    2630              
    2631              
    2632              $C$DW$T$49      .dwtag  DW_TAG_structure_type
    2633                      .dwattr $C$DW$T$49, DW_AT_name("ADCINTSEL3N4_BITS")
    2634                      .dwattr $C$DW$T$49, DW_AT_byte_size(0x01)
    2635              $C$DW$219       .dwtag  DW_TAG_member
    2636                      .dwattr $C$DW$219, DW_AT_type(*$C$DW$T$19)
    2637                      .dwattr $C$DW$219, DW_AT_name("INT3SEL")
    2638                      .dwattr $C$DW$219, DW_AT_TI_symbol_name("_INT3SEL")
    2639                      .dwattr $C$DW$219, DW_AT_bit_offset(0x0c)
    2640                      .dwattr $C$DW$219, DW_AT_bit_size(0x04)
    2641                      .dwattr $C$DW$219, DW_AT_data_member_location[DW_OP_plus_uconst 0x0]
    2642                      .dwattr $C$DW$219, DW_AT_accessibility(DW_ACCESS_public)
    2643              
TMS320C2000 Assembler PC v15.12.1 Tue Jul 04 10:45:52 2017

Tools Copyright (c) 1996-2015 Texas Instruments Incorporated
resolver.asm                                                         PAGE   52

    2644              $C$DW$220       .dwtag  DW_TAG_member
    2645                      .dwattr $C$DW$220, DW_AT_type(*$C$DW$T$19)
    2646                      .dwattr $C$DW$220, DW_AT_name("rsvd1")
    2647                      .dwattr $C$DW$220, DW_AT_TI_symbol_name("_rsvd1")
    2648                      .dwattr $C$DW$220, DW_AT_bit_offset(0x0b)
    2649                      .dwattr $C$DW$220, DW_AT_bit_size(0x01)
    2650                      .dwattr $C$DW$220, DW_AT_data_member_location[DW_OP_plus_uconst 0x0]
    2651                      .dwattr $C$DW$220, DW_AT_accessibility(DW_ACCESS_public)
    2652              
    2653              $C$DW$221       .dwtag  DW_TAG_member
    2654                      .dwattr $C$DW$221, DW_AT_type(*$C$DW$T$19)
    2655                      .dwattr $C$DW$221, DW_AT_name("INT3E")
    2656                      .dwattr $C$DW$221, DW_AT_TI_symbol_name("_INT3E")
    2657                      .dwattr $C$DW$221, DW_AT_bit_offset(0x0a)
    2658                      .dwattr $C$DW$221, DW_AT_bit_size(0x01)
    2659                      .dwattr $C$DW$221, DW_AT_data_member_location[DW_OP_plus_uconst 0x0]
    2660                      .dwattr $C$DW$221, DW_AT_accessibility(DW_ACCESS_public)
    2661              
    2662              $C$DW$222       .dwtag  DW_TAG_member
    2663                      .dwattr $C$DW$222, DW_AT_type(*$C$DW$T$19)
    2664                      .dwattr $C$DW$222, DW_AT_name("INT3CONT")
    2665                      .dwattr $C$DW$222, DW_AT_TI_symbol_name("_INT3CONT")
    2666                      .dwattr $C$DW$222, DW_AT_bit_offset(0x09)
    2667                      .dwattr $C$DW$222, DW_AT_bit_size(0x01)
    2668                      .dwattr $C$DW$222, DW_AT_data_member_location[DW_OP_plus_uconst 0x0]
    2669                      .dwattr $C$DW$222, DW_AT_accessibility(DW_ACCESS_public)
    2670              
    2671              $C$DW$223       .dwtag  DW_TAG_member
    2672                      .dwattr $C$DW$223, DW_AT_type(*$C$DW$T$19)
    2673                      .dwattr $C$DW$223, DW_AT_name("rsvd2")
    2674                      .dwattr $C$DW$223, DW_AT_TI_symbol_name("_rsvd2")
    2675                      .dwattr $C$DW$223, DW_AT_bit_offset(0x08)
    2676                      .dwattr $C$DW$223, DW_AT_bit_size(0x01)
    2677                      .dwattr $C$DW$223, DW_AT_data_member_location[DW_OP_plus_uconst 0x0]
    2678                      .dwattr $C$DW$223, DW_AT_accessibility(DW_ACCESS_public)
    2679              
    2680              $C$DW$224       .dwtag  DW_TAG_member
    2681                      .dwattr $C$DW$224, DW_AT_type(*$C$DW$T$19)
    2682                      .dwattr $C$DW$224, DW_AT_name("INT4SEL")
    2683                      .dwattr $C$DW$224, DW_AT_TI_symbol_name("_INT4SEL")
    2684                      .dwattr $C$DW$224, DW_AT_bit_offset(0x04)
    2685                      .dwattr $C$DW$224, DW_AT_bit_size(0x04)
    2686                      .dwattr $C$DW$224, DW_AT_data_member_location[DW_OP_plus_uconst 0x0]
    2687                      .dwattr $C$DW$224, DW_AT_accessibility(DW_ACCESS_public)
    2688              
    2689              $C$DW$225       .dwtag  DW_TAG_member
    2690                      .dwattr $C$DW$225, DW_AT_type(*$C$DW$T$19)
    2691                      .dwattr $C$DW$225, DW_AT_name("rsvd3")
    2692                      .dwattr $C$DW$225, DW_AT_TI_symbol_name("_rsvd3")
    2693                      .dwattr $C$DW$225, DW_AT_bit_offset(0x03)
    2694                      .dwattr $C$DW$225, DW_AT_bit_size(0x01)
    2695                      .dwattr $C$DW$225, DW_AT_data_member_location[DW_OP_plus_uconst 0x0]
    2696                      .dwattr $C$DW$225, DW_AT_accessibility(DW_ACCESS_public)
    2697              
    2698              $C$DW$226       .dwtag  DW_TAG_member
TMS320C2000 Assembler PC v15.12.1 Tue Jul 04 10:45:52 2017

Tools Copyright (c) 1996-2015 Texas Instruments Incorporated
resolver.asm                                                         PAGE   53

    2699                      .dwattr $C$DW$226, DW_AT_type(*$C$DW$T$19)
    2700                      .dwattr $C$DW$226, DW_AT_name("INT4E")
    2701                      .dwattr $C$DW$226, DW_AT_TI_symbol_name("_INT4E")
    2702                      .dwattr $C$DW$226, DW_AT_bit_offset(0x02)
    2703                      .dwattr $C$DW$226, DW_AT_bit_size(0x01)
    2704                      .dwattr $C$DW$226, DW_AT_data_member_location[DW_OP_plus_uconst 0x0]
    2705                      .dwattr $C$DW$226, DW_AT_accessibility(DW_ACCESS_public)
    2706              
    2707              $C$DW$227       .dwtag  DW_TAG_member
    2708                      .dwattr $C$DW$227, DW_AT_type(*$C$DW$T$19)
    2709                      .dwattr $C$DW$227, DW_AT_name("INT4CONT")
    2710                      .dwattr $C$DW$227, DW_AT_TI_symbol_name("_INT4CONT")
    2711                      .dwattr $C$DW$227, DW_AT_bit_offset(0x01)
    2712                      .dwattr $C$DW$227, DW_AT_bit_size(0x01)
    2713                      .dwattr $C$DW$227, DW_AT_data_member_location[DW_OP_plus_uconst 0x0]
    2714                      .dwattr $C$DW$227, DW_AT_accessibility(DW_ACCESS_public)
    2715              
    2716              $C$DW$228       .dwtag  DW_TAG_member
    2717                      .dwattr $C$DW$228, DW_AT_type(*$C$DW$T$19)
    2718                      .dwattr $C$DW$228, DW_AT_name("rsvd4")
    2719                      .dwattr $C$DW$228, DW_AT_TI_symbol_name("_rsvd4")
    2720                      .dwattr $C$DW$228, DW_AT_bit_offset(0x00)
    2721                      .dwattr $C$DW$228, DW_AT_bit_size(0x01)
    2722                      .dwattr $C$DW$228, DW_AT_data_member_location[DW_OP_plus_uconst 0x0]
    2723                      .dwattr $C$DW$228, DW_AT_accessibility(DW_ACCESS_public)
    2724              
    2725                      .dwendtag $C$DW$T$49
    2726              
    2727              
    2728              $C$DW$T$50      .dwtag  DW_TAG_union_type
    2729                      .dwattr $C$DW$T$50, DW_AT_name("ADCINTSEL3N4_REG")
    2730                      .dwattr $C$DW$T$50, DW_AT_byte_size(0x01)
    2731              $C$DW$229       .dwtag  DW_TAG_member
    2732                      .dwattr $C$DW$229, DW_AT_type(*$C$DW$T$19)
    2733                      .dwattr $C$DW$229, DW_AT_name("all")
    2734                      .dwattr $C$DW$229, DW_AT_TI_symbol_name("_all")
    2735                      .dwattr $C$DW$229, DW_AT_data_member_location[DW_OP_plus_uconst 0x0]
    2736                      .dwattr $C$DW$229, DW_AT_accessibility(DW_ACCESS_public)
    2737              
    2738              $C$DW$230       .dwtag  DW_TAG_member
    2739                      .dwattr $C$DW$230, DW_AT_type(*$C$DW$T$49)
    2740                      .dwattr $C$DW$230, DW_AT_name("bit")
    2741                      .dwattr $C$DW$230, DW_AT_TI_symbol_name("_bit")
    2742                      .dwattr $C$DW$230, DW_AT_data_member_location[DW_OP_plus_uconst 0x0]
    2743                      .dwattr $C$DW$230, DW_AT_accessibility(DW_ACCESS_public)
    2744              
    2745                      .dwendtag $C$DW$T$50
    2746              
    2747              
    2748              $C$DW$T$51      .dwtag  DW_TAG_structure_type
    2749                      .dwattr $C$DW$T$51, DW_AT_name("ADCINTSOCSEL1_BITS")
    2750                      .dwattr $C$DW$T$51, DW_AT_byte_size(0x01)
    2751              $C$DW$231       .dwtag  DW_TAG_member
    2752                      .dwattr $C$DW$231, DW_AT_type(*$C$DW$T$19)
    2753                      .dwattr $C$DW$231, DW_AT_name("SOC0")
TMS320C2000 Assembler PC v15.12.1 Tue Jul 04 10:45:52 2017

Tools Copyright (c) 1996-2015 Texas Instruments Incorporated
resolver.asm                                                         PAGE   54

    2754                      .dwattr $C$DW$231, DW_AT_TI_symbol_name("_SOC0")
    2755                      .dwattr $C$DW$231, DW_AT_bit_offset(0x0e)
    2756                      .dwattr $C$DW$231, DW_AT_bit_size(0x02)
    2757                      .dwattr $C$DW$231, DW_AT_data_member_location[DW_OP_plus_uconst 0x0]
    2758                      .dwattr $C$DW$231, DW_AT_accessibility(DW_ACCESS_public)
    2759              
    2760              $C$DW$232       .dwtag  DW_TAG_member
    2761                      .dwattr $C$DW$232, DW_AT_type(*$C$DW$T$19)
    2762                      .dwattr $C$DW$232, DW_AT_name("SOC1")
    2763                      .dwattr $C$DW$232, DW_AT_TI_symbol_name("_SOC1")
    2764                      .dwattr $C$DW$232, DW_AT_bit_offset(0x0c)
    2765                      .dwattr $C$DW$232, DW_AT_bit_size(0x02)
    2766                      .dwattr $C$DW$232, DW_AT_data_member_location[DW_OP_plus_uconst 0x0]
    2767                      .dwattr $C$DW$232, DW_AT_accessibility(DW_ACCESS_public)
    2768              
    2769              $C$DW$233       .dwtag  DW_TAG_member
    2770                      .dwattr $C$DW$233, DW_AT_type(*$C$DW$T$19)
    2771                      .dwattr $C$DW$233, DW_AT_name("SOC2")
    2772                      .dwattr $C$DW$233, DW_AT_TI_symbol_name("_SOC2")
    2773                      .dwattr $C$DW$233, DW_AT_bit_offset(0x0a)
    2774                      .dwattr $C$DW$233, DW_AT_bit_size(0x02)
    2775                      .dwattr $C$DW$233, DW_AT_data_member_location[DW_OP_plus_uconst 0x0]
    2776                      .dwattr $C$DW$233, DW_AT_accessibility(DW_ACCESS_public)
    2777              
    2778              $C$DW$234       .dwtag  DW_TAG_member
    2779                      .dwattr $C$DW$234, DW_AT_type(*$C$DW$T$19)
    2780                      .dwattr $C$DW$234, DW_AT_name("SOC3")
    2781                      .dwattr $C$DW$234, DW_AT_TI_symbol_name("_SOC3")
    2782                      .dwattr $C$DW$234, DW_AT_bit_offset(0x08)
    2783                      .dwattr $C$DW$234, DW_AT_bit_size(0x02)
    2784                      .dwattr $C$DW$234, DW_AT_data_member_location[DW_OP_plus_uconst 0x0]
    2785                      .dwattr $C$DW$234, DW_AT_accessibility(DW_ACCESS_public)
    2786              
    2787              $C$DW$235       .dwtag  DW_TAG_member
    2788                      .dwattr $C$DW$235, DW_AT_type(*$C$DW$T$19)
    2789                      .dwattr $C$DW$235, DW_AT_name("SOC4")
    2790                      .dwattr $C$DW$235, DW_AT_TI_symbol_name("_SOC4")
    2791                      .dwattr $C$DW$235, DW_AT_bit_offset(0x06)
    2792                      .dwattr $C$DW$235, DW_AT_bit_size(0x02)
    2793                      .dwattr $C$DW$235, DW_AT_data_member_location[DW_OP_plus_uconst 0x0]
    2794                      .dwattr $C$DW$235, DW_AT_accessibility(DW_ACCESS_public)
    2795              
    2796              $C$DW$236       .dwtag  DW_TAG_member
    2797                      .dwattr $C$DW$236, DW_AT_type(*$C$DW$T$19)
    2798                      .dwattr $C$DW$236, DW_AT_name("SOC5")
    2799                      .dwattr $C$DW$236, DW_AT_TI_symbol_name("_SOC5")
    2800                      .dwattr $C$DW$236, DW_AT_bit_offset(0x04)
    2801                      .dwattr $C$DW$236, DW_AT_bit_size(0x02)
    2802                      .dwattr $C$DW$236, DW_AT_data_member_location[DW_OP_plus_uconst 0x0]
    2803                      .dwattr $C$DW$236, DW_AT_accessibility(DW_ACCESS_public)
    2804              
    2805              $C$DW$237       .dwtag  DW_TAG_member
    2806                      .dwattr $C$DW$237, DW_AT_type(*$C$DW$T$19)
    2807                      .dwattr $C$DW$237, DW_AT_name("SOC6")
    2808                      .dwattr $C$DW$237, DW_AT_TI_symbol_name("_SOC6")
TMS320C2000 Assembler PC v15.12.1 Tue Jul 04 10:45:52 2017

Tools Copyright (c) 1996-2015 Texas Instruments Incorporated
resolver.asm                                                         PAGE   55

    2809                      .dwattr $C$DW$237, DW_AT_bit_offset(0x02)
    2810                      .dwattr $C$DW$237, DW_AT_bit_size(0x02)
    2811                      .dwattr $C$DW$237, DW_AT_data_member_location[DW_OP_plus_uconst 0x0]
    2812                      .dwattr $C$DW$237, DW_AT_accessibility(DW_ACCESS_public)
    2813              
    2814              $C$DW$238       .dwtag  DW_TAG_member
    2815                      .dwattr $C$DW$238, DW_AT_type(*$C$DW$T$19)
    2816                      .dwattr $C$DW$238, DW_AT_name("SOC7")
    2817                      .dwattr $C$DW$238, DW_AT_TI_symbol_name("_SOC7")
    2818                      .dwattr $C$DW$238, DW_AT_bit_offset(0x00)
    2819                      .dwattr $C$DW$238, DW_AT_bit_size(0x02)
    2820                      .dwattr $C$DW$238, DW_AT_data_member_location[DW_OP_plus_uconst 0x0]
    2821                      .dwattr $C$DW$238, DW_AT_accessibility(DW_ACCESS_public)
    2822              
    2823                      .dwendtag $C$DW$T$51
    2824              
    2825              
    2826              $C$DW$T$52      .dwtag  DW_TAG_union_type
    2827                      .dwattr $C$DW$T$52, DW_AT_name("ADCINTSOCSEL1_REG")
    2828                      .dwattr $C$DW$T$52, DW_AT_byte_size(0x01)
    2829              $C$DW$239       .dwtag  DW_TAG_member
    2830                      .dwattr $C$DW$239, DW_AT_type(*$C$DW$T$19)
    2831                      .dwattr $C$DW$239, DW_AT_name("all")
    2832                      .dwattr $C$DW$239, DW_AT_TI_symbol_name("_all")
    2833                      .dwattr $C$DW$239, DW_AT_data_member_location[DW_OP_plus_uconst 0x0]
    2834                      .dwattr $C$DW$239, DW_AT_accessibility(DW_ACCESS_public)
    2835              
    2836              $C$DW$240       .dwtag  DW_TAG_member
    2837                      .dwattr $C$DW$240, DW_AT_type(*$C$DW$T$51)
    2838                      .dwattr $C$DW$240, DW_AT_name("bit")
    2839                      .dwattr $C$DW$240, DW_AT_TI_symbol_name("_bit")
    2840                      .dwattr $C$DW$240, DW_AT_data_member_location[DW_OP_plus_uconst 0x0]
    2841                      .dwattr $C$DW$240, DW_AT_accessibility(DW_ACCESS_public)
    2842              
    2843                      .dwendtag $C$DW$T$52
    2844              
    2845              
    2846              $C$DW$T$53      .dwtag  DW_TAG_structure_type
    2847                      .dwattr $C$DW$T$53, DW_AT_name("ADCINTSOCSEL2_BITS")
    2848                      .dwattr $C$DW$T$53, DW_AT_byte_size(0x01)
    2849              $C$DW$241       .dwtag  DW_TAG_member
    2850                      .dwattr $C$DW$241, DW_AT_type(*$C$DW$T$19)
    2851                      .dwattr $C$DW$241, DW_AT_name("SOC8")
    2852                      .dwattr $C$DW$241, DW_AT_TI_symbol_name("_SOC8")
    2853                      .dwattr $C$DW$241, DW_AT_bit_offset(0x0e)
    2854                      .dwattr $C$DW$241, DW_AT_bit_size(0x02)
    2855                      .dwattr $C$DW$241, DW_AT_data_member_location[DW_OP_plus_uconst 0x0]
    2856                      .dwattr $C$DW$241, DW_AT_accessibility(DW_ACCESS_public)
    2857              
    2858              $C$DW$242       .dwtag  DW_TAG_member
    2859                      .dwattr $C$DW$242, DW_AT_type(*$C$DW$T$19)
    2860                      .dwattr $C$DW$242, DW_AT_name("SOC9")
    2861                      .dwattr $C$DW$242, DW_AT_TI_symbol_name("_SOC9")
    2862                      .dwattr $C$DW$242, DW_AT_bit_offset(0x0c)
    2863                      .dwattr $C$DW$242, DW_AT_bit_size(0x02)
TMS320C2000 Assembler PC v15.12.1 Tue Jul 04 10:45:52 2017

Tools Copyright (c) 1996-2015 Texas Instruments Incorporated
resolver.asm                                                         PAGE   56

    2864                      .dwattr $C$DW$242, DW_AT_data_member_location[DW_OP_plus_uconst 0x0]
    2865                      .dwattr $C$DW$242, DW_AT_accessibility(DW_ACCESS_public)
    2866              
    2867              $C$DW$243       .dwtag  DW_TAG_member
    2868                      .dwattr $C$DW$243, DW_AT_type(*$C$DW$T$19)
    2869                      .dwattr $C$DW$243, DW_AT_name("SOC10")
    2870                      .dwattr $C$DW$243, DW_AT_TI_symbol_name("_SOC10")
    2871                      .dwattr $C$DW$243, DW_AT_bit_offset(0x0a)
    2872                      .dwattr $C$DW$243, DW_AT_bit_size(0x02)
    2873                      .dwattr $C$DW$243, DW_AT_data_member_location[DW_OP_plus_uconst 0x0]
    2874                      .dwattr $C$DW$243, DW_AT_accessibility(DW_ACCESS_public)
    2875              
    2876              $C$DW$244       .dwtag  DW_TAG_member
    2877                      .dwattr $C$DW$244, DW_AT_type(*$C$DW$T$19)
    2878                      .dwattr $C$DW$244, DW_AT_name("SOC11")
    2879                      .dwattr $C$DW$244, DW_AT_TI_symbol_name("_SOC11")
    2880                      .dwattr $C$DW$244, DW_AT_bit_offset(0x08)
    2881                      .dwattr $C$DW$244, DW_AT_bit_size(0x02)
    2882                      .dwattr $C$DW$244, DW_AT_data_member_location[DW_OP_plus_uconst 0x0]
    2883                      .dwattr $C$DW$244, DW_AT_accessibility(DW_ACCESS_public)
    2884              
    2885              $C$DW$245       .dwtag  DW_TAG_member
    2886                      .dwattr $C$DW$245, DW_AT_type(*$C$DW$T$19)
    2887                      .dwattr $C$DW$245, DW_AT_name("SOC12")
    2888                      .dwattr $C$DW$245, DW_AT_TI_symbol_name("_SOC12")
    2889                      .dwattr $C$DW$245, DW_AT_bit_offset(0x06)
    2890                      .dwattr $C$DW$245, DW_AT_bit_size(0x02)
    2891                      .dwattr $C$DW$245, DW_AT_data_member_location[DW_OP_plus_uconst 0x0]
    2892                      .dwattr $C$DW$245, DW_AT_accessibility(DW_ACCESS_public)
    2893              
    2894              $C$DW$246       .dwtag  DW_TAG_member
    2895                      .dwattr $C$DW$246, DW_AT_type(*$C$DW$T$19)
    2896                      .dwattr $C$DW$246, DW_AT_name("SOC13")
    2897                      .dwattr $C$DW$246, DW_AT_TI_symbol_name("_SOC13")
    2898                      .dwattr $C$DW$246, DW_AT_bit_offset(0x04)
    2899                      .dwattr $C$DW$246, DW_AT_bit_size(0x02)
    2900                      .dwattr $C$DW$246, DW_AT_data_member_location[DW_OP_plus_uconst 0x0]
    2901                      .dwattr $C$DW$246, DW_AT_accessibility(DW_ACCESS_public)
    2902              
    2903              $C$DW$247       .dwtag  DW_TAG_member
    2904                      .dwattr $C$DW$247, DW_AT_type(*$C$DW$T$19)
    2905                      .dwattr $C$DW$247, DW_AT_name("SOC14")
    2906                      .dwattr $C$DW$247, DW_AT_TI_symbol_name("_SOC14")
    2907                      .dwattr $C$DW$247, DW_AT_bit_offset(0x02)
    2908                      .dwattr $C$DW$247, DW_AT_bit_size(0x02)
    2909                      .dwattr $C$DW$247, DW_AT_data_member_location[DW_OP_plus_uconst 0x0]
    2910                      .dwattr $C$DW$247, DW_AT_accessibility(DW_ACCESS_public)
    2911              
    2912              $C$DW$248       .dwtag  DW_TAG_member
    2913                      .dwattr $C$DW$248, DW_AT_type(*$C$DW$T$19)
    2914                      .dwattr $C$DW$248, DW_AT_name("SOC15")
    2915                      .dwattr $C$DW$248, DW_AT_TI_symbol_name("_SOC15")
    2916                      .dwattr $C$DW$248, DW_AT_bit_offset(0x00)
    2917                      .dwattr $C$DW$248, DW_AT_bit_size(0x02)
    2918                      .dwattr $C$DW$248, DW_AT_data_member_location[DW_OP_plus_uconst 0x0]
TMS320C2000 Assembler PC v15.12.1 Tue Jul 04 10:45:52 2017

Tools Copyright (c) 1996-2015 Texas Instruments Incorporated
resolver.asm                                                         PAGE   57

    2919                      .dwattr $C$DW$248, DW_AT_accessibility(DW_ACCESS_public)
    2920              
    2921                      .dwendtag $C$DW$T$53
    2922              
    2923              
    2924              $C$DW$T$54      .dwtag  DW_TAG_union_type
    2925                      .dwattr $C$DW$T$54, DW_AT_name("ADCINTSOCSEL2_REG")
    2926                      .dwattr $C$DW$T$54, DW_AT_byte_size(0x01)
    2927              $C$DW$249       .dwtag  DW_TAG_member
    2928                      .dwattr $C$DW$249, DW_AT_type(*$C$DW$T$19)
    2929                      .dwattr $C$DW$249, DW_AT_name("all")
    2930                      .dwattr $C$DW$249, DW_AT_TI_symbol_name("_all")
    2931                      .dwattr $C$DW$249, DW_AT_data_member_location[DW_OP_plus_uconst 0x0]
    2932                      .dwattr $C$DW$249, DW_AT_accessibility(DW_ACCESS_public)
    2933              
    2934              $C$DW$250       .dwtag  DW_TAG_member
    2935                      .dwattr $C$DW$250, DW_AT_type(*$C$DW$T$53)
    2936                      .dwattr $C$DW$250, DW_AT_name("bit")
    2937                      .dwattr $C$DW$250, DW_AT_TI_symbol_name("_bit")
    2938                      .dwattr $C$DW$250, DW_AT_data_member_location[DW_OP_plus_uconst 0x0]
    2939                      .dwattr $C$DW$250, DW_AT_accessibility(DW_ACCESS_public)
    2940              
    2941                      .dwendtag $C$DW$T$54
    2942              
    2943              
    2944              $C$DW$T$55      .dwtag  DW_TAG_structure_type
    2945                      .dwattr $C$DW$T$55, DW_AT_name("ADCOFFTRIM_BITS")
    2946                      .dwattr $C$DW$T$55, DW_AT_byte_size(0x01)
    2947              $C$DW$251       .dwtag  DW_TAG_member
    2948                      .dwattr $C$DW$251, DW_AT_type(*$C$DW$T$19)
    2949                      .dwattr $C$DW$251, DW_AT_name("OFFTRIM")
    2950                      .dwattr $C$DW$251, DW_AT_TI_symbol_name("_OFFTRIM")
    2951                      .dwattr $C$DW$251, DW_AT_bit_offset(0x08)
    2952                      .dwattr $C$DW$251, DW_AT_bit_size(0x08)
    2953                      .dwattr $C$DW$251, DW_AT_data_member_location[DW_OP_plus_uconst 0x0]
    2954                      .dwattr $C$DW$251, DW_AT_accessibility(DW_ACCESS_public)
    2955              
    2956              $C$DW$252       .dwtag  DW_TAG_member
    2957                      .dwattr $C$DW$252, DW_AT_type(*$C$DW$T$19)
    2958                      .dwattr $C$DW$252, DW_AT_name("rsvd1")
    2959                      .dwattr $C$DW$252, DW_AT_TI_symbol_name("_rsvd1")
    2960                      .dwattr $C$DW$252, DW_AT_bit_offset(0x00)
    2961                      .dwattr $C$DW$252, DW_AT_bit_size(0x08)
    2962                      .dwattr $C$DW$252, DW_AT_data_member_location[DW_OP_plus_uconst 0x0]
    2963                      .dwattr $C$DW$252, DW_AT_accessibility(DW_ACCESS_public)
    2964              
    2965                      .dwendtag $C$DW$T$55
    2966              
    2967              
    2968              $C$DW$T$56      .dwtag  DW_TAG_union_type
    2969                      .dwattr $C$DW$T$56, DW_AT_name("ADCOFFTRIM_REG")
    2970                      .dwattr $C$DW$T$56, DW_AT_byte_size(0x01)
    2971              $C$DW$253       .dwtag  DW_TAG_member
    2972                      .dwattr $C$DW$253, DW_AT_type(*$C$DW$T$19)
    2973                      .dwattr $C$DW$253, DW_AT_name("all")
TMS320C2000 Assembler PC v15.12.1 Tue Jul 04 10:45:52 2017

Tools Copyright (c) 1996-2015 Texas Instruments Incorporated
resolver.asm                                                         PAGE   58

    2974                      .dwattr $C$DW$253, DW_AT_TI_symbol_name("_all")
    2975                      .dwattr $C$DW$253, DW_AT_data_member_location[DW_OP_plus_uconst 0x0]
    2976                      .dwattr $C$DW$253, DW_AT_accessibility(DW_ACCESS_public)
    2977              
    2978              $C$DW$254       .dwtag  DW_TAG_member
    2979                      .dwattr $C$DW$254, DW_AT_type(*$C$DW$T$55)
    2980                      .dwattr $C$DW$254, DW_AT_name("bit")
    2981                      .dwattr $C$DW$254, DW_AT_TI_symbol_name("_bit")
    2982                      .dwattr $C$DW$254, DW_AT_data_member_location[DW_OP_plus_uconst 0x0]
    2983                      .dwattr $C$DW$254, DW_AT_accessibility(DW_ACCESS_public)
    2984              
    2985                      .dwendtag $C$DW$T$56
    2986              
    2987              
    2988              $C$DW$T$57      .dwtag  DW_TAG_structure_type
    2989                      .dwattr $C$DW$T$57, DW_AT_name("ADCPPB1CONFIG_BITS")
    2990                      .dwattr $C$DW$T$57, DW_AT_byte_size(0x01)
    2991              $C$DW$255       .dwtag  DW_TAG_member
    2992                      .dwattr $C$DW$255, DW_AT_type(*$C$DW$T$19)
    2993                      .dwattr $C$DW$255, DW_AT_name("CONFIG")
    2994                      .dwattr $C$DW$255, DW_AT_TI_symbol_name("_CONFIG")
    2995                      .dwattr $C$DW$255, DW_AT_bit_offset(0x0c)
    2996                      .dwattr $C$DW$255, DW_AT_bit_size(0x04)
    2997                      .dwattr $C$DW$255, DW_AT_data_member_location[DW_OP_plus_uconst 0x0]
    2998                      .dwattr $C$DW$255, DW_AT_accessibility(DW_ACCESS_public)
    2999              
    3000              $C$DW$256       .dwtag  DW_TAG_member
    3001                      .dwattr $C$DW$256, DW_AT_type(*$C$DW$T$19)
    3002                      .dwattr $C$DW$256, DW_AT_name("TWOSCOMPEN")
    3003                      .dwattr $C$DW$256, DW_AT_TI_symbol_name("_TWOSCOMPEN")
    3004                      .dwattr $C$DW$256, DW_AT_bit_offset(0x0b)
    3005                      .dwattr $C$DW$256, DW_AT_bit_size(0x01)
    3006                      .dwattr $C$DW$256, DW_AT_data_member_location[DW_OP_plus_uconst 0x0]
    3007                      .dwattr $C$DW$256, DW_AT_accessibility(DW_ACCESS_public)
    3008              
    3009              $C$DW$257       .dwtag  DW_TAG_member
    3010                      .dwattr $C$DW$257, DW_AT_type(*$C$DW$T$19)
    3011                      .dwattr $C$DW$257, DW_AT_name("rsvd1")
    3012                      .dwattr $C$DW$257, DW_AT_TI_symbol_name("_rsvd1")
    3013                      .dwattr $C$DW$257, DW_AT_bit_offset(0x00)
    3014                      .dwattr $C$DW$257, DW_AT_bit_size(0x0b)
    3015                      .dwattr $C$DW$257, DW_AT_data_member_location[DW_OP_plus_uconst 0x0]
    3016                      .dwattr $C$DW$257, DW_AT_accessibility(DW_ACCESS_public)
    3017              
    3018                      .dwendtag $C$DW$T$57
    3019              
    3020              
    3021              $C$DW$T$58      .dwtag  DW_TAG_union_type
    3022                      .dwattr $C$DW$T$58, DW_AT_name("ADCPPB1CONFIG_REG")
    3023                      .dwattr $C$DW$T$58, DW_AT_byte_size(0x01)
    3024              $C$DW$258       .dwtag  DW_TAG_member
    3025                      .dwattr $C$DW$258, DW_AT_type(*$C$DW$T$19)
    3026                      .dwattr $C$DW$258, DW_AT_name("all")
    3027                      .dwattr $C$DW$258, DW_AT_TI_symbol_name("_all")
    3028                      .dwattr $C$DW$258, DW_AT_data_member_location[DW_OP_plus_uconst 0x0]
TMS320C2000 Assembler PC v15.12.1 Tue Jul 04 10:45:52 2017

Tools Copyright (c) 1996-2015 Texas Instruments Incorporated
resolver.asm                                                         PAGE   59

    3029                      .dwattr $C$DW$258, DW_AT_accessibility(DW_ACCESS_public)
    3030              
    3031              $C$DW$259       .dwtag  DW_TAG_member
    3032                      .dwattr $C$DW$259, DW_AT_type(*$C$DW$T$57)
    3033                      .dwattr $C$DW$259, DW_AT_name("bit")
    3034                      .dwattr $C$DW$259, DW_AT_TI_symbol_name("_bit")
    3035                      .dwattr $C$DW$259, DW_AT_data_member_location[DW_OP_plus_uconst 0x0]
    3036                      .dwattr $C$DW$259, DW_AT_accessibility(DW_ACCESS_public)
    3037              
    3038                      .dwendtag $C$DW$T$58
    3039              
    3040              
    3041              $C$DW$T$59      .dwtag  DW_TAG_structure_type
    3042                      .dwattr $C$DW$T$59, DW_AT_name("ADCPPB1OFFCAL_BITS")
    3043                      .dwattr $C$DW$T$59, DW_AT_byte_size(0x01)
    3044              $C$DW$260       .dwtag  DW_TAG_member
    3045                      .dwattr $C$DW$260, DW_AT_type(*$C$DW$T$19)
    3046                      .dwattr $C$DW$260, DW_AT_name("OFFCAL")
    3047                      .dwattr $C$DW$260, DW_AT_TI_symbol_name("_OFFCAL")
    3048                      .dwattr $C$DW$260, DW_AT_bit_offset(0x06)
    3049                      .dwattr $C$DW$260, DW_AT_bit_size(0x0a)
    3050                      .dwattr $C$DW$260, DW_AT_data_member_location[DW_OP_plus_uconst 0x0]
    3051                      .dwattr $C$DW$260, DW_AT_accessibility(DW_ACCESS_public)
    3052              
    3053              $C$DW$261       .dwtag  DW_TAG_member
    3054                      .dwattr $C$DW$261, DW_AT_type(*$C$DW$T$19)
    3055                      .dwattr $C$DW$261, DW_AT_name("rsvd1")
    3056                      .dwattr $C$DW$261, DW_AT_TI_symbol_name("_rsvd1")
    3057                      .dwattr $C$DW$261, DW_AT_bit_offset(0x00)
    3058                      .dwattr $C$DW$261, DW_AT_bit_size(0x06)
    3059                      .dwattr $C$DW$261, DW_AT_data_member_location[DW_OP_plus_uconst 0x0]
    3060                      .dwattr $C$DW$261, DW_AT_accessibility(DW_ACCESS_public)
    3061              
    3062                      .dwendtag $C$DW$T$59
    3063              
    3064              
    3065              $C$DW$T$60      .dwtag  DW_TAG_union_type
    3066                      .dwattr $C$DW$T$60, DW_AT_name("ADCPPB1OFFCAL_REG")
    3067                      .dwattr $C$DW$T$60, DW_AT_byte_size(0x01)
    3068              $C$DW$262       .dwtag  DW_TAG_member
    3069                      .dwattr $C$DW$262, DW_AT_type(*$C$DW$T$19)
    3070                      .dwattr $C$DW$262, DW_AT_name("all")
    3071                      .dwattr $C$DW$262, DW_AT_TI_symbol_name("_all")
    3072                      .dwattr $C$DW$262, DW_AT_data_member_location[DW_OP_plus_uconst 0x0]
    3073                      .dwattr $C$DW$262, DW_AT_accessibility(DW_ACCESS_public)
    3074              
    3075              $C$DW$263       .dwtag  DW_TAG_member
    3076                      .dwattr $C$DW$263, DW_AT_type(*$C$DW$T$59)
    3077                      .dwattr $C$DW$263, DW_AT_name("bit")
    3078                      .dwattr $C$DW$263, DW_AT_TI_symbol_name("_bit")
    3079                      .dwattr $C$DW$263, DW_AT_data_member_location[DW_OP_plus_uconst 0x0]
    3080                      .dwattr $C$DW$263, DW_AT_accessibility(DW_ACCESS_public)
    3081              
    3082                      .dwendtag $C$DW$T$60
    3083              
TMS320C2000 Assembler PC v15.12.1 Tue Jul 04 10:45:52 2017

Tools Copyright (c) 1996-2015 Texas Instruments Incorporated
resolver.asm                                                         PAGE   60

    3084              
    3085              $C$DW$T$61      .dwtag  DW_TAG_structure_type
    3086                      .dwattr $C$DW$T$61, DW_AT_name("ADCPPB1RESULT_BITS")
    3087                      .dwattr $C$DW$T$61, DW_AT_byte_size(0x02)
    3088              $C$DW$264       .dwtag  DW_TAG_member
    3089                      .dwattr $C$DW$264, DW_AT_type(*$C$DW$T$19)
    3090                      .dwattr $C$DW$264, DW_AT_name("PPBRESULT")
    3091                      .dwattr $C$DW$264, DW_AT_TI_symbol_name("_PPBRESULT")
    3092                      .dwattr $C$DW$264, DW_AT_bit_offset(0x00)
    3093                      .dwattr $C$DW$264, DW_AT_bit_size(0x10)
    3094                      .dwattr $C$DW$264, DW_AT_data_member_location[DW_OP_plus_uconst 0x0]
    3095                      .dwattr $C$DW$264, DW_AT_accessibility(DW_ACCESS_public)
    3096              
    3097              $C$DW$265       .dwtag  DW_TAG_member
    3098                      .dwattr $C$DW$265, DW_AT_type(*$C$DW$T$19)
    3099                      .dwattr $C$DW$265, DW_AT_name("SIGN")
    3100                      .dwattr $C$DW$265, DW_AT_TI_symbol_name("_SIGN")
    3101                      .dwattr $C$DW$265, DW_AT_bit_offset(0x00)
    3102                      .dwattr $C$DW$265, DW_AT_bit_size(0x10)
    3103                      .dwattr $C$DW$265, DW_AT_data_member_location[DW_OP_plus_uconst 0x1]
    3104                      .dwattr $C$DW$265, DW_AT_accessibility(DW_ACCESS_public)
    3105              
    3106                      .dwendtag $C$DW$T$61
    3107              
    3108              
    3109              $C$DW$T$63      .dwtag  DW_TAG_union_type
    3110                      .dwattr $C$DW$T$63, DW_AT_name("ADCPPB1RESULT_REG")
    3111                      .dwattr $C$DW$T$63, DW_AT_byte_size(0x02)
    3112              $C$DW$266       .dwtag  DW_TAG_member
    3113                      .dwattr $C$DW$266, DW_AT_type(*$C$DW$T$62)
    3114                      .dwattr $C$DW$266, DW_AT_name("all")
    3115                      .dwattr $C$DW$266, DW_AT_TI_symbol_name("_all")
    3116                      .dwattr $C$DW$266, DW_AT_data_member_location[DW_OP_plus_uconst 0x0]
    3117                      .dwattr $C$DW$266, DW_AT_accessibility(DW_ACCESS_public)
    3118              
    3119              $C$DW$267       .dwtag  DW_TAG_member
    3120                      .dwattr $C$DW$267, DW_AT_type(*$C$DW$T$61)
    3121                      .dwattr $C$DW$267, DW_AT_name("bit")
    3122                      .dwattr $C$DW$267, DW_AT_TI_symbol_name("_bit")
    3123                      .dwattr $C$DW$267, DW_AT_data_member_location[DW_OP_plus_uconst 0x0]
    3124                      .dwattr $C$DW$267, DW_AT_accessibility(DW_ACCESS_public)
    3125              
    3126                      .dwendtag $C$DW$T$63
    3127              
    3128              
    3129              $C$DW$T$64      .dwtag  DW_TAG_structure_type
    3130                      .dwattr $C$DW$T$64, DW_AT_name("ADCPPB1STAMP_BITS")
    3131                      .dwattr $C$DW$T$64, DW_AT_byte_size(0x01)
    3132              $C$DW$268       .dwtag  DW_TAG_member
    3133                      .dwattr $C$DW$268, DW_AT_type(*$C$DW$T$19)
    3134                      .dwattr $C$DW$268, DW_AT_name("DLYSTAMP")
    3135                      .dwattr $C$DW$268, DW_AT_TI_symbol_name("_DLYSTAMP")
    3136                      .dwattr $C$DW$268, DW_AT_bit_offset(0x04)
    3137                      .dwattr $C$DW$268, DW_AT_bit_size(0x0c)
    3138                      .dwattr $C$DW$268, DW_AT_data_member_location[DW_OP_plus_uconst 0x0]
TMS320C2000 Assembler PC v15.12.1 Tue Jul 04 10:45:52 2017

Tools Copyright (c) 1996-2015 Texas Instruments Incorporated
resolver.asm                                                         PAGE   61

    3139                      .dwattr $C$DW$268, DW_AT_accessibility(DW_ACCESS_public)
    3140              
    3141              $C$DW$269       .dwtag  DW_TAG_member
    3142                      .dwattr $C$DW$269, DW_AT_type(*$C$DW$T$19)
    3143                      .dwattr $C$DW$269, DW_AT_name("rsvd1")
    3144                      .dwattr $C$DW$269, DW_AT_TI_symbol_name("_rsvd1")
    3145                      .dwattr $C$DW$269, DW_AT_bit_offset(0x00)
    3146                      .dwattr $C$DW$269, DW_AT_bit_size(0x04)
    3147                      .dwattr $C$DW$269, DW_AT_data_member_location[DW_OP_plus_uconst 0x0]
    3148                      .dwattr $C$DW$269, DW_AT_accessibility(DW_ACCESS_public)
    3149              
    3150                      .dwendtag $C$DW$T$64
    3151              
    3152              
    3153              $C$DW$T$65      .dwtag  DW_TAG_union_type
    3154                      .dwattr $C$DW$T$65, DW_AT_name("ADCPPB1STAMP_REG")
    3155                      .dwattr $C$DW$T$65, DW_AT_byte_size(0x01)
    3156              $C$DW$270       .dwtag  DW_TAG_member
    3157                      .dwattr $C$DW$270, DW_AT_type(*$C$DW$T$19)
    3158                      .dwattr $C$DW$270, DW_AT_name("all")
    3159                      .dwattr $C$DW$270, DW_AT_TI_symbol_name("_all")
    3160                      .dwattr $C$DW$270, DW_AT_data_member_location[DW_OP_plus_uconst 0x0]
    3161                      .dwattr $C$DW$270, DW_AT_accessibility(DW_ACCESS_public)
    3162              
    3163              $C$DW$271       .dwtag  DW_TAG_member
    3164                      .dwattr $C$DW$271, DW_AT_type(*$C$DW$T$64)
    3165                      .dwattr $C$DW$271, DW_AT_name("bit")
    3166                      .dwattr $C$DW$271, DW_AT_TI_symbol_name("_bit")
    3167                      .dwattr $C$DW$271, DW_AT_data_member_location[DW_OP_plus_uconst 0x0]
    3168                      .dwattr $C$DW$271, DW_AT_accessibility(DW_ACCESS_public)
    3169              
    3170                      .dwendtag $C$DW$T$65
    3171              
    3172              
    3173              $C$DW$T$66      .dwtag  DW_TAG_structure_type
    3174                      .dwattr $C$DW$T$66, DW_AT_name("ADCPPB1TRIPHI_BITS")
    3175                      .dwattr $C$DW$T$66, DW_AT_byte_size(0x02)
    3176              $C$DW$272       .dwtag  DW_TAG_member
    3177                      .dwattr $C$DW$272, DW_AT_type(*$C$DW$T$19)
    3178                      .dwattr $C$DW$272, DW_AT_name("LIMITHI")
    3179                      .dwattr $C$DW$272, DW_AT_TI_symbol_name("_LIMITHI")
    3180                      .dwattr $C$DW$272, DW_AT_bit_offset(0x00)
    3181                      .dwattr $C$DW$272, DW_AT_bit_size(0x10)
    3182                      .dwattr $C$DW$272, DW_AT_data_member_location[DW_OP_plus_uconst 0x0]
    3183                      .dwattr $C$DW$272, DW_AT_accessibility(DW_ACCESS_public)
    3184              
    3185              $C$DW$273       .dwtag  DW_TAG_member
    3186                      .dwattr $C$DW$273, DW_AT_type(*$C$DW$T$19)
    3187                      .dwattr $C$DW$273, DW_AT_name("HSIGN")
    3188                      .dwattr $C$DW$273, DW_AT_TI_symbol_name("_HSIGN")
    3189                      .dwattr $C$DW$273, DW_AT_bit_offset(0x0f)
    3190                      .dwattr $C$DW$273, DW_AT_bit_size(0x01)
    3191                      .dwattr $C$DW$273, DW_AT_data_member_location[DW_OP_plus_uconst 0x1]
    3192                      .dwattr $C$DW$273, DW_AT_accessibility(DW_ACCESS_public)
    3193              
TMS320C2000 Assembler PC v15.12.1 Tue Jul 04 10:45:52 2017

Tools Copyright (c) 1996-2015 Texas Instruments Incorporated
resolver.asm                                                         PAGE   62

    3194              $C$DW$274       .dwtag  DW_TAG_member
    3195                      .dwattr $C$DW$274, DW_AT_type(*$C$DW$T$19)
    3196                      .dwattr $C$DW$274, DW_AT_name("rsvd1")
    3197                      .dwattr $C$DW$274, DW_AT_TI_symbol_name("_rsvd1")
    3198                      .dwattr $C$DW$274, DW_AT_bit_offset(0x00)
    3199                      .dwattr $C$DW$274, DW_AT_bit_size(0x0f)
    3200                      .dwattr $C$DW$274, DW_AT_data_member_location[DW_OP_plus_uconst 0x1]
    3201                      .dwattr $C$DW$274, DW_AT_accessibility(DW_ACCESS_public)
    3202              
    3203                      .dwendtag $C$DW$T$66
    3204              
    3205              
    3206              $C$DW$T$67      .dwtag  DW_TAG_union_type
    3207                      .dwattr $C$DW$T$67, DW_AT_name("ADCPPB1TRIPHI_REG")
    3208                      .dwattr $C$DW$T$67, DW_AT_byte_size(0x02)
    3209              $C$DW$275       .dwtag  DW_TAG_member
    3210                      .dwattr $C$DW$275, DW_AT_type(*$C$DW$T$62)
    3211                      .dwattr $C$DW$275, DW_AT_name("all")
    3212                      .dwattr $C$DW$275, DW_AT_TI_symbol_name("_all")
    3213                      .dwattr $C$DW$275, DW_AT_data_member_location[DW_OP_plus_uconst 0x0]
    3214                      .dwattr $C$DW$275, DW_AT_accessibility(DW_ACCESS_public)
    3215              
    3216              $C$DW$276       .dwtag  DW_TAG_member
    3217                      .dwattr $C$DW$276, DW_AT_type(*$C$DW$T$66)
    3218                      .dwattr $C$DW$276, DW_AT_name("bit")
    3219                      .dwattr $C$DW$276, DW_AT_TI_symbol_name("_bit")
    3220                      .dwattr $C$DW$276, DW_AT_data_member_location[DW_OP_plus_uconst 0x0]
    3221                      .dwattr $C$DW$276, DW_AT_accessibility(DW_ACCESS_public)
    3222              
    3223                      .dwendtag $C$DW$T$67
    3224              
    3225              
    3226              $C$DW$T$68      .dwtag  DW_TAG_structure_type
    3227                      .dwattr $C$DW$T$68, DW_AT_name("ADCPPB1TRIPLO_BITS")
    3228                      .dwattr $C$DW$T$68, DW_AT_byte_size(0x02)
    3229              $C$DW$277       .dwtag  DW_TAG_member
    3230                      .dwattr $C$DW$277, DW_AT_type(*$C$DW$T$19)
    3231                      .dwattr $C$DW$277, DW_AT_name("LIMITLO")
    3232                      .dwattr $C$DW$277, DW_AT_TI_symbol_name("_LIMITLO")
    3233                      .dwattr $C$DW$277, DW_AT_bit_offset(0x00)
    3234                      .dwattr $C$DW$277, DW_AT_bit_size(0x10)
    3235                      .dwattr $C$DW$277, DW_AT_data_member_location[DW_OP_plus_uconst 0x0]
    3236                      .dwattr $C$DW$277, DW_AT_accessibility(DW_ACCESS_public)
    3237              
    3238              $C$DW$278       .dwtag  DW_TAG_member
    3239                      .dwattr $C$DW$278, DW_AT_type(*$C$DW$T$19)
    3240                      .dwattr $C$DW$278, DW_AT_name("LSIGN")
    3241                      .dwattr $C$DW$278, DW_AT_TI_symbol_name("_LSIGN")
    3242                      .dwattr $C$DW$278, DW_AT_bit_offset(0x0f)
    3243                      .dwattr $C$DW$278, DW_AT_bit_size(0x01)
    3244                      .dwattr $C$DW$278, DW_AT_data_member_location[DW_OP_plus_uconst 0x1]
    3245                      .dwattr $C$DW$278, DW_AT_accessibility(DW_ACCESS_public)
    3246              
    3247              $C$DW$279       .dwtag  DW_TAG_member
    3248                      .dwattr $C$DW$279, DW_AT_type(*$C$DW$T$19)
TMS320C2000 Assembler PC v15.12.1 Tue Jul 04 10:45:52 2017

Tools Copyright (c) 1996-2015 Texas Instruments Incorporated
resolver.asm                                                         PAGE   63

    3249                      .dwattr $C$DW$279, DW_AT_name("rsvd1")
    3250                      .dwattr $C$DW$279, DW_AT_TI_symbol_name("_rsvd1")
    3251                      .dwattr $C$DW$279, DW_AT_bit_offset(0x0c)
    3252                      .dwattr $C$DW$279, DW_AT_bit_size(0x03)
    3253                      .dwattr $C$DW$279, DW_AT_data_member_location[DW_OP_plus_uconst 0x1]
    3254                      .dwattr $C$DW$279, DW_AT_accessibility(DW_ACCESS_public)
    3255              
    3256              $C$DW$280       .dwtag  DW_TAG_member
    3257                      .dwattr $C$DW$280, DW_AT_type(*$C$DW$T$19)
    3258                      .dwattr $C$DW$280, DW_AT_name("REQSTAMP")
    3259                      .dwattr $C$DW$280, DW_AT_TI_symbol_name("_REQSTAMP")
    3260                      .dwattr $C$DW$280, DW_AT_bit_offset(0x00)
    3261                      .dwattr $C$DW$280, DW_AT_bit_size(0x0c)
    3262                      .dwattr $C$DW$280, DW_AT_data_member_location[DW_OP_plus_uconst 0x1]
    3263                      .dwattr $C$DW$280, DW_AT_accessibility(DW_ACCESS_public)
    3264              
    3265                      .dwendtag $C$DW$T$68
    3266              
    3267              
    3268              $C$DW$T$69      .dwtag  DW_TAG_union_type
    3269                      .dwattr $C$DW$T$69, DW_AT_name("ADCPPB1TRIPLO_REG")
    3270                      .dwattr $C$DW$T$69, DW_AT_byte_size(0x02)
    3271              $C$DW$281       .dwtag  DW_TAG_member
    3272                      .dwattr $C$DW$281, DW_AT_type(*$C$DW$T$62)
    3273                      .dwattr $C$DW$281, DW_AT_name("all")
    3274                      .dwattr $C$DW$281, DW_AT_TI_symbol_name("_all")
    3275                      .dwattr $C$DW$281, DW_AT_data_member_location[DW_OP_plus_uconst 0x0]
    3276                      .dwattr $C$DW$281, DW_AT_accessibility(DW_ACCESS_public)
    3277              
    3278              $C$DW$282       .dwtag  DW_TAG_member
    3279                      .dwattr $C$DW$282, DW_AT_type(*$C$DW$T$68)
    3280                      .dwattr $C$DW$282, DW_AT_name("bit")
    3281                      .dwattr $C$DW$282, DW_AT_TI_symbol_name("_bit")
    3282                      .dwattr $C$DW$282, DW_AT_data_member_location[DW_OP_plus_uconst 0x0]
    3283                      .dwattr $C$DW$282, DW_AT_accessibility(DW_ACCESS_public)
    3284              
    3285                      .dwendtag $C$DW$T$69
    3286              
    3287              
    3288              $C$DW$T$70      .dwtag  DW_TAG_structure_type
    3289                      .dwattr $C$DW$T$70, DW_AT_name("ADCPPB2CONFIG_BITS")
    3290                      .dwattr $C$DW$T$70, DW_AT_byte_size(0x01)
    3291              $C$DW$283       .dwtag  DW_TAG_member
    3292                      .dwattr $C$DW$283, DW_AT_type(*$C$DW$T$19)
    3293                      .dwattr $C$DW$283, DW_AT_name("CONFIG")
    3294                      .dwattr $C$DW$283, DW_AT_TI_symbol_name("_CONFIG")
    3295                      .dwattr $C$DW$283, DW_AT_bit_offset(0x0c)
    3296                      .dwattr $C$DW$283, DW_AT_bit_size(0x04)
    3297                      .dwattr $C$DW$283, DW_AT_data_member_location[DW_OP_plus_uconst 0x0]
    3298                      .dwattr $C$DW$283, DW_AT_accessibility(DW_ACCESS_public)
    3299              
    3300              $C$DW$284       .dwtag  DW_TAG_member
    3301                      .dwattr $C$DW$284, DW_AT_type(*$C$DW$T$19)
    3302                      .dwattr $C$DW$284, DW_AT_name("TWOSCOMPEN")
    3303                      .dwattr $C$DW$284, DW_AT_TI_symbol_name("_TWOSCOMPEN")
TMS320C2000 Assembler PC v15.12.1 Tue Jul 04 10:45:52 2017

Tools Copyright (c) 1996-2015 Texas Instruments Incorporated
resolver.asm                                                         PAGE   64

    3304                      .dwattr $C$DW$284, DW_AT_bit_offset(0x0b)
    3305                      .dwattr $C$DW$284, DW_AT_bit_size(0x01)
    3306                      .dwattr $C$DW$284, DW_AT_data_member_location[DW_OP_plus_uconst 0x0]
    3307                      .dwattr $C$DW$284, DW_AT_accessibility(DW_ACCESS_public)
    3308              
    3309              $C$DW$285       .dwtag  DW_TAG_member
    3310                      .dwattr $C$DW$285, DW_AT_type(*$C$DW$T$19)
    3311                      .dwattr $C$DW$285, DW_AT_name("rsvd1")
    3312                      .dwattr $C$DW$285, DW_AT_TI_symbol_name("_rsvd1")
    3313                      .dwattr $C$DW$285, DW_AT_bit_offset(0x00)
    3314                      .dwattr $C$DW$285, DW_AT_bit_size(0x0b)
    3315                      .dwattr $C$DW$285, DW_AT_data_member_location[DW_OP_plus_uconst 0x0]
    3316                      .dwattr $C$DW$285, DW_AT_accessibility(DW_ACCESS_public)
    3317              
    3318                      .dwendtag $C$DW$T$70
    3319              
    3320              
    3321              $C$DW$T$71      .dwtag  DW_TAG_union_type
    3322                      .dwattr $C$DW$T$71, DW_AT_name("ADCPPB2CONFIG_REG")
    3323                      .dwattr $C$DW$T$71, DW_AT_byte_size(0x01)
    3324              $C$DW$286       .dwtag  DW_TAG_member
    3325                      .dwattr $C$DW$286, DW_AT_type(*$C$DW$T$19)
    3326                      .dwattr $C$DW$286, DW_AT_name("all")
    3327                      .dwattr $C$DW$286, DW_AT_TI_symbol_name("_all")
    3328                      .dwattr $C$DW$286, DW_AT_data_member_location[DW_OP_plus_uconst 0x0]
    3329                      .dwattr $C$DW$286, DW_AT_accessibility(DW_ACCESS_public)
    3330              
    3331              $C$DW$287       .dwtag  DW_TAG_member
    3332                      .dwattr $C$DW$287, DW_AT_type(*$C$DW$T$70)
    3333                      .dwattr $C$DW$287, DW_AT_name("bit")
    3334                      .dwattr $C$DW$287, DW_AT_TI_symbol_name("_bit")
    3335                      .dwattr $C$DW$287, DW_AT_data_member_location[DW_OP_plus_uconst 0x0]
    3336                      .dwattr $C$DW$287, DW_AT_accessibility(DW_ACCESS_public)
    3337              
    3338                      .dwendtag $C$DW$T$71
    3339              
    3340              
    3341              $C$DW$T$72      .dwtag  DW_TAG_structure_type
    3342                      .dwattr $C$DW$T$72, DW_AT_name("ADCPPB2OFFCAL_BITS")
    3343                      .dwattr $C$DW$T$72, DW_AT_byte_size(0x01)
    3344              $C$DW$288       .dwtag  DW_TAG_member
    3345                      .dwattr $C$DW$288, DW_AT_type(*$C$DW$T$19)
    3346                      .dwattr $C$DW$288, DW_AT_name("OFFCAL")
    3347                      .dwattr $C$DW$288, DW_AT_TI_symbol_name("_OFFCAL")
    3348                      .dwattr $C$DW$288, DW_AT_bit_offset(0x06)
    3349                      .dwattr $C$DW$288, DW_AT_bit_size(0x0a)
    3350                      .dwattr $C$DW$288, DW_AT_data_member_location[DW_OP_plus_uconst 0x0]
    3351                      .dwattr $C$DW$288, DW_AT_accessibility(DW_ACCESS_public)
    3352              
    3353              $C$DW$289       .dwtag  DW_TAG_member
    3354                      .dwattr $C$DW$289, DW_AT_type(*$C$DW$T$19)
    3355                      .dwattr $C$DW$289, DW_AT_name("rsvd1")
    3356                      .dwattr $C$DW$289, DW_AT_TI_symbol_name("_rsvd1")
    3357                      .dwattr $C$DW$289, DW_AT_bit_offset(0x00)
    3358                      .dwattr $C$DW$289, DW_AT_bit_size(0x06)
TMS320C2000 Assembler PC v15.12.1 Tue Jul 04 10:45:52 2017

Tools Copyright (c) 1996-2015 Texas Instruments Incorporated
resolver.asm                                                         PAGE   65

    3359                      .dwattr $C$DW$289, DW_AT_data_member_location[DW_OP_plus_uconst 0x0]
    3360                      .dwattr $C$DW$289, DW_AT_accessibility(DW_ACCESS_public)
    3361              
    3362                      .dwendtag $C$DW$T$72
    3363              
    3364              
    3365              $C$DW$T$73      .dwtag  DW_TAG_union_type
    3366                      .dwattr $C$DW$T$73, DW_AT_name("ADCPPB2OFFCAL_REG")
    3367                      .dwattr $C$DW$T$73, DW_AT_byte_size(0x01)
    3368              $C$DW$290       .dwtag  DW_TAG_member
    3369                      .dwattr $C$DW$290, DW_AT_type(*$C$DW$T$19)
    3370                      .dwattr $C$DW$290, DW_AT_name("all")
    3371                      .dwattr $C$DW$290, DW_AT_TI_symbol_name("_all")
    3372                      .dwattr $C$DW$290, DW_AT_data_member_location[DW_OP_plus_uconst 0x0]
    3373                      .dwattr $C$DW$290, DW_AT_accessibility(DW_ACCESS_public)
    3374              
