TMS320C2000 Assembler PC v15.12.1 Sun Feb 26 22:53:28 2017

Tools Copyright (c) 1996-2015 Texas Instruments Incorporated
F2837xD_SysCtrl.asm                                                  PAGE    1

       1              ;***************************************************************
       2              ;* TMS320C2000 C/C++ Codegen                   PC v15.12.1.LTS *
       3              ;* Date/Time created: Sun Feb 26 22:53:28 2017                 *
       4              ;***************************************************************
       5                      .compiler_opts --abi=coffabi --cla_support=cla0 --float_support=fpu32 --hll_source=on --mem_model:cod
       6        0002  FP      .set    XAR2
       7              
       8              $C$DW$CU        .dwtag  DW_TAG_compile_unit
       9                      .dwattr $C$DW$CU, DW_AT_name("C:/ti/controlSUITE/device_support/F2837xD/v170/F2837xD_common/source/F2
      10                      .dwattr $C$DW$CU, DW_AT_producer("TI TMS320C2000 C/C++ Codegen PC v15.12.1.LTS Copyright (c) 1996-201
      11                      .dwattr $C$DW$CU, DW_AT_TI_version(0x01)
      12                      .dwattr $C$DW$CU, DW_AT_comp_dir("C:\Users\Keith\workspace_v6_1_3\IDDK_PM_Servo_F2837x-v2\F2837x_RAM"
      13              
      14              $C$DW$1 .dwtag  DW_TAG_subprogram
      15                      .dwattr $C$DW$1, DW_AT_name("F28x_usDelay")
      16                      .dwattr $C$DW$1, DW_AT_TI_symbol_name("_F28x_usDelay")
      17                      .dwattr $C$DW$1, DW_AT_declaration
      18                      .dwattr $C$DW$1, DW_AT_external
      19              $C$DW$2 .dwtag  DW_TAG_formal_parameter
      20                      .dwattr $C$DW$2, DW_AT_type(*$C$DW$T$12)
      21              
      22                      .dwendtag $C$DW$1
      23              
      24              
      25              $C$DW$3 .dwtag  DW_TAG_subprogram
      26                      .dwattr $C$DW$3, DW_AT_name("GPIO_EnableUnbondedIOPullups")
      27                      .dwattr $C$DW$3, DW_AT_TI_symbol_name("_GPIO_EnableUnbondedIOPullups")
      28                      .dwattr $C$DW$3, DW_AT_declaration
      29                      .dwattr $C$DW$3, DW_AT_external
      30                      .dwendtag $C$DW$3
      31              
      32              $C$DW$4 .dwtag  DW_TAG_variable
      33                      .dwattr $C$DW$4, DW_AT_name("DcsmZ1Regs")
      34                      .dwattr $C$DW$4, DW_AT_TI_symbol_name("_DcsmZ1Regs")
      35                      .dwattr $C$DW$4, DW_AT_type(*$C$DW$T$350)
      36                      .dwattr $C$DW$4, DW_AT_declaration
      37                      .dwattr $C$DW$4, DW_AT_external
      38              
      39              $C$DW$5 .dwtag  DW_TAG_variable
      40                      .dwattr $C$DW$5, DW_AT_name("DcsmZ2Regs")
      41                      .dwattr $C$DW$5, DW_AT_TI_symbol_name("_DcsmZ2Regs")
      42                      .dwattr $C$DW$5, DW_AT_type(*$C$DW$T$351)
      43                      .dwattr $C$DW$5, DW_AT_declaration
      44                      .dwattr $C$DW$5, DW_AT_external
      45              
      46              $C$DW$6 .dwtag  DW_TAG_variable
      47                      .dwattr $C$DW$6, DW_AT_name("Flash0EccRegs")
      48                      .dwattr $C$DW$6, DW_AT_TI_symbol_name("_Flash0EccRegs")
      49                      .dwattr $C$DW$6, DW_AT_type(*$C$DW$T$356)
      50                      .dwattr $C$DW$6, DW_AT_declaration
      51                      .dwattr $C$DW$6, DW_AT_external
      52              
      53              $C$DW$7 .dwtag  DW_TAG_variable
      54                      .dwattr $C$DW$7, DW_AT_name("WdRegs")
      55                      .dwattr $C$DW$7, DW_AT_TI_symbol_name("_WdRegs")
TMS320C2000 Assembler PC v15.12.1 Sun Feb 26 22:53:28 2017

Tools Copyright (c) 1996-2015 Texas Instruments Incorporated
F2837xD_SysCtrl.asm                                                  PAGE    2

      56                      .dwattr $C$DW$7, DW_AT_type(*$C$DW$T$375)
      57                      .dwattr $C$DW$7, DW_AT_declaration
      58                      .dwattr $C$DW$7, DW_AT_external
      59              
      60              $C$DW$8 .dwtag  DW_TAG_variable
      61                      .dwattr $C$DW$8, DW_AT_name("ClkCfgRegs")
      62                      .dwattr $C$DW$8, DW_AT_TI_symbol_name("_ClkCfgRegs")
      63                      .dwattr $C$DW$8, DW_AT_type(*$C$DW$T$346)
      64                      .dwattr $C$DW$8, DW_AT_declaration
      65                      .dwattr $C$DW$8, DW_AT_external
      66              
      67              $C$DW$9 .dwtag  DW_TAG_variable
      68                      .dwattr $C$DW$9, DW_AT_name("AnalogSubsysRegs")
      69                      .dwattr $C$DW$9, DW_AT_TI_symbol_name("_AnalogSubsysRegs")
      70                      .dwattr $C$DW$9, DW_AT_type(*$C$DW$T$340)
      71                      .dwattr $C$DW$9, DW_AT_declaration
      72                      .dwattr $C$DW$9, DW_AT_external
      73              
      74              $C$DW$10        .dwtag  DW_TAG_variable
      75                      .dwattr $C$DW$10, DW_AT_name("CpuSysRegs")
      76                      .dwattr $C$DW$10, DW_AT_TI_symbol_name("_CpuSysRegs")
      77                      .dwattr $C$DW$10, DW_AT_type(*$C$DW$T$348)
      78                      .dwattr $C$DW$10, DW_AT_declaration
      79                      .dwattr $C$DW$10, DW_AT_external
      80              
      81              $C$DW$11        .dwtag  DW_TAG_variable
      82                      .dwattr $C$DW$11, DW_AT_name("DevCfgRegs")
      83                      .dwattr $C$DW$11, DW_AT_TI_symbol_name("_DevCfgRegs")
      84                      .dwattr $C$DW$11, DW_AT_type(*$C$DW$T$352)
      85                      .dwattr $C$DW$11, DW_AT_declaration
      86                      .dwattr $C$DW$11, DW_AT_external
      87              
      88              $C$DW$12        .dwtag  DW_TAG_variable
      89                      .dwattr $C$DW$12, DW_AT_name("Flash0CtrlRegs")
      90                      .dwattr $C$DW$12, DW_AT_TI_symbol_name("_Flash0CtrlRegs")
      91                      .dwattr $C$DW$12, DW_AT_type(*$C$DW$T$354)
      92                      .dwattr $C$DW$12, DW_AT_declaration
      93                      .dwattr $C$DW$12, DW_AT_external
      94              
      95              ;       C:\ti\ccsv6\tools\compiler\ti-cgt-c2000_15.12.1.LTS\bin\opt2000.exe C:\\Users\\Keith\\AppData\\Local\
      96              ;       C:\ti\ccsv6\tools\compiler\ti-cgt-c2000_15.12.1.LTS\bin\ac2000.exe -@C:\\Users\\Keith\\AppData\\Local
      97 00000000               .sect   ".text"
      98                      .clink
      99                      .global _InitSysCtrl
     100              
     101              $C$DW$13        .dwtag  DW_TAG_subprogram
     102                      .dwattr $C$DW$13, DW_AT_name("InitSysCtrl")
     103                      .dwattr $C$DW$13, DW_AT_low_pc(_InitSysCtrl)
     104                      .dwattr $C$DW$13, DW_AT_high_pc(0x00)
     105                      .dwattr $C$DW$13, DW_AT_TI_symbol_name("_InitSysCtrl")
     106                      .dwattr $C$DW$13, DW_AT_external
     107                      .dwattr $C$DW$13, DW_AT_TI_begin_file("C:/ti/controlSUITE/device_support/F2837xD/v170/F2837xD_common/
     108                      .dwattr $C$DW$13, DW_AT_TI_begin_line(0x20)
     109                      .dwattr $C$DW$13, DW_AT_TI_begin_column(0x06)
     110                      .dwattr $C$DW$13, DW_AT_TI_max_frame_size(-2)
TMS320C2000 Assembler PC v15.12.1 Sun Feb 26 22:53:28 2017

Tools Copyright (c) 1996-2015 Texas Instruments Incorporated
F2837xD_SysCtrl.asm                                                  PAGE    3

     111                      .dwpsn  file "C:/ti/controlSUITE/device_support/F2837xD/v170/F2837xD_common/source/F2837xD_SysCtrl.c"
     112              
     113                      .dwfde $C$DW$CIE, _InitSysCtrl
     114              
     115              ;***************************************************************
     116              ;* FNAME: _InitSysCtrl                  FR SIZE:   0           *
     117              ;*                                                             *
     118              ;* FUNCTION ENVIRONMENT                                        *
     119              ;*                                                             *
     120              ;* FUNCTION PROPERTIES                                         *
     121              ;*                            0 Parameter,  0 Auto,  0 SOE     *
     122              ;***************************************************************
     123              
     124 00000000       _InitSysCtrl:
     125                      .dwcfi  cfa_offset, -2
     126                      .dwcfi  save_reg_to_mem, 26, 0
     127                      .dwpsn  file "C:/ti/controlSUITE/device_support/F2837xD/v170/F2837xD_common/source/F2837xD_SysCtrl.c"
     128              $C$DW$14        .dwtag  DW_TAG_TI_branch
     129                      .dwattr $C$DW$14, DW_AT_low_pc(0x00)
     130                      .dwattr $C$DW$14, DW_AT_name("_DisableDog")
     131                      .dwattr $C$DW$14, DW_AT_TI_call
     132              
     133 00000000 7640'         LCR       #_DisableDog          ; [CPU_] |35| 
         00000001 010B 
     134                      ; call occurs [#_DisableDog] ; [] |35| 
     135 00000002 7622   EALLOW
     136 00000003 FF69          SPM       #0                    ; [CPU_] 
     137                      .dwpsn  file "C:/ti/controlSUITE/device_support/F2837xD/v170/F2837xD_common/source/F2837xD_SysCtrl.c"
     138              $C$DW$15        .dwtag  DW_TAG_TI_branch
     139                      .dwattr $C$DW$15, DW_AT_low_pc(0x00)
     140                      .dwattr $C$DW$15, DW_AT_name("_GPIO_EnableUnbondedIOPullups")
     141                      .dwattr $C$DW$15, DW_AT_TI_call
     142              
     143 00000004 7640!         LCR       #_GPIO_EnableUnbondedIOPullups ; [CPU_] |62| 
         00000005 0000 
     144                      ; call occurs [#_GPIO_EnableUnbondedIOPullups] ; [] |62| 
     145 00000006 761F!         MOVW      DP,#_CpuSysRegs+60    ; [CPU_U] 
         00000007 0000 
     146                      .dwpsn  file "C:/ti/controlSUITE/device_support/F2837xD/v170/F2837xD_common/source/F2837xD_SysCtrl.c"
     147 00000008 8F05          MOVL      XAR4,#381366          ; [CPU_U] |70| 
         00000009 D1B6 
     148                      .dwpsn  file "C:/ti/controlSUITE/device_support/F2837xD/v170/F2837xD_common/source/F2837xD_SysCtrl.c"
     149 0000000a 1A3C!         OR        @_CpuSysRegs+60,#0x0001 ; [CPU_] |64| 
         0000000b 0001 
     150                      .dwpsn  file "C:/ti/controlSUITE/device_support/F2837xD/v170/F2837xD_common/source/F2837xD_SysCtrl.c"
     151 0000000c 1A3C!         OR        @_CpuSysRegs+60,#0x0002 ; [CPU_] |65| 
         0000000d 0002 
     152                      .dwpsn  file "C:/ti/controlSUITE/device_support/F2837xD/v170/F2837xD_common/source/F2837xD_SysCtrl.c"
     153 0000000e 1A3C!         OR        @_CpuSysRegs+60,#0x0004 ; [CPU_] |66| 
         0000000f 0004 
     154                      .dwpsn  file "C:/ti/controlSUITE/device_support/F2837xD/v170/F2837xD_common/source/F2837xD_SysCtrl.c"
     155 00000010 1A3C!         OR        @_CpuSysRegs+60,#0x0008 ; [CPU_] |67| 
         00000011 0008 
     156                      .dwpsn  file "C:/ti/controlSUITE/device_support/F2837xD/v170/F2837xD_common/source/F2837xD_SysCtrl.c"
     157 00000012 92C4          MOV       AL,*+XAR4[0]          ; [CPU_] |70| 
TMS320C2000 Assembler PC v15.12.1 Sun Feb 26 22:53:28 2017

Tools Copyright (c) 1996-2015 Texas Instruments Incorporated
F2837xD_SysCtrl.asm                                                  PAGE    4

     158 00000013 600F          B         $C$L1,NEQ             ; [CPU_] |70| 
     159                      ; branchcc occurs ; [] |70| 
     160                      .dwpsn  file "C:/ti/controlSUITE/device_support/F2837xD/v170/F2837xD_common/source/F2837xD_SysCtrl.c"
     161 00000014 76C0          MOVL      XAR7,#31709           ; [CPU_U] |72| 
         00000015 7BDD 
     162 00000016 761F!         MOVW      DP,#_AnalogSubsysRegs+54 ; [CPU_U] 
         00000017 0000 
     163                      .dwpsn  file "C:/ti/controlSUITE/device_support/F2837xD/v170/F2837xD_common/source/F2837xD_SysCtrl.c"
     164 00000018 7680          MOVL      XAR6,#31709           ; [CPU_U] |73| 
         00000019 7BDD 
     165                      .dwpsn  file "C:/ti/controlSUITE/device_support/F2837xD/v170/F2837xD_common/source/F2837xD_SysCtrl.c"
     166 0000001a 8F40          MOVL      XAR5,#31709           ; [CPU_U] |74| 
         0000001b 7BDD 
     167                      .dwpsn  file "C:/ti/controlSUITE/device_support/F2837xD/v170/F2837xD_common/source/F2837xD_SysCtrl.c"
     168 0000001c 8F00          MOVL      XAR4,#31709           ; [CPU_U] |75| 
         0000001d 7BDD 
     169                      .dwpsn  file "C:/ti/controlSUITE/device_support/F2837xD/v170/F2837xD_common/source/F2837xD_SysCtrl.c"
     170 0000001e C336!         MOVL      @_AnalogSubsysRegs+54,XAR7 ; [CPU_] |72| 
     171                      .dwpsn  file "C:/ti/controlSUITE/device_support/F2837xD/v170/F2837xD_common/source/F2837xD_SysCtrl.c"
     172 0000001f C238!         MOVL      @_AnalogSubsysRegs+56,XAR6 ; [CPU_] |73| 
     173                      .dwpsn  file "C:/ti/controlSUITE/device_support/F2837xD/v170/F2837xD_common/source/F2837xD_SysCtrl.c"
     174 00000020 A03A!         MOVL      @_AnalogSubsysRegs+58,XAR5 ; [CPU_] |74| 
     175                      .dwpsn  file "C:/ti/controlSUITE/device_support/F2837xD/v170/F2837xD_common/source/F2837xD_SysCtrl.c"
     176 00000021 A83C!         MOVL      @_AnalogSubsysRegs+60,XAR4 ; [CPU_] |75| 
     177 00000022       $C$L1:    
     178 00000022 761F!         MOVW      DP,#_CpuSysRegs+60    ; [CPU_U] 
         00000023 0000 
     179                      .dwpsn  file "C:/ti/controlSUITE/device_support/F2837xD/v170/F2837xD_common/source/F2837xD_SysCtrl.c"
     180 00000024 183C!         AND       @_CpuSysRegs+60,#0xfffe ; [CPU_] |78| 
         00000025 FFFE 
     181                      .dwpsn  file "C:/ti/controlSUITE/device_support/F2837xD/v170/F2837xD_common/source/F2837xD_SysCtrl.c"
     182 00000026 183C!         AND       @_CpuSysRegs+60,#0xfffd ; [CPU_] |79| 
         00000027 FFFD 
     183                      .dwpsn  file "C:/ti/controlSUITE/device_support/F2837xD/v170/F2837xD_common/source/F2837xD_SysCtrl.c"
     184 00000028 183C!         AND       @_CpuSysRegs+60,#0xfffb ; [CPU_] |80| 
         00000029 FFFB 
     185                      .dwpsn  file "C:/ti/controlSUITE/device_support/F2837xD/v170/F2837xD_common/source/F2837xD_SysCtrl.c"
     186 0000002a 183C!         AND       @_CpuSysRegs+60,#0xfff7 ; [CPU_] |81| 
         0000002b FFF7 
     187 0000002c 761A   EDIS
     188                      .dwpsn  file "C:/ti/controlSUITE/device_support/F2837xD/v170/F2837xD_common/source/F2837xD_SysCtrl.c"
     189 0000002d 9A01          MOVB      AL,#1                 ; [CPU_] |88| 
     190 0000002e D400          MOVB      XAR4,#0               ; [CPU_] |88| 
     191 0000002f D501          MOVB      XAR5,#1               ; [CPU_] |88| 
     192 00000030 9B14          MOVB      AH,#20                ; [CPU_] |88| 
     193 00000031 FF69          SPM       #0                    ; [CPU_] 
     194              $C$DW$16        .dwtag  DW_TAG_TI_branch
     195                      .dwattr $C$DW$16, DW_AT_low_pc(0x00)
     196                      .dwattr $C$DW$16, DW_AT_name("_InitSysPll")
     197                      .dwattr $C$DW$16, DW_AT_TI_call
     198              
     199 00000032 7640'         LCR       #_InitSysPll          ; [CPU_] |88| 
         00000033 0118 
     200                      ; call occurs [#_InitSysPll] ; [] |88| 
     201                      .dwpsn  file "C:/ti/controlSUITE/device_support/F2837xD/v170/F2837xD_common/source/F2837xD_SysCtrl.c"
TMS320C2000 Assembler PC v15.12.1 Sun Feb 26 22:53:28 2017

Tools Copyright (c) 1996-2015 Texas Instruments Incorporated
F2837xD_SysCtrl.asm                                                  PAGE    5

     202              $C$DW$17        .dwtag  DW_TAG_TI_branch
     203                      .dwattr $C$DW$17, DW_AT_low_pc(0x00)
     204                      .dwattr $C$DW$17, DW_AT_name("_InitPeripheralClocks")
     205                      .dwattr $C$DW$17, DW_AT_TI_call
     206              
     207 00000034 7640'         LCR       #_InitPeripheralClocks ; [CPU_] |92| 
         00000035 0037 
     208                      ; call occurs [#_InitPeripheralClocks] ; [] |92| 
     209              $C$DW$18        .dwtag  DW_TAG_TI_branch
     210                      .dwattr $C$DW$18, DW_AT_low_pc(0x00)
     211                      .dwattr $C$DW$18, DW_AT_TI_return
     212              
     213 00000036 0006          LRETR     ; [CPU_] 
     214                      ; return occurs ; [] 
     215                      .dwattr $C$DW$13, DW_AT_TI_end_file("C:/ti/controlSUITE/device_support/F2837xD/v170/F2837xD_common/so
     216                      .dwattr $C$DW$13, DW_AT_TI_end_line(0x5d)
     217                      .dwattr $C$DW$13, DW_AT_TI_end_column(0x01)
     218                      .dwendentry
     219                      .dwendtag $C$DW$13
     220              
     221 00000037               .sect   ".text"
     222                      .clink
     223                      .global _InitPeripheralClocks
     224              
     225              $C$DW$19        .dwtag  DW_TAG_subprogram
     226                      .dwattr $C$DW$19, DW_AT_name("InitPeripheralClocks")
     227                      .dwattr $C$DW$19, DW_AT_low_pc(_InitPeripheralClocks)
     228                      .dwattr $C$DW$19, DW_AT_high_pc(0x00)
     229                      .dwattr $C$DW$19, DW_AT_TI_symbol_name("_InitPeripheralClocks")
     230                      .dwattr $C$DW$19, DW_AT_external
     231                      .dwattr $C$DW$19, DW_AT_TI_begin_file("C:/ti/controlSUITE/device_support/F2837xD/v170/F2837xD_common/
     232                      .dwattr $C$DW$19, DW_AT_TI_begin_line(0x67)
     233                      .dwattr $C$DW$19, DW_AT_TI_begin_column(0x06)
     234                      .dwattr $C$DW$19, DW_AT_TI_max_frame_size(-4)
     235                      .dwpsn  file "C:/ti/controlSUITE/device_support/F2837xD/v170/F2837xD_common/source/F2837xD_SysCtrl.c"
     236              
     237                      .dwfde $C$DW$CIE, _InitPeripheralClocks
     238              
     239              ;***************************************************************
     240              ;* FNAME: _InitPeripheralClocks         FR SIZE:   2           *
     241              ;*                                                             *
     242              ;* FUNCTION ENVIRONMENT                                        *
     243              ;*                                                             *
     244              ;* FUNCTION PROPERTIES                                         *
     245              ;*                            0 Parameter,  0 Auto,  2 SOE     *
     246              ;***************************************************************
     247              
     248 00000037       _InitPeripheralClocks:
     249              ;* AR4   assigned to $O$C1
     250                      .dwcfi  cfa_offset, -2
     251                      .dwcfi  save_reg_to_mem, 26, 0
     252 00000037 B2BD          MOVL      *SP++,XAR1            ; [CPU_] 
     253                      .dwcfi  save_reg_to_mem, 7, 2
     254                      .dwcfi  cfa_offset, -4
     255 00000038 7622   EALLOW
TMS320C2000 Assembler PC v15.12.1 Sun Feb 26 22:53:28 2017

Tools Copyright (c) 1996-2015 Texas Instruments Incorporated
F2837xD_SysCtrl.asm                                                  PAGE    6

     256                      .dwpsn  file "C:/ti/controlSUITE/device_support/F2837xD/v170/F2837xD_common/source/F2837xD_SysCtrl.c"
     257 00000039 8F00!         MOVL      XAR4,#_CpuSysRegs     ; [CPU_U] |107| 
         0000003a 0000 
     258 0000003b 761F!         MOVW      DP,#_CpuSysRegs+34    ; [CPU_U] 
         0000003c 0000 
     259 0000003d 8EA4          MOVL      XAR0,XAR4             ; [CPU_] |107| 
     260                      .dwpsn  file "C:/ti/controlSUITE/device_support/F2837xD/v170/F2837xD_common/source/F2837xD_SysCtrl.c"
     261 0000003e C5A4          MOVL      XAR7,XAR4             ; [CPU_] |114| 
     262                      .dwpsn  file "C:/ti/controlSUITE/device_support/F2837xD/v170/F2837xD_common/source/F2837xD_SysCtrl.c"
     263 0000003f C4A4          MOVL      XAR6,XAR4             ; [CPU_] |120| 
     264                      .dwpsn  file "C:/ti/controlSUITE/device_support/F2837xD/v170/F2837xD_common/source/F2837xD_SysCtrl.c"
     265 00000040 83A4          MOVL      XAR5,XAR4             ; [CPU_] |124| 
     266                      .dwpsn  file "C:/ti/controlSUITE/device_support/F2837xD/v170/F2837xD_common/source/F2837xD_SysCtrl.c"
     267 00000041 D822          ADDB      XAR0,#34              ; [CPU_] |107| 
     268                      .dwpsn  file "C:/ti/controlSUITE/device_support/F2837xD/v170/F2837xD_common/source/F2837xD_SysCtrl.c"
     269 00000042 DF23          ADDB      XAR7,#35              ; [CPU_] |114| 
     270                      .dwpsn  file "C:/ti/controlSUITE/device_support/F2837xD/v170/F2837xD_common/source/F2837xD_SysCtrl.c"
     271 00000043 DE24          ADDB      XAR6,#36              ; [CPU_] |120| 
     272                      .dwpsn  file "C:/ti/controlSUITE/device_support/F2837xD/v170/F2837xD_common/source/F2837xD_SysCtrl.c"
     273 00000044 1AC0          OR        *+XAR0[0],#0x0001     ; [CPU_] |107| 
         00000045 0001 
     274                      .dwpsn  file "C:/ti/controlSUITE/device_support/F2837xD/v170/F2837xD_common/source/F2837xD_SysCtrl.c"
     275 00000046 1A22!         OR        @_CpuSysRegs+34,#0x0004 ; [CPU_] |108| 
         00000047 0004 
     276                      .dwpsn  file "C:/ti/controlSUITE/device_support/F2837xD/v170/F2837xD_common/source/F2837xD_SysCtrl.c"
     277 00000048 1A22!         OR        @_CpuSysRegs+34,#0x0008 ; [CPU_] |109| 
         00000049 0008 
     278                      .dwpsn  file "C:/ti/controlSUITE/device_support/F2837xD/v170/F2837xD_common/source/F2837xD_SysCtrl.c"
     279 0000004a 8EA4          MOVL      XAR0,XAR4             ; [CPU_] |148| 
     280                      .dwpsn  file "C:/ti/controlSUITE/device_support/F2837xD/v170/F2837xD_common/source/F2837xD_SysCtrl.c"
     281 0000004b 1A22!         OR        @_CpuSysRegs+34,#0x0010 ; [CPU_] |110| 
         0000004c 0010 
     282                      .dwpsn  file "C:/ti/controlSUITE/device_support/F2837xD/v170/F2837xD_common/source/F2837xD_SysCtrl.c"
     283 0000004d 1A22!         OR        @_CpuSysRegs+34,#0x0020 ; [CPU_] |111| 
         0000004e 0020 
     284                      .dwpsn  file "C:/ti/controlSUITE/device_support/F2837xD/v170/F2837xD_common/source/F2837xD_SysCtrl.c"
     285 0000004f 1AC7          OR        *+XAR7[0],#0x0001     ; [CPU_] |114| 
         00000050 0001 
     286                      .dwpsn  file "C:/ti/controlSUITE/device_support/F2837xD/v170/F2837xD_common/source/F2837xD_SysCtrl.c"
     287 00000051 1A23!         OR        @_CpuSysRegs+35,#0x0004 ; [CPU_] |117| 
         00000052 0004 
     288                      .dwpsn  file "C:/ti/controlSUITE/device_support/F2837xD/v170/F2837xD_common/source/F2837xD_SysCtrl.c"
     289 00000053 1AC6          OR        *+XAR6[0],#0x0001     ; [CPU_] |120| 
         00000054 0001 
     290                      .dwpsn  file "C:/ti/controlSUITE/device_support/F2837xD/v170/F2837xD_common/source/F2837xD_SysCtrl.c"
     291 00000055 C4A4          MOVL      XAR6,XAR4             ; [CPU_] |137| 
     292                      .dwpsn  file "C:/ti/controlSUITE/device_support/F2837xD/v170/F2837xD_common/source/F2837xD_SysCtrl.c"
     293 00000056 DD26          ADDB      XAR5,#38              ; [CPU_] |124| 
     294                      .dwpsn  file "C:/ti/controlSUITE/device_support/F2837xD/v170/F2837xD_common/source/F2837xD_SysCtrl.c"
     295 00000057 C5A4          MOVL      XAR7,XAR4             ; [CPU_] |151| 
     296                      .dwpsn  file "C:/ti/controlSUITE/device_support/F2837xD/v170/F2837xD_common/source/F2837xD_SysCtrl.c"
     297 00000058 1A24!         OR        @_CpuSysRegs+36,#0x0002 ; [CPU_] |121| 
         00000059 0002 
     298                      .dwpsn  file "C:/ti/controlSUITE/device_support/F2837xD/v170/F2837xD_common/source/F2837xD_SysCtrl.c"
     299 0000005a DE28          ADDB      XAR6,#40              ; [CPU_] |137| 
TMS320C2000 Assembler PC v15.12.1 Sun Feb 26 22:53:28 2017

Tools Copyright (c) 1996-2015 Texas Instruments Incorporated
F2837xD_SysCtrl.asm                                                  PAGE    7

     300                      .dwpsn  file "C:/ti/controlSUITE/device_support/F2837xD/v170/F2837xD_common/source/F2837xD_SysCtrl.c"
     301 0000005b 1AC5          OR        *+XAR5[0],#0x0001     ; [CPU_] |124| 
         0000005c 0001 
     302                      .dwpsn  file "C:/ti/controlSUITE/device_support/F2837xD/v170/F2837xD_common/source/F2837xD_SysCtrl.c"
     303 0000005d 83A4          MOVL      XAR5,XAR4             ; [CPU_] |144| 
     304                      .dwpsn  file "C:/ti/controlSUITE/device_support/F2837xD/v170/F2837xD_common/source/F2837xD_SysCtrl.c"
     305 0000005e D82E          ADDB      XAR0,#46              ; [CPU_] |148| 
     306                      .dwpsn  file "C:/ti/controlSUITE/device_support/F2837xD/v170/F2837xD_common/source/F2837xD_SysCtrl.c"
     307 0000005f 1A26!         OR        @_CpuSysRegs+38,#0x0002 ; [CPU_] |125| 
         00000060 0002 
     308                      .dwpsn  file "C:/ti/controlSUITE/device_support/F2837xD/v170/F2837xD_common/source/F2837xD_SysCtrl.c"
     309 00000061 1A26!         OR        @_CpuSysRegs+38,#0x0004 ; [CPU_] |126| 
         00000062 0004 
     310                      .dwpsn  file "C:/ti/controlSUITE/device_support/F2837xD/v170/F2837xD_common/source/F2837xD_SysCtrl.c"
     311 00000063 DD2A          ADDB      XAR5,#42              ; [CPU_] |144| 
     312                      .dwpsn  file "C:/ti/controlSUITE/device_support/F2837xD/v170/F2837xD_common/source/F2837xD_SysCtrl.c"
     313 00000064 1A26!         OR        @_CpuSysRegs+38,#0x0008 ; [CPU_] |127| 
         00000065 0008 
     314                      .dwpsn  file "C:/ti/controlSUITE/device_support/F2837xD/v170/F2837xD_common/source/F2837xD_SysCtrl.c"
     315 00000066 1A26!         OR        @_CpuSysRegs+38,#0x0010 ; [CPU_] |128| 
         00000067 0010 
     316                      .dwpsn  file "C:/ti/controlSUITE/device_support/F2837xD/v170/F2837xD_common/source/F2837xD_SysCtrl.c"
     317 00000068 1A26!         OR        @_CpuSysRegs+38,#0x0020 ; [CPU_] |129| 
         00000069 0020 
     318                      .dwpsn  file "C:/ti/controlSUITE/device_support/F2837xD/v170/F2837xD_common/source/F2837xD_SysCtrl.c"
     319 0000006a 1A26!         OR        @_CpuSysRegs+38,#0x0040 ; [CPU_] |130| 
         0000006b 0040 
     320                      .dwpsn  file "C:/ti/controlSUITE/device_support/F2837xD/v170/F2837xD_common/source/F2837xD_SysCtrl.c"
     321 0000006c 1A26!         OR        @_CpuSysRegs+38,#0x0080 ; [CPU_] |131| 
         0000006d 0080 
     322                      .dwpsn  file "C:/ti/controlSUITE/device_support/F2837xD/v170/F2837xD_common/source/F2837xD_SysCtrl.c"
     323 0000006e 1A26!         OR        @_CpuSysRegs+38,#0x0100 ; [CPU_] |132| 
         0000006f 0100 
     324                      .dwpsn  file "C:/ti/controlSUITE/device_support/F2837xD/v170/F2837xD_common/source/F2837xD_SysCtrl.c"
     325 00000070 1A26!         OR        @_CpuSysRegs+38,#0x0200 ; [CPU_] |133| 
         00000071 0200 
     326                      .dwpsn  file "C:/ti/controlSUITE/device_support/F2837xD/v170/F2837xD_common/source/F2837xD_SysCtrl.c"
     327 00000072 1A26!         OR        @_CpuSysRegs+38,#0x0400 ; [CPU_] |134| 
         00000073 0400 
     328                      .dwpsn  file "C:/ti/controlSUITE/device_support/F2837xD/v170/F2837xD_common/source/F2837xD_SysCtrl.c"
     329 00000074 1A26!         OR        @_CpuSysRegs+38,#0x0800 ; [CPU_] |135| 
         00000075 0800 
     330                      .dwpsn  file "C:/ti/controlSUITE/device_support/F2837xD/v170/F2837xD_common/source/F2837xD_SysCtrl.c"
     331 00000076 1AC6          OR        *+XAR6[0],#0x0001     ; [CPU_] |137| 
         00000077 0001 
     332                      .dwpsn  file "C:/ti/controlSUITE/device_support/F2837xD/v170/F2837xD_common/source/F2837xD_SysCtrl.c"
     333 00000078 C4A4          MOVL      XAR6,XAR4             ; [CPU_] |156| 
     334                      .dwpsn  file "C:/ti/controlSUITE/device_support/F2837xD/v170/F2837xD_common/source/F2837xD_SysCtrl.c"
     335 00000079 8BA4          MOVL      XAR1,XAR4             ; [CPU_] |163| 
     336                      .dwpsn  file "C:/ti/controlSUITE/device_support/F2837xD/v170/F2837xD_common/source/F2837xD_SysCtrl.c"
     337 0000007a DF30          ADDB      XAR7,#48              ; [CPU_] |151| 
     338                      .dwpsn  file "C:/ti/controlSUITE/device_support/F2837xD/v170/F2837xD_common/source/F2837xD_SysCtrl.c"
     339 0000007b 1A28!         OR        @_CpuSysRegs+40,#0x0002 ; [CPU_] |138| 
         0000007c 0002 
     340                      .dwpsn  file "C:/ti/controlSUITE/device_support/F2837xD/v170/F2837xD_common/source/F2837xD_SysCtrl.c"
TMS320C2000 Assembler PC v15.12.1 Sun Feb 26 22:53:28 2017

Tools Copyright (c) 1996-2015 Texas Instruments Incorporated
F2837xD_SysCtrl.asm                                                  PAGE    8

     341 0000007d DE32          ADDB      XAR6,#50              ; [CPU_] |156| 
     342                      .dwpsn  file "C:/ti/controlSUITE/device_support/F2837xD/v170/F2837xD_common/source/F2837xD_SysCtrl.c"
     343 0000007e 1A28!         OR        @_CpuSysRegs+40,#0x0004 ; [CPU_] |139| 
         0000007f 0004 
     344                      .dwpsn  file "C:/ti/controlSUITE/device_support/F2837xD/v170/F2837xD_common/source/F2837xD_SysCtrl.c"
     345 00000080 1A28!         OR        @_CpuSysRegs+40,#0x0008 ; [CPU_] |140| 
         00000081 0008 
     346                      .dwpsn  file "C:/ti/controlSUITE/device_support/F2837xD/v170/F2837xD_common/source/F2837xD_SysCtrl.c"
     347 00000082 1A28!         OR        @_CpuSysRegs+40,#0x0010 ; [CPU_] |141| 
         00000083 0010 
     348                      .dwpsn  file "C:/ti/controlSUITE/device_support/F2837xD/v170/F2837xD_common/source/F2837xD_SysCtrl.c"
     349 00000084 1A28!         OR        @_CpuSysRegs+40,#0x0020 ; [CPU_] |142| 
         00000085 0020 
     350                      .dwpsn  file "C:/ti/controlSUITE/device_support/F2837xD/v170/F2837xD_common/source/F2837xD_SysCtrl.c"
     351 00000086 1AC5          OR        *+XAR5[0],#0x0001     ; [CPU_] |144| 
         00000087 0001 
     352                      .dwpsn  file "C:/ti/controlSUITE/device_support/F2837xD/v170/F2837xD_common/source/F2837xD_SysCtrl.c"
     353 00000088 83A4          MOVL      XAR5,XAR4             ; [CPU_] |160| 
     354                      .dwpsn  file "C:/ti/controlSUITE/device_support/F2837xD/v170/F2837xD_common/source/F2837xD_SysCtrl.c"
     355 00000089 1A2A!         OR        @_CpuSysRegs+42,#0x0002 ; [CPU_] |145| 
         0000008a 0002 
     356                      .dwpsn  file "C:/ti/controlSUITE/device_support/F2837xD/v170/F2837xD_common/source/F2837xD_SysCtrl.c"
     357 0000008b 1A2A!         OR        @_CpuSysRegs+42,#0x0004 ; [CPU_] |146| 
         0000008c 0004 
     358                      .dwpsn  file "C:/ti/controlSUITE/device_support/F2837xD/v170/F2837xD_common/source/F2837xD_SysCtrl.c"
     359 0000008d 1AC0          OR        *+XAR0[0],#0x0001     ; [CPU_] |148| 
         0000008e 0001 
     360                      .dwpsn  file "C:/ti/controlSUITE/device_support/F2837xD/v170/F2837xD_common/source/F2837xD_SysCtrl.c"
     361 0000008f 8EA4          MOVL      XAR0,XAR4             ; [CPU_] |166| 
     362                      .dwpsn  file "C:/ti/controlSUITE/device_support/F2837xD/v170/F2837xD_common/source/F2837xD_SysCtrl.c"
     363 00000090 1A2E!         OR        @_CpuSysRegs+46,#0x0002 ; [CPU_] |149| 
         00000091 0002 
     364                      .dwpsn  file "C:/ti/controlSUITE/device_support/F2837xD/v170/F2837xD_common/source/F2837xD_SysCtrl.c"
     365 00000092 1AC7          OR        *+XAR7[0],#0x0001     ; [CPU_] |151| 
         00000093 0001 
     366                      .dwpsn  file "C:/ti/controlSUITE/device_support/F2837xD/v170/F2837xD_common/source/F2837xD_SysCtrl.c"
     367 00000094 C5A4          MOVL      XAR7,XAR4             ; [CPU_] |170| 
     368                      .dwpsn  file "C:/ti/controlSUITE/device_support/F2837xD/v170/F2837xD_common/source/F2837xD_SysCtrl.c"
     369 00000095 DD34          ADDB      XAR5,#52              ; [CPU_] |160| 
     370                      .dwpsn  file "C:/ti/controlSUITE/device_support/F2837xD/v170/F2837xD_common/source/F2837xD_SysCtrl.c"
     371 00000096 D936          ADDB      XAR1,#54              ; [CPU_] |163| 
     372                      .dwpsn  file "C:/ti/controlSUITE/device_support/F2837xD/v170/F2837xD_common/source/F2837xD_SysCtrl.c"
     373 00000097 D838          ADDB      XAR0,#56              ; [CPU_] |166| 
     374                      .dwpsn  file "C:/ti/controlSUITE/device_support/F2837xD/v170/F2837xD_common/source/F2837xD_SysCtrl.c"
     375 00000098 DF39          ADDB      XAR7,#57              ; [CPU_] |170| 
     376                      .dwpsn  file "C:/ti/controlSUITE/device_support/F2837xD/v170/F2837xD_common/source/F2837xD_SysCtrl.c"
     377 00000099 1A30!         OR        @_CpuSysRegs+48,#0x0002 ; [CPU_] |152| 
         0000009a 0002 
     378                      .dwpsn  file "C:/ti/controlSUITE/device_support/F2837xD/v170/F2837xD_common/source/F2837xD_SysCtrl.c"
     379 0000009b 1A30!         OR        @_CpuSysRegs+48,#0x0004 ; [CPU_] |153| 
         0000009c 0004 
     380                      .dwpsn  file "C:/ti/controlSUITE/device_support/F2837xD/v170/F2837xD_common/source/F2837xD_SysCtrl.c"
     381 0000009d 1A30!         OR        @_CpuSysRegs+48,#0x0008 ; [CPU_] |154| 
         0000009e 0008 
     382                      .dwpsn  file "C:/ti/controlSUITE/device_support/F2837xD/v170/F2837xD_common/source/F2837xD_SysCtrl.c"
TMS320C2000 Assembler PC v15.12.1 Sun Feb 26 22:53:28 2017

Tools Copyright (c) 1996-2015 Texas Instruments Incorporated
F2837xD_SysCtrl.asm                                                  PAGE    9

     383 0000009f 1AC6          OR        *+XAR6[0],#0x0001     ; [CPU_] |156| 
         000000a0 0001 
     384                      .dwpsn  file "C:/ti/controlSUITE/device_support/F2837xD/v170/F2837xD_common/source/F2837xD_SysCtrl.c"
     385 000000a1 C4A4          MOVL      XAR6,XAR4             ; [CPU_] |172| 
     386                      .dwpsn  file "C:/ti/controlSUITE/device_support/F2837xD/v170/F2837xD_common/source/F2837xD_SysCtrl.c"
     387 000000a2 1A32!         OR        @_CpuSysRegs+50,#0x0002 ; [CPU_] |157| 
         000000a3 0002 
     388                      .dwpsn  file "C:/ti/controlSUITE/device_support/F2837xD/v170/F2837xD_common/source/F2837xD_SysCtrl.c"
     389 000000a4 1A32!         OR        @_CpuSysRegs+50,#0x0004 ; [CPU_] |158| 
         000000a5 0004 
     390                      .dwpsn  file "C:/ti/controlSUITE/device_support/F2837xD/v170/F2837xD_common/source/F2837xD_SysCtrl.c"
     391 000000a6 1AC5          OR        *+XAR5[0],#0x0001     ; [CPU_] |160| 
         000000a7 0001 
     392                      .dwpsn  file "C:/ti/controlSUITE/device_support/F2837xD/v170/F2837xD_common/source/F2837xD_SysCtrl.c"
     393 000000a8 83A4          MOVL      XAR5,XAR4             ; [CPU_] |175| 
     394                      .dwpsn  file "C:/ti/controlSUITE/device_support/F2837xD/v170/F2837xD_common/source/F2837xD_SysCtrl.c"
     395 000000a9 1A34!         OR        @_CpuSysRegs+52,#0x0002 ; [CPU_] |161| 
         000000aa 0002 
     396                      .dwpsn  file "C:/ti/controlSUITE/device_support/F2837xD/v170/F2837xD_common/source/F2837xD_SysCtrl.c"
     397 000000ab 1AC1          OR        *+XAR1[0],#0x0001     ; [CPU_] |163| 
         000000ac 0001 
     398                      .dwpsn  file "C:/ti/controlSUITE/device_support/F2837xD/v170/F2837xD_common/source/F2837xD_SysCtrl.c"
     399 000000ad 1A36!         OR        @_CpuSysRegs+54,#0x0002 ; [CPU_] |164| 
         000000ae 0002 
     400                      .dwpsn  file "C:/ti/controlSUITE/device_support/F2837xD/v170/F2837xD_common/source/F2837xD_SysCtrl.c"
     401 000000af 1AC0          OR        *+XAR0[0],#0x0001     ; [CPU_] |166| 
         000000b0 0001 
     402                      .dwpsn  file "C:/ti/controlSUITE/device_support/F2837xD/v170/F2837xD_common/source/F2837xD_SysCtrl.c"
     403 000000b1 1A38!         OR        @_CpuSysRegs+56,#0x0002 ; [CPU_] |167| 
         000000b2 0002 
     404                      .dwpsn  file "C:/ti/controlSUITE/device_support/F2837xD/v170/F2837xD_common/source/F2837xD_SysCtrl.c"
     405 000000b3 1AC7          OR        *+XAR7[0],#0x0001     ; [CPU_] |170| 
         000000b4 0001 
     406                      .dwpsn  file "C:/ti/controlSUITE/device_support/F2837xD/v170/F2837xD_common/source/F2837xD_SysCtrl.c"
     407 000000b5 C5A4          MOVL      XAR7,XAR4             ; [CPU_] |180| 
     408                      .dwpsn  file "C:/ti/controlSUITE/device_support/F2837xD/v170/F2837xD_common/source/F2837xD_SysCtrl.c"
     409 000000b6 DE3A          ADDB      XAR6,#58              ; [CPU_] |172| 
     410                      .dwpsn  file "C:/ti/controlSUITE/device_support/F2837xD/v170/F2837xD_common/source/F2837xD_SysCtrl.c"
     411 000000b7 DD3C          ADDB      XAR5,#60              ; [CPU_] |175| 
     412                      .dwpsn  file "C:/ti/controlSUITE/device_support/F2837xD/v170/F2837xD_common/source/F2837xD_SysCtrl.c"
     413 000000b8 DF3E          ADDB      XAR7,#62              ; [CPU_] |180| 
     414                      .dwpsn  file "C:/ti/controlSUITE/device_support/F2837xD/v170/F2837xD_common/source/F2837xD_SysCtrl.c"
     415 000000b9 DC43          ADDB      XAR4,#67              ; [CPU_] |189| 
     416                      .dwpsn  file "C:/ti/controlSUITE/device_support/F2837xD/v170/F2837xD_common/source/F2837xD_SysCtrl.c"
     417 000000ba 1AC6          OR        *+XAR6[0],#0x0001     ; [CPU_] |172| 
         000000bb 0001 
     418                      .dwpsn  file "C:/ti/controlSUITE/device_support/F2837xD/v170/F2837xD_common/source/F2837xD_SysCtrl.c"
     419 000000bc 1AC5          OR        *+XAR5[0],#0x0001     ; [CPU_] |175| 
         000000bd 0001 
     420                      .dwpsn  file "C:/ti/controlSUITE/device_support/F2837xD/v170/F2837xD_common/source/F2837xD_SysCtrl.c"
     421 000000be 1A3C!         OR        @_CpuSysRegs+60,#0x0002 ; [CPU_] |176| 
         000000bf 0002 
     422                      .dwpsn  file "C:/ti/controlSUITE/device_support/F2837xD/v170/F2837xD_common/source/F2837xD_SysCtrl.c"
     423 000000c0 1A3C!         OR        @_CpuSysRegs+60,#0x0004 ; [CPU_] |177| 
         000000c1 0004 
TMS320C2000 Assembler PC v15.12.1 Sun Feb 26 22:53:28 2017

Tools Copyright (c) 1996-2015 Texas Instruments Incorporated
F2837xD_SysCtrl.asm                                                  PAGE   10

     424                      .dwpsn  file "C:/ti/controlSUITE/device_support/F2837xD/v170/F2837xD_common/source/F2837xD_SysCtrl.c"
     425 000000c2 1A3C!         OR        @_CpuSysRegs+60,#0x0008 ; [CPU_] |178| 
         000000c3 0008 
     426                      .dwpsn  file "C:/ti/controlSUITE/device_support/F2837xD/v170/F2837xD_common/source/F2837xD_SysCtrl.c"
     427 000000c4 1AC7          OR        *+XAR7[0],#0x0001     ; [CPU_] |180| 
         000000c5 0001 
     428                      .dwpsn  file "C:/ti/controlSUITE/device_support/F2837xD/v170/F2837xD_common/source/F2837xD_SysCtrl.c"
     429 000000c6 1A3E!         OR        @_CpuSysRegs+62,#0x0002 ; [CPU_] |181| 
         000000c7 0002 
     430                      .dwpsn  file "C:/ti/controlSUITE/device_support/F2837xD/v170/F2837xD_common/source/F2837xD_SysCtrl.c"
     431 000000c8 1A3E!         OR        @_CpuSysRegs+62,#0x0004 ; [CPU_] |182| 
         000000c9 0004 
     432                      .dwpsn  file "C:/ti/controlSUITE/device_support/F2837xD/v170/F2837xD_common/source/F2837xD_SysCtrl.c"
     433 000000ca 1A3E!         OR        @_CpuSysRegs+62,#0x0008 ; [CPU_] |183| 
         000000cb 0008 
     434                      .dwpsn  file "C:/ti/controlSUITE/device_support/F2837xD/v170/F2837xD_common/source/F2837xD_SysCtrl.c"
     435 000000cc 1A3E!         OR        @_CpuSysRegs+62,#0x0010 ; [CPU_] |184| 
         000000cd 0010 
     436                      .dwpsn  file "C:/ti/controlSUITE/device_support/F2837xD/v170/F2837xD_common/source/F2837xD_SysCtrl.c"
     437 000000ce 1A3E!         OR        @_CpuSysRegs+62,#0x0020 ; [CPU_] |185| 
         000000cf 0020 
     438                      .dwpsn  file "C:/ti/controlSUITE/device_support/F2837xD/v170/F2837xD_common/source/F2837xD_SysCtrl.c"
     439 000000d0 1A3E!         OR        @_CpuSysRegs+62,#0x0040 ; [CPU_] |186| 
         000000d1 0040 
     440                      .dwpsn  file "C:/ti/controlSUITE/device_support/F2837xD/v170/F2837xD_common/source/F2837xD_SysCtrl.c"
     441 000000d2 1A3E!         OR        @_CpuSysRegs+62,#0x0080 ; [CPU_] |187| 
         000000d3 0080 
     442 000000d4 761F!         MOVW      DP,#_CpuSysRegs+67    ; [CPU_U] 
         000000d5 0001 
     443                      .dwpsn  file "C:/ti/controlSUITE/device_support/F2837xD/v170/F2837xD_common/source/F2837xD_SysCtrl.c"
     444 000000d6 1AC4          OR        *+XAR4[0],#0x0001     ; [CPU_] |189| 
         000000d7 0001 
     445                      .dwpsn  file "C:/ti/controlSUITE/device_support/F2837xD/v170/F2837xD_common/source/F2837xD_SysCtrl.c"
     446 000000d8 1A03!         OR        @_CpuSysRegs+67,#0x0002 ; [CPU_] |190| 
         000000d9 0002 
     447                      .dwpsn  file "C:/ti/controlSUITE/device_support/F2837xD/v170/F2837xD_common/source/F2837xD_SysCtrl.c"
     448 000000da 1A03!         OR        @_CpuSysRegs+67,#0x0004 ; [CPU_] |191| 
         000000db 0004 
     449 000000dc 761A   EDIS
     450 000000dd FF69          SPM       #0                    ; [CPU_] 
     451 000000de 8BBE          MOVL      XAR1,*--SP            ; [CPU_] 
     452                      .dwcfi  cfa_offset, -2
     453                      .dwcfi  restore_reg, 7
     454              $C$DW$20        .dwtag  DW_TAG_TI_branch
     455                      .dwattr $C$DW$20, DW_AT_low_pc(0x00)
     456                      .dwattr $C$DW$20, DW_AT_TI_return
     457              
     458 000000df 0006          LRETR     ; [CPU_] 
     459                      ; return occurs ; [] 
     460                      .dwattr $C$DW$19, DW_AT_TI_end_file("C:/ti/controlSUITE/device_support/F2837xD/v170/F2837xD_common/so
     461                      .dwattr $C$DW$19, DW_AT_TI_end_line(0xc2)
     462                      .dwattr $C$DW$19, DW_AT_TI_end_column(0x01)
     463                      .dwendentry
     464                      .dwendtag $C$DW$19
     465              
TMS320C2000 Assembler PC v15.12.1 Sun Feb 26 22:53:28 2017

Tools Copyright (c) 1996-2015 Texas Instruments Incorporated
F2837xD_SysCtrl.asm                                                  PAGE   11

     466 000000e0               .sect   ".text"
     467                      .clink
     468                      .global _DisablePeripheralClocks
     469              
     470              $C$DW$21        .dwtag  DW_TAG_subprogram
     471                      .dwattr $C$DW$21, DW_AT_name("DisablePeripheralClocks")
     472                      .dwattr $C$DW$21, DW_AT_low_pc(_DisablePeripheralClocks)
     473                      .dwattr $C$DW$21, DW_AT_high_pc(0x00)
     474                      .dwattr $C$DW$21, DW_AT_TI_symbol_name("_DisablePeripheralClocks")
     475                      .dwattr $C$DW$21, DW_AT_external
     476                      .dwattr $C$DW$21, DW_AT_TI_begin_file("C:/ti/controlSUITE/device_support/F2837xD/v170/F2837xD_common/
     477                      .dwattr $C$DW$21, DW_AT_TI_begin_line(0xc4)
     478                      .dwattr $C$DW$21, DW_AT_TI_begin_column(0x06)
     479                      .dwattr $C$DW$21, DW_AT_TI_max_frame_size(-2)
     480                      .dwpsn  file "C:/ti/controlSUITE/device_support/F2837xD/v170/F2837xD_common/source/F2837xD_SysCtrl.c"
     481              
     482                      .dwfde $C$DW$CIE, _DisablePeripheralClocks
     483              
     484              ;***************************************************************
     485              ;* FNAME: _DisablePeripheralClocks      FR SIZE:   0           *
     486              ;*                                                             *
     487              ;* FUNCTION ENVIRONMENT                                        *
     488              ;*                                                             *
     489              ;* FUNCTION PROPERTIES                                         *
     490              ;*                            0 Parameter,  0 Auto,  0 SOE     *
     491              ;***************************************************************
     492              
     493 000000e0       _DisablePeripheralClocks:
     494                      .dwcfi  cfa_offset, -2
     495                      .dwcfi  save_reg_to_mem, 26, 0
     496 000000e0 7622   EALLOW
     497                      .dwpsn  file "C:/ti/controlSUITE/device_support/F2837xD/v170/F2837xD_common/source/F2837xD_SysCtrl.c"
     498 000000e1 BE00          MOVB      XAR6,#0               ; [CPU_] |200| 
     499 000000e2 761F!         MOVW      DP,#_CpuSysRegs+34    ; [CPU_U] 
         000000e3 0000 
     500                      .dwpsn  file "C:/ti/controlSUITE/device_support/F2837xD/v170/F2837xD_common/source/F2837xD_SysCtrl.c"
     501 000000e4 D500          MOVB      XAR5,#0               ; [CPU_] |201| 
     502                      .dwpsn  file "C:/ti/controlSUITE/device_support/F2837xD/v170/F2837xD_common/source/F2837xD_SysCtrl.c"
     503 000000e5 D400          MOVB      XAR4,#0               ; [CPU_] |202| 
     504                      .dwpsn  file "C:/ti/controlSUITE/device_support/F2837xD/v170/F2837xD_common/source/F2837xD_SysCtrl.c"
     505 000000e6 5633          ZAPA      ; [CPU_] |204| 
     506                      .dwpsn  file "C:/ti/controlSUITE/device_support/F2837xD/v170/F2837xD_common/source/F2837xD_SysCtrl.c"
     507 000000e7 B600          MOVB      XAR7,#0               ; [CPU_] |205| 
     508                      .dwpsn  file "C:/ti/controlSUITE/device_support/F2837xD/v170/F2837xD_common/source/F2837xD_SysCtrl.c"
     509 000000e8 D000          MOVB      XAR0,#0               ; [CPU_] |208| 
     510                      .dwpsn  file "C:/ti/controlSUITE/device_support/F2837xD/v170/F2837xD_common/source/F2837xD_SysCtrl.c"
     511 000000e9 C222!         MOVL      @_CpuSysRegs+34,XAR6  ; [CPU_] |200| 
     512                      .dwpsn  file "C:/ti/controlSUITE/device_support/F2837xD/v170/F2837xD_common/source/F2837xD_SysCtrl.c"
     513 000000ea A024!         MOVL      @_CpuSysRegs+36,XAR5  ; [CPU_] |201| 
     514                      .dwpsn  file "C:/ti/controlSUITE/device_support/F2837xD/v170/F2837xD_common/source/F2837xD_SysCtrl.c"
     515 000000eb A826!         MOVL      @_CpuSysRegs+38,XAR4  ; [CPU_] |202| 
     516                      .dwpsn  file "C:/ti/controlSUITE/device_support/F2837xD/v170/F2837xD_common/source/F2837xD_SysCtrl.c"
     517 000000ec A928!         MOVL      @_CpuSysRegs+40,P     ; [CPU_] |203| 
     518                      .dwpsn  file "C:/ti/controlSUITE/device_support/F2837xD/v170/F2837xD_common/source/F2837xD_SysCtrl.c"
     519 000000ed 1E2A!         MOVL      @_CpuSysRegs+42,ACC   ; [CPU_] |204| 
TMS320C2000 Assembler PC v15.12.1 Sun Feb 26 22:53:28 2017

Tools Copyright (c) 1996-2015 Texas Instruments Incorporated
F2837xD_SysCtrl.asm                                                  PAGE   12

     520                      .dwpsn  file "C:/ti/controlSUITE/device_support/F2837xD/v170/F2837xD_common/source/F2837xD_SysCtrl.c"
     521 000000ee C32E!         MOVL      @_CpuSysRegs+46,XAR7  ; [CPU_] |205| 
     522                      .dwpsn  file "C:/ti/controlSUITE/device_support/F2837xD/v170/F2837xD_common/source/F2837xD_SysCtrl.c"
     523 000000ef C230!         MOVL      @_CpuSysRegs+48,XAR6  ; [CPU_] |206| 
     524                      .dwpsn  file "C:/ti/controlSUITE/device_support/F2837xD/v170/F2837xD_common/source/F2837xD_SysCtrl.c"
     525 000000f0 1E32!         MOVL      @_CpuSysRegs+50,ACC   ; [CPU_] |207| 
     526                      .dwpsn  file "C:/ti/controlSUITE/device_support/F2837xD/v170/F2837xD_common/source/F2837xD_SysCtrl.c"
     527 000000f1 3A34!         MOVL      @_CpuSysRegs+52,XAR0  ; [CPU_] |208| 
     528                      .dwpsn  file "C:/ti/controlSUITE/device_support/F2837xD/v170/F2837xD_common/source/F2837xD_SysCtrl.c"
     529 000000f2 A036!         MOVL      @_CpuSysRegs+54,XAR5  ; [CPU_] |209| 
     530                      .dwpsn  file "C:/ti/controlSUITE/device_support/F2837xD/v170/F2837xD_common/source/F2837xD_SysCtrl.c"
     531 000000f3 A838!         MOVL      @_CpuSysRegs+56,XAR4  ; [CPU_] |210| 
     532                      .dwpsn  file "C:/ti/controlSUITE/device_support/F2837xD/v170/F2837xD_common/source/F2837xD_SysCtrl.c"
     533 000000f4 A93A!         MOVL      @_CpuSysRegs+58,P     ; [CPU_] |211| 
     534                      .dwpsn  file "C:/ti/controlSUITE/device_support/F2837xD/v170/F2837xD_common/source/F2837xD_SysCtrl.c"
     535 000000f5 C33C!         MOVL      @_CpuSysRegs+60,XAR7  ; [CPU_] |212| 
     536                      .dwpsn  file "C:/ti/controlSUITE/device_support/F2837xD/v170/F2837xD_common/source/F2837xD_SysCtrl.c"
     537 000000f6 C23E!         MOVL      @_CpuSysRegs+62,XAR6  ; [CPU_] |213| 
     538 000000f7 761F!         MOVW      DP,#_CpuSysRegs+66    ; [CPU_U] 
         000000f8 0001 
     539                      .dwpsn  file "C:/ti/controlSUITE/device_support/F2837xD/v170/F2837xD_common/source/F2837xD_SysCtrl.c"
     540 000000f9 1E02!         MOVL      @_CpuSysRegs+66,ACC   ; [CPU_] |214| 
     541 000000fa 761A   EDIS
     542 000000fb FF69          SPM       #0                    ; [CPU_] 
     543              $C$DW$22        .dwtag  DW_TAG_TI_branch
     544                      .dwattr $C$DW$22, DW_AT_low_pc(0x00)
     545                      .dwattr $C$DW$22, DW_AT_TI_return
     546              
     547 000000fc 0006          LRETR     ; [CPU_] 
     548                      ; return occurs ; [] 
     549                      .dwattr $C$DW$21, DW_AT_TI_end_file("C:/ti/controlSUITE/device_support/F2837xD/v170/F2837xD_common/so
     550                      .dwattr $C$DW$21, DW_AT_TI_end_line(0xd9)
     551                      .dwattr $C$DW$21, DW_AT_TI_end_column(0x01)
     552                      .dwendentry
     553                      .dwendtag $C$DW$21
     554              
     555 00000000               .sect   "ramfuncs"
     556                      .clink
     557                      .global _InitFlash
     558              
     559              $C$DW$23        .dwtag  DW_TAG_subprogram
     560                      .dwattr $C$DW$23, DW_AT_name("InitFlash")
     561                      .dwattr $C$DW$23, DW_AT_low_pc(_InitFlash)
     562                      .dwattr $C$DW$23, DW_AT_high_pc(0x00)
     563                      .dwattr $C$DW$23, DW_AT_TI_symbol_name("_InitFlash")
     564                      .dwattr $C$DW$23, DW_AT_external
     565                      .dwattr $C$DW$23, DW_AT_TI_begin_file("C:/ti/controlSUITE/device_support/F2837xD/v170/F2837xD_common/
     566                      .dwattr $C$DW$23, DW_AT_TI_begin_line(0xe4)
     567                      .dwattr $C$DW$23, DW_AT_TI_begin_column(0x06)
     568                      .dwattr $C$DW$23, DW_AT_TI_max_frame_size(-2)
     569                      .dwpsn  file "C:/ti/controlSUITE/device_support/F2837xD/v170/F2837xD_common/source/F2837xD_SysCtrl.c"
     570              
     571                      .dwfde $C$DW$CIE, _InitFlash
     572              
     573              ;***************************************************************
TMS320C2000 Assembler PC v15.12.1 Sun Feb 26 22:53:28 2017

Tools Copyright (c) 1996-2015 Texas Instruments Incorporated
F2837xD_SysCtrl.asm                                                  PAGE   13

     574              ;* FNAME: _InitFlash                    FR SIZE:   0           *
     575              ;*                                                             *
     576              ;* FUNCTION ENVIRONMENT                                        *
     577              ;*                                                             *
     578              ;* FUNCTION PROPERTIES                                         *
     579              ;*                            0 Parameter,  0 Auto,  0 SOE     *
     580              ;***************************************************************
     581              
     582 00000000       _InitFlash:
     583              ;* AR5   assigned to $O$C1
     584                      .dwcfi  cfa_offset, -2
     585                      .dwcfi  save_reg_to_mem, 26, 0
     586 00000000 7622   EALLOW
     587                      .dwpsn  file "C:/ti/controlSUITE/device_support/F2837xD/v170/F2837xD_common/source/F2837xD_SysCtrl.c"
     588 00000001 8F40!         MOVL      XAR5,#_Flash0CtrlRegs ; [CPU_U] |237| 
         00000002 0000 
     589                      .dwpsn  file "C:/ti/controlSUITE/device_support/F2837xD/v170/F2837xD_common/source/F2837xD_SysCtrl.c"
     590 00000003 A0A9          MOVL      ACC,XAR5              ; [CPU_] |241| 
     591                      .dwpsn  file "C:/ti/controlSUITE/device_support/F2837xD/v170/F2837xD_common/source/F2837xD_SysCtrl.c"
     592 00000004 C4A5          MOVL      XAR6,XAR5             ; [CPU_] |237| 
     593 00000005 761F!         MOVW      DP,#_Flash0CtrlRegs+384 ; [CPU_U] 
         00000006 0006 
     594                      .dwpsn  file "C:/ti/controlSUITE/device_support/F2837xD/v170/F2837xD_common/source/F2837xD_SysCtrl.c"
     595 00000007 FF17          ADD       ACC,#3 << 7           ; [CPU_] |241| 
         00000008 0003 
     596                      .dwpsn  file "C:/ti/controlSUITE/device_support/F2837xD/v170/F2837xD_common/source/F2837xD_SysCtrl.c"
     597 00000009 DD20          ADDB      XAR5,#32              ; [CPU_] |238| 
     598                      .dwpsn  file "C:/ti/controlSUITE/device_support/F2837xD/v170/F2837xD_common/source/F2837xD_SysCtrl.c"
     599 0000000a 8AA9          MOVL      XAR4,ACC              ; [CPU_] |241| 
     600                      .dwpsn  file "C:/ti/controlSUITE/device_support/F2837xD/v170/F2837xD_common/source/F2837xD_SysCtrl.c"
     601 0000000b DE24          ADDB      XAR6,#36              ; [CPU_] |237| 
     602 0000000c 1AC6          OR        *+XAR6[0],#0x0001     ; [CPU_] |237| 
         0000000d 0001 
     603                      .dwpsn  file "C:/ti/controlSUITE/device_support/F2837xD/v170/F2837xD_common/source/F2837xD_SysCtrl.c"
     604 0000000e 1AC5          OR        *+XAR5[0],#0x0003     ; [CPU_] |238| 
         0000000f 0003 
     605                      .dwpsn  file "C:/ti/controlSUITE/device_support/F2837xD/v170/F2837xD_common/source/F2837xD_SysCtrl.c"
     606 00000010 18C4          AND       *+XAR4[0],#0xfffd     ; [CPU_] |241| 
         00000011 FFFD 
     607                      .dwpsn  file "C:/ti/controlSUITE/device_support/F2837xD/v170/F2837xD_common/source/F2837xD_SysCtrl.c"
     608 00000012 1800!         AND       @_Flash0CtrlRegs+384,#0xfffe ; [CPU_] |242| 
         00000013 FFFE 
     609 00000014 761F!         MOVW      DP,#_Flash0CtrlRegs   ; [CPU_U] 
         00000015 0000 
     610                      .dwpsn  file "C:/ti/controlSUITE/device_support/F2837xD/v170/F2837xD_common/source/F2837xD_SysCtrl.c"
     611 00000016 CC00!         AND       AL,@_Flash0CtrlRegs,#0xf3ff ; [CPU_] |250| 
         00000017 F3FF 
     612 00000018 1AA9          OR        AL,#0x0300            ; [CPU_] |250| 
         00000019 0300 
     613 0000001a 9600!         MOV       @_Flash0CtrlRegs,AL   ; [CPU_] |250| 
     614 0000001b 761F!         MOVW      DP,#_Flash0CtrlRegs+384 ; [CPU_U] 
         0000001c 0006 
     615                      .dwpsn  file "C:/ti/controlSUITE/device_support/F2837xD/v170/F2837xD_common/source/F2837xD_SysCtrl.c"
     616 0000001d 1A00!         OR        @_Flash0CtrlRegs+384,#0x0002 ; [CPU_] |263| 
         0000001e 0002 
TMS320C2000 Assembler PC v15.12.1 Sun Feb 26 22:53:28 2017

Tools Copyright (c) 1996-2015 Texas Instruments Incorporated
F2837xD_SysCtrl.asm                                                  PAGE   14

     617                      .dwpsn  file "C:/ti/controlSUITE/device_support/F2837xD/v170/F2837xD_common/source/F2837xD_SysCtrl.c"
     618 0000001f 1A00!         OR        @_Flash0CtrlRegs+384,#0x0001 ; [CPU_] |264| 
         00000020 0001 
     619 00000021 761F!         MOVW      DP,#_Flash0EccRegs    ; [CPU_U] 
         00000022 0000 
     620                      .dwpsn  file "C:/ti/controlSUITE/device_support/F2837xD/v170/F2837xD_common/source/F2837xD_SysCtrl.c"
     621 00000023 CC00!         AND       AL,@_Flash0EccRegs,#0xfff8 ; [CPU_] |268| 
         00000024 FFF8 
     622 00000025 500A          ORB       AL,#0x0a              ; [CPU_] |268| 
     623 00000026 9600!         MOV       @_Flash0EccRegs,AL    ; [CPU_] |268| 
     624 00000027 761A   EDIS
     625 00000028 F607   RPT #7 || NOP
         00000029 7700 
     626 0000002a FF69          SPM       #0                    ; [CPU_] 
     627              $C$DW$24        .dwtag  DW_TAG_TI_branch
     628                      .dwattr $C$DW$24, DW_AT_low_pc(0x00)
     629                      .dwattr $C$DW$24, DW_AT_TI_return
     630              
     631 0000002b 0006          LRETR     ; [CPU_] 
     632                      ; return occurs ; [] 
     633                      .dwattr $C$DW$23, DW_AT_TI_end_file("C:/ti/controlSUITE/device_support/F2837xD/v170/F2837xD_common/so
     634                      .dwattr $C$DW$23, DW_AT_TI_end_line(0x115)
     635                      .dwattr $C$DW$23, DW_AT_TI_end_column(0x01)
     636                      .dwendentry
     637                      .dwendtag $C$DW$23
     638              
     639 000000fd               .sect   ".text"
     640                      .clink
     641                      .global _ServiceDog
     642              
     643              $C$DW$25        .dwtag  DW_TAG_subprogram
     644                      .dwattr $C$DW$25, DW_AT_name("ServiceDog")
     645                      .dwattr $C$DW$25, DW_AT_low_pc(_ServiceDog)
     646                      .dwattr $C$DW$25, DW_AT_high_pc(0x00)
     647                      .dwattr $C$DW$25, DW_AT_TI_symbol_name("_ServiceDog")
     648                      .dwattr $C$DW$25, DW_AT_external
     649                      .dwattr $C$DW$25, DW_AT_TI_begin_file("C:/ti/controlSUITE/device_support/F2837xD/v170/F2837xD_common/
     650                      .dwattr $C$DW$25, DW_AT_TI_begin_line(0x11d)
     651                      .dwattr $C$DW$25, DW_AT_TI_begin_column(0x06)
     652                      .dwattr $C$DW$25, DW_AT_TI_max_frame_size(-2)
     653                      .dwpsn  file "C:/ti/controlSUITE/device_support/F2837xD/v170/F2837xD_common/source/F2837xD_SysCtrl.c"
     654              
     655                      .dwfde $C$DW$CIE, _ServiceDog
     656              
     657              ;***************************************************************
     658              ;* FNAME: _ServiceDog                   FR SIZE:   0           *
     659              ;*                                                             *
     660              ;* FUNCTION ENVIRONMENT                                        *
     661              ;*                                                             *
     662              ;* FUNCTION PROPERTIES                                         *
     663              ;*                            0 Parameter,  0 Auto,  0 SOE     *
     664              ;***************************************************************
     665              
     666 000000fd       _ServiceDog:
     667                      .dwcfi  cfa_offset, -2
TMS320C2000 Assembler PC v15.12.1 Sun Feb 26 22:53:28 2017

Tools Copyright (c) 1996-2015 Texas Instruments Incorporated
F2837xD_SysCtrl.asm                                                  PAGE   15

     668                      .dwcfi  save_reg_to_mem, 26, 0
     669 000000fd 7622   EALLOW
     670 000000fe 761F!         MOVW      DP,#_WdRegs+37        ; [CPU_U] 
         000000ff 0000 
     671                      .dwpsn  file "C:/ti/controlSUITE/device_support/F2837xD/v170/F2837xD_common/source/F2837xD_SysCtrl.c"
     672 00000100 CC25!         AND       AL,@_WdRegs+37,#0xff00 ; [CPU_] |288| 
         00000101 FF00 
     673 00000102 5055          ORB       AL,#0x55              ; [CPU_] |288| 
     674 00000103 9625!         MOV       @_WdRegs+37,AL        ; [CPU_] |288| 
     675                      .dwpsn  file "C:/ti/controlSUITE/device_support/F2837xD/v170/F2837xD_common/source/F2837xD_SysCtrl.c"
     676 00000104 CC25!         AND       AL,@_WdRegs+37,#0xff80 ; [CPU_] |289| 
         00000105 FF80 
     677 00000106 50AA          ORB       AL,#0xaa              ; [CPU_] |289| 
     678 00000107 9625!         MOV       @_WdRegs+37,AL        ; [CPU_] |289| 
     679 00000108 761A   EDIS
     680 00000109 FF69          SPM       #0                    ; [CPU_] 
     681              $C$DW$26        .dwtag  DW_TAG_TI_branch
     682                      .dwattr $C$DW$26, DW_AT_low_pc(0x00)
     683                      .dwattr $C$DW$26, DW_AT_TI_return
     684              
     685 0000010a 0006          LRETR     ; [CPU_] 
     686                      ; return occurs ; [] 
     687                      .dwattr $C$DW$25, DW_AT_TI_end_file("C:/ti/controlSUITE/device_support/F2837xD/v170/F2837xD_common/so
     688                      .dwattr $C$DW$25, DW_AT_TI_end_line(0x123)
     689                      .dwattr $C$DW$25, DW_AT_TI_end_column(0x01)
     690                      .dwendentry
     691                      .dwendtag $C$DW$25
     692              
     693 0000010b               .sect   ".text"
     694                      .clink
     695                      .global _DisableDog
     696              
     697              $C$DW$27        .dwtag  DW_TAG_subprogram
     698                      .dwattr $C$DW$27, DW_AT_name("DisableDog")
     699                      .dwattr $C$DW$27, DW_AT_low_pc(_DisableDog)
     700                      .dwattr $C$DW$27, DW_AT_high_pc(0x00)
     701                      .dwattr $C$DW$27, DW_AT_TI_symbol_name("_DisableDog")
     702                      .dwattr $C$DW$27, DW_AT_external
     703                      .dwattr $C$DW$27, DW_AT_TI_begin_file("C:/ti/controlSUITE/device_support/F2837xD/v170/F2837xD_common/
     704                      .dwattr $C$DW$27, DW_AT_TI_begin_line(0x12a)
     705                      .dwattr $C$DW$27, DW_AT_TI_begin_column(0x06)
     706                      .dwattr $C$DW$27, DW_AT_TI_max_frame_size(-4)
     707                      .dwpsn  file "C:/ti/controlSUITE/device_support/F2837xD/v170/F2837xD_common/source/F2837xD_SysCtrl.c"
     708              
     709                      .dwfde $C$DW$CIE, _DisableDog
     710              
     711              ;***************************************************************
     712              ;* FNAME: _DisableDog                   FR SIZE:   2           *
     713              ;*                                                             *
     714              ;* FUNCTION ENVIRONMENT                                        *
     715              ;*                                                             *
     716              ;* FUNCTION PROPERTIES                                         *
     717              ;*                            0 Parameter,  1 Auto,  0 SOE     *
     718              ;***************************************************************
     719              
TMS320C2000 Assembler PC v15.12.1 Sun Feb 26 22:53:28 2017

Tools Copyright (c) 1996-2015 Texas Instruments Incorporated
F2837xD_SysCtrl.asm                                                  PAGE   16

     720              _DisableDog:
     721              $C$DW$28        .dwtag  DW_TAG_variable
     722                      .dwattr $C$DW$28, DW_AT_name("temp")
     723                      .dwattr $C$DW$28, DW_AT_TI_symbol_name("_temp")
     724                      .dwattr $C$DW$28, DW_AT_type(*$C$DW$T$384)
     725                      .dwattr $C$DW$28, DW_AT_location[DW_OP_breg20 -1]
     726              
     727                      .dwcfi  cfa_offset, -2
     728                      .dwcfi  save_reg_to_mem, 26, 0
     729 0000010b FE02          ADDB      SP,#2                 ; [CPU_U] 
     730                      .dwcfi  cfa_offset, -4
     731 0000010c 7622   EALLOW
     732 0000010d 761F!         MOVW      DP,#_WdRegs+41        ; [CPU_U] 
         0000010e 0000 
     733                      .dwpsn  file "C:/ti/controlSUITE/device_support/F2837xD/v170/F2837xD_common/source/F2837xD_SysCtrl.c"
     734 0000010f 9229!         MOV       AL,@_WdRegs+41        ; [CPU_] |303| 
     735 00000110 9007          ANDB      AL,#0x07              ; [CPU_] |303| 
     736 00000111 9641          MOV       *-SP[1],AL            ; [CPU_] |303| 
     737                      .dwpsn  file "C:/ti/controlSUITE/device_support/F2837xD/v170/F2837xD_common/source/F2837xD_SysCtrl.c"
     738 00000112 5068          ORB       AL,#0x68              ; [CPU_] |304| 
     739 00000113 9629!         MOV       @_WdRegs+41,AL        ; [CPU_] |304| 
     740 00000114 761A   EDIS
     741 00000115 FF69          SPM       #0                    ; [CPU_] 
     742 00000116 FE82          SUBB      SP,#2                 ; [CPU_U] 
     743                      .dwcfi  cfa_offset, -2
     744              $C$DW$29        .dwtag  DW_TAG_TI_branch
     745                      .dwattr $C$DW$29, DW_AT_low_pc(0x00)
     746                      .dwattr $C$DW$29, DW_AT_TI_return
     747              
     748 00000117 0006          LRETR     ; [CPU_] 
     749                      ; return occurs ; [] 
     750                      .dwattr $C$DW$27, DW_AT_TI_end_file("C:/ti/controlSUITE/device_support/F2837xD/v170/F2837xD_common/so
     751                      .dwattr $C$DW$27, DW_AT_TI_end_line(0x132)
     752                      .dwattr $C$DW$27, DW_AT_TI_end_column(0x01)
     753                      .dwendentry
     754                      .dwendtag $C$DW$27
     755              
     756 00000118               .sect   ".text"
     757                      .clink
     758                      .global _InitSysPll
     759              
     760              $C$DW$30        .dwtag  DW_TAG_subprogram
     761                      .dwattr $C$DW$30, DW_AT_name("InitSysPll")
     762                      .dwattr $C$DW$30, DW_AT_low_pc(_InitSysPll)
     763                      .dwattr $C$DW$30, DW_AT_high_pc(0x00)
     764                      .dwattr $C$DW$30, DW_AT_TI_symbol_name("_InitSysPll")
     765                      .dwattr $C$DW$30, DW_AT_external
     766                      .dwattr $C$DW$30, DW_AT_TI_begin_file("C:/ti/controlSUITE/device_support/F2837xD/v170/F2837xD_common/
     767                      .dwattr $C$DW$30, DW_AT_TI_begin_line(0x13c)
     768                      .dwattr $C$DW$30, DW_AT_TI_begin_column(0x06)
     769                      .dwattr $C$DW$30, DW_AT_TI_max_frame_size(-8)
     770                      .dwpsn  file "C:/ti/controlSUITE/device_support/F2837xD/v170/F2837xD_common/source/F2837xD_SysCtrl.c"
     771              
     772                      .dwfde $C$DW$CIE, _InitSysPll
     773              $C$DW$31        .dwtag  DW_TAG_formal_parameter
TMS320C2000 Assembler PC v15.12.1 Sun Feb 26 22:53:28 2017

Tools Copyright (c) 1996-2015 Texas Instruments Incorporated
F2837xD_SysCtrl.asm                                                  PAGE   17

     774                      .dwattr $C$DW$31, DW_AT_name("clock_source")
     775                      .dwattr $C$DW$31, DW_AT_TI_symbol_name("_clock_source")
     776                      .dwattr $C$DW$31, DW_AT_type(*$C$DW$T$19)
     777                      .dwattr $C$DW$31, DW_AT_location[DW_OP_reg0]
     778              
     779              $C$DW$32        .dwtag  DW_TAG_formal_parameter
     780                      .dwattr $C$DW$32, DW_AT_name("imult")
     781                      .dwattr $C$DW$32, DW_AT_TI_symbol_name("_imult")
     782                      .dwattr $C$DW$32, DW_AT_type(*$C$DW$T$19)
     783                      .dwattr $C$DW$32, DW_AT_location[DW_OP_reg1]
     784              
     785              $C$DW$33        .dwtag  DW_TAG_formal_parameter
     786                      .dwattr $C$DW$33, DW_AT_name("fmult")
     787                      .dwattr $C$DW$33, DW_AT_TI_symbol_name("_fmult")
     788                      .dwattr $C$DW$33, DW_AT_type(*$C$DW$T$19)
     789                      .dwattr $C$DW$33, DW_AT_location[DW_OP_reg12]
     790              
     791              $C$DW$34        .dwtag  DW_TAG_formal_parameter
     792                      .dwattr $C$DW$34, DW_AT_name("divsel")
     793                      .dwattr $C$DW$34, DW_AT_TI_symbol_name("_divsel")
     794                      .dwattr $C$DW$34, DW_AT_type(*$C$DW$T$19)
     795                      .dwattr $C$DW$34, DW_AT_location[DW_OP_reg14]
     796              
     797              
     798              ;***************************************************************
     799              ;* FNAME: _InitSysPll                   FR SIZE:   6           *
     800              ;*                                                             *
     801              ;* FUNCTION ENVIRONMENT                                        *
     802              ;*                                                             *
     803              ;* FUNCTION PROPERTIES                                         *
     804              ;*                            0 Parameter,  0 Auto,  6 SOE     *
     805              ;***************************************************************
     806              
     807              _InitSysPll:
     808              ;* AR5   assigned to $O$C1
     809              ;* AR4   assigned to $O$C2
     810              ;* AR6   assigned to $O$C3
     811              ;* AR7   assigned to _clock_source
     812              $C$DW$35        .dwtag  DW_TAG_variable
     813                      .dwattr $C$DW$35, DW_AT_name("clock_source")
     814                      .dwattr $C$DW$35, DW_AT_TI_symbol_name("_clock_source")
     815                      .dwattr $C$DW$35, DW_AT_type(*$C$DW$T$385)
     816                      .dwattr $C$DW$35, DW_AT_location[DW_OP_reg18]
     817              
     818              ;* AR2   assigned to _imult
     819              $C$DW$36        .dwtag  DW_TAG_variable
     820                      .dwattr $C$DW$36, DW_AT_name("imult")
     821                      .dwattr $C$DW$36, DW_AT_TI_symbol_name("_imult")
     822                      .dwattr $C$DW$36, DW_AT_type(*$C$DW$T$385)
     823                      .dwattr $C$DW$36, DW_AT_location[DW_OP_reg8]
     824              
     825              ;* AR3   assigned to _fmult
     826              $C$DW$37        .dwtag  DW_TAG_variable
     827                      .dwattr $C$DW$37, DW_AT_name("fmult")
     828                      .dwattr $C$DW$37, DW_AT_TI_symbol_name("_fmult")
TMS320C2000 Assembler PC v15.12.1 Sun Feb 26 22:53:28 2017

Tools Copyright (c) 1996-2015 Texas Instruments Incorporated
F2837xD_SysCtrl.asm                                                  PAGE   18

     829                      .dwattr $C$DW$37, DW_AT_type(*$C$DW$T$385)
     830                      .dwattr $C$DW$37, DW_AT_location[DW_OP_reg10]
     831              
     832              ;* AR1   assigned to _divsel
     833              $C$DW$38        .dwtag  DW_TAG_variable
     834                      .dwattr $C$DW$38, DW_AT_name("divsel")
     835                      .dwattr $C$DW$38, DW_AT_TI_symbol_name("_divsel")
     836                      .dwattr $C$DW$38, DW_AT_type(*$C$DW$T$385)
     837                      .dwattr $C$DW$38, DW_AT_location[DW_OP_reg6]
     838              
     839                      .dwcfi  cfa_offset, -2
     840                      .dwcfi  save_reg_to_mem, 26, 0
     841 00000118 B2BD          MOVL      *SP++,XAR1            ; [CPU_] 
     842                      .dwcfi  save_reg_to_mem, 7, 2
     843                      .dwcfi  cfa_offset, -4
     844 00000119 80A9          MOVZ      AR7,AL                ; [CPU_] |317| 
     845                      .dwpsn  file "C:/ti/controlSUITE/device_support/F2837xD/v170/F2837xD_common/source/F2837xD_SysCtrl.c"
     846 0000011a D008          MOVB      XAR0,#8               ; [CPU_] |318| 
     847 0000011b 7680!         MOVL      XAR6,#_ClkCfgRegs     ; [CPU_U] |318| 
         0000011c 0000 
     848 0000011d AABD          MOVL      *SP++,XAR2            ; [CPU_] 
     849                      .dwcfi  save_reg_to_mem, 9, 4
     850                      .dwcfi  cfa_offset, -6
     851 0000011e 2BAA          MOV       PH,#0                 ; [CPU_] |318| 
     852 0000011f 27A7          MOV       PL,AR7                ; [CPU_] |318| 
     853                      .dwpsn  file "C:/ti/controlSUITE/device_support/F2837xD/v170/F2837xD_common/source/F2837xD_SysCtrl.c"
     854 00000120 5AA8          MOVZ      AR2,AH                ; [CPU_] |317| 
     855 00000121 59A5          MOVZ      AR1,AR5               ; [CPU_] |317| 
     856 00000122 A2BD          MOVL      *SP++,XAR3            ; [CPU_] 
     857                      .dwcfi  save_reg_to_mem, 11, 6
     858                      .dwcfi  cfa_offset, -8
     859 00000123 5BA4          MOVZ      AR3,AR4               ; [CPU_] |317| 
     860                      .dwpsn  file "C:/ti/controlSUITE/device_support/F2837xD/v170/F2837xD_common/source/F2837xD_SysCtrl.c"
     861 00000124 9296          MOV       AL,*+XAR6[AR0]        ; [CPU_] |318| 
     862 00000125 9003          ANDB      AL,#0x03              ; [CPU_] |318| 
     863 00000126 0EA9          MOVU      ACC,AL                ; [CPU_] |318| 
     864 00000127 0FAB          CMPL      ACC,P                 ; [CPU_] |318| 
     865 00000128 6018          B         $C$L2,NEQ             ; [CPU_] |318| 
     866                      ; branchcc occurs ; [] |318| 
     867 00000129 D014          MOVB      XAR0,#20              ; [CPU_] |318| 
     868 0000012a 9396          MOV       AH,*+XAR6[AR0]        ; [CPU_] |318| 
     869 0000012b 27A2          MOV       PL,AR2                ; [CPU_] |318| 
     870 0000012c 917F          ANDB      AH,#0x7f              ; [CPU_] |318| 
     871 0000012d 0EA8          MOVU      ACC,AH                ; [CPU_] |318| 
     872 0000012e 0FAB          CMPL      ACC,P                 ; [CPU_] |318| 
     873 0000012f 6011          B         $C$L2,NEQ             ; [CPU_] |318| 
     874                      ; branchcc occurs ; [] |318| 
     875 00000130 761F!         MOVW      DP,#_ClkCfgRegs+20    ; [CPU_U] 
         00000131 0000 
     876 00000132 CD14!         AND       AH,@_ClkCfgRegs+20,#0x0300 ; [CPU_] |318| 
         00000133 0300 
     877 00000134 27A3          MOV       PL,AR3                ; [CPU_] |318| 
     878 00000135 FFD7          LSR       AH,8                  ; [CPU_] |318| 
     879 00000136 0EA8          MOVU      ACC,AH                ; [CPU_] |318| 
     880 00000137 0FAB          CMPL      ACC,P                 ; [CPU_] |318| 
TMS320C2000 Assembler PC v15.12.1 Sun Feb 26 22:53:28 2017

Tools Copyright (c) 1996-2015 Texas Instruments Incorporated
F2837xD_SysCtrl.asm                                                  PAGE   19

     881 00000138 6008          B         $C$L2,NEQ             ; [CPU_] |318| 
     882                      ; branchcc occurs ; [] |318| 
     883 00000139 D022          MOVB      XAR0,#34              ; [CPU_] |318| 
     884 0000013a 9396          MOV       AH,*+XAR6[AR0]        ; [CPU_] |318| 
     885 0000013b 88A1          MOVZ      AR6,AR1               ; [CPU_] |318| 
     886 0000013c 913F          ANDB      AH,#0x3f              ; [CPU_] |318| 
     887 0000013d 0EA8          MOVU      ACC,AH                ; [CPU_] |318| 
     888 0000013e 0FA6          CMPL      ACC,XAR6              ; [CPU_] |318| 
     889 0000013f 6166          B         $C$L12,EQ             ; [CPU_] |318| 
     890                      ; branchcc occurs ; [] |318| 
     891 00000140       $C$L2:    
     892 00000140 761F!         MOVW      DP,#_ClkCfgRegs+8     ; [CPU_U] 
         00000141 0000 
     893                      .dwpsn  file "C:/ti/controlSUITE/device_support/F2837xD/v170/F2837xD_common/source/F2837xD_SysCtrl.c"
     894 00000142 88A7          MOVZ      AR6,AR7               ; [CPU_] |329| 
     895 00000143 9308!         MOV       AH,@_ClkCfgRegs+8     ; [CPU_] |329| 
     896 00000144 9103          ANDB      AH,#0x03              ; [CPU_] |329| 
     897 00000145 0EA8          MOVU      ACC,AH                ; [CPU_] |329| 
     898 00000146 0FA6          CMPL      ACC,XAR6              ; [CPU_] |329| 
     899 00000147 610F          B         $C$L5,EQ              ; [CPU_] |329| 
     900                      ; branchcc occurs ; [] |329| 
     901 00000148 92A7          MOV       AL,AR7                ; [CPU_] |329| 
     902 00000149 610B          B         $C$L4,EQ              ; [CPU_] |329| 
     903                      ; branchcc occurs ; [] |329| 
     904 0000014a 5201          CMPB      AL,#1                 ; [CPU_] |329| 
     905 0000014b 6106          B         $C$L3,EQ              ; [CPU_] |329| 
     906                      ; branchcc occurs ; [] |329| 
     907 0000014c 5202          CMPB      AL,#2                 ; [CPU_] |329| 
     908 0000014d 6009          B         $C$L5,NEQ             ; [CPU_] |329| 
     909                      ; branchcc occurs ; [] |329| 
     910                      .dwpsn  file "C:/ti/controlSUITE/device_support/F2837xD/v170/F2837xD_common/source/F2837xD_SysCtrl.c"
     911              $C$DW$39        .dwtag  DW_TAG_TI_branch
     912                      .dwattr $C$DW$39, DW_AT_low_pc(0x00)
     913                      .dwattr $C$DW$39, DW_AT_name("_SysIntOsc1Sel")
     914                      .dwattr $C$DW$39, DW_AT_TI_call
     915              
     916 0000014e 7640'         LCR       #_SysIntOsc1Sel       ; [CPU_] |332| 
         0000014f 0260 
     917                      ; call occurs [#_SysIntOsc1Sel] ; [] |332| 
     918                      .dwpsn  file "C:/ti/controlSUITE/device_support/F2837xD/v170/F2837xD_common/source/F2837xD_SysCtrl.c"
     919 00000150 6F06          B         $C$L5,UNC             ; [CPU_] |333| 
     920                      ; branch occurs ; [] |333| 
     921 00000151       $C$L3:    
     922                      .dwpsn  file "C:/ti/controlSUITE/device_support/F2837xD/v170/F2837xD_common/source/F2837xD_SysCtrl.c"
     923              $C$DW$40        .dwtag  DW_TAG_TI_branch
     924                      .dwattr $C$DW$40, DW_AT_low_pc(0x00)
     925                      .dwattr $C$DW$40, DW_AT_name("_SysXtalOscSel")
     926                      .dwattr $C$DW$40, DW_AT_TI_call
     927              
     928 00000151 7640'         LCR       #_SysXtalOscSel       ; [CPU_] |340| 
         00000152 0274 
     929                      ; call occurs [#_SysXtalOscSel] ; [] |340| 
     930                      .dwpsn  file "C:/ti/controlSUITE/device_support/F2837xD/v170/F2837xD_common/source/F2837xD_SysCtrl.c"
     931 00000153 6F03          B         $C$L5,UNC             ; [CPU_] |341| 
     932                      ; branch occurs ; [] |341| 
TMS320C2000 Assembler PC v15.12.1 Sun Feb 26 22:53:28 2017

Tools Copyright (c) 1996-2015 Texas Instruments Incorporated
F2837xD_SysCtrl.asm                                                  PAGE   20

     933 00000154       $C$L4:    
     934                      .dwpsn  file "C:/ti/controlSUITE/device_support/F2837xD/v170/F2837xD_common/source/F2837xD_SysCtrl.c"
     935              $C$DW$41        .dwtag  DW_TAG_TI_branch
     936                      .dwattr $C$DW$41, DW_AT_low_pc(0x00)
     937                      .dwattr $C$DW$41, DW_AT_name("_SysIntOsc2Sel")
     938                      .dwattr $C$DW$41, DW_AT_TI_call
     939              
     940 00000154 7640'         LCR       #_SysIntOsc2Sel       ; [CPU_] |336| 
         00000155 026A 
     941                      ; call occurs [#_SysIntOsc2Sel] ; [] |336| 
     942 00000156       $C$L5:    
     943 00000156 7622   EALLOW
     944 00000157 761F!         MOVW      DP,#_ClkCfgRegs+20    ; [CPU_U] 
         00000158 0000 
     945                      .dwpsn  file "C:/ti/controlSUITE/device_support/F2837xD/v170/F2837xD_common/source/F2837xD_SysCtrl.c"
     946 00000159 88A2          MOVZ      AR6,AR2               ; [CPU_] |347| 
     947 0000015a 9214!         MOV       AL,@_ClkCfgRegs+20    ; [CPU_] |347| 
     948 0000015b 907F          ANDB      AL,#0x7f              ; [CPU_] |347| 
     949 0000015c 0EA9          MOVU      ACC,AL                ; [CPU_] |347| 
     950 0000015d 0FA6          CMPL      ACC,XAR6              ; [CPU_] |347| 
     951 0000015e 6008          B         $C$L6,NEQ             ; [CPU_] |347| 
     952                      ; branchcc occurs ; [] |347| 
     953 0000015f 88A3          MOVZ      AR6,AR3               ; [CPU_] |347| 
     954 00000160 CC14!         AND       AL,@_ClkCfgRegs+20,#0x0300 ; [CPU_] |347| 
         00000161 0300 
     955 00000162 FFC7          LSR       AL,8                  ; [CPU_] |347| 
     956 00000163 0EA9          MOVU      ACC,AL                ; [CPU_] |347| 
     957 00000164 0FA6          CMPL      ACC,XAR6              ; [CPU_] |347| 
     958 00000165 6120          B         $C$L9,EQ              ; [CPU_] |347| 
     959                      ; branchcc occurs ; [] |347| 
     960 00000166       $C$L6:    
     961                      .dwpsn  file "C:/ti/controlSUITE/device_support/F2837xD/v170/F2837xD_common/source/F2837xD_SysCtrl.c"
     962 00000166 8F00!         MOVL      XAR4,#_ClkCfgRegs     ; [CPU_U] |350| 
         00000167 0000 
     963                      .dwpsn  file "C:/ti/controlSUITE/device_support/F2837xD/v170/F2837xD_common/source/F2837xD_SysCtrl.c"
     964 00000168 5603          MOV       ACC,AR3 << #8         ; [CPU_] |355| 
         00000169 08A3 
     965                      .dwpsn  file "C:/ti/controlSUITE/device_support/F2837xD/v170/F2837xD_common/source/F2837xD_SysCtrl.c"
     966 0000016a 83A4          MOVL      XAR5,XAR4             ; [CPU_] |350| 
     967                      .dwpsn  file "C:/ti/controlSUITE/device_support/F2837xD/v170/F2837xD_common/source/F2837xD_SysCtrl.c"
     968 0000016b CAA2          OR        AL,AR2                ; [CPU_] |355| 
     969 0000016c 88A9          MOVZ      AR6,AL                ; [CPU_] |355| 
     970                      .dwpsn  file "C:/ti/controlSUITE/device_support/F2837xD/v170/F2837xD_common/source/F2837xD_SysCtrl.c"
     971 0000016d DC22          ADDB      XAR4,#34              ; [CPU_] |351| 
     972                      .dwpsn  file "C:/ti/controlSUITE/device_support/F2837xD/v170/F2837xD_common/source/F2837xD_SysCtrl.c"
     973 0000016e DD0E          ADDB      XAR5,#14              ; [CPU_] |350| 
     974 0000016f 18C5          AND       *+XAR5[0],#0xfffd     ; [CPU_] |350| 
         00000170 FFFD 
     975                      .dwpsn  file "C:/ti/controlSUITE/device_support/F2837xD/v170/F2837xD_common/source/F2837xD_SysCtrl.c"
     976 00000171 18C4          AND       *+XAR4[0],#0xffc0     ; [CPU_] |351| 
         00000172 FFC0 
     977                      .dwpsn  file "C:/ti/controlSUITE/device_support/F2837xD/v170/F2837xD_common/source/F2837xD_SysCtrl.c"
     978 00000173 0614!         MOVL      ACC,@_ClkCfgRegs+20   ; [CPU_] |354| 
     979                      .dwpsn  file "C:/ti/controlSUITE/device_support/F2837xD/v170/F2837xD_common/source/F2837xD_SysCtrl.c"
     980 00000174 9B00          MOVB      AH,#0                 ; [CPU_] |355| 
TMS320C2000 Assembler PC v15.12.1 Sun Feb 26 22:53:28 2017

Tools Copyright (c) 1996-2015 Texas Instruments Incorporated
F2837xD_SysCtrl.asm                                                  PAGE   21

     981 00000175 18A9          AND       AL,#0xfc80            ; [CPU_] |355| 
         00000176 FC80 
     982 00000177 AFA6          OR        ACC,AR6               ; [CPU_] |355| 
     983 00000178 1E14!         MOVL      @_ClkCfgRegs+20,ACC   ; [CPU_] |355| 
     984                      .dwpsn  file "C:/ti/controlSUITE/device_support/F2837xD/v170/F2837xD_common/source/F2837xD_SysCtrl.c"
     985 00000179 1A0E!         OR        @_ClkCfgRegs+14,#0x0001 ; [CPU_] |358| 
         0000017a 0001 
     986 0000017b       $C$L7:    
     987                      .dwpsn  file "C:/ti/controlSUITE/device_support/F2837xD/v170/F2837xD_common/source/F2837xD_SysCtrl.c"
     988 0000017b 4016!         TBIT      @_ClkCfgRegs+22,#0    ; [CPU_] |361| 
     989 0000017c 6CFF          B         $C$L7,NTC             ; [CPU_] |361| 
     990                      ; branchcc occurs ; [] |361| 
     991                      .dwpsn  file "C:/ti/controlSUITE/device_support/F2837xD/v170/F2837xD_common/source/F2837xD_SysCtrl.c"
     992 0000017d CD14!         AND       AH,@_ClkCfgRegs+20,#0xff80 ; [CPU_] |369| 
         0000017e FF80 
     993 0000017f CCA2          AND       AL,AR2,#0x007f        ; [CPU_] |369| 
         00000180 007F 
     994 00000181 CAA8          OR        AL,AH                 ; [CPU_] |369| 
     995 00000182 9614!         MOV       @_ClkCfgRegs+20,AL    ; [CPU_] |369| 
     996 00000183       $C$L8:    
     997                      .dwpsn  file "C:/ti/controlSUITE/device_support/F2837xD/v170/F2837xD_common/source/F2837xD_SysCtrl.c"
     998 00000183 4016!         TBIT      @_ClkCfgRegs+22,#0    ; [CPU_] |372| 
     999 00000184 6CFF          B         $C$L8,NTC             ; [CPU_] |372| 
    1000                      ; branchcc occurs ; [] |372| 
    1001 00000185       $C$L9:    
    1002 00000185 92A1          MOV       AL,AR1                ; [CPU_] 
    1003                      .dwpsn  file "C:/ti/controlSUITE/device_support/F2837xD/v170/F2837xD_common/source/F2837xD_SysCtrl.c"
    1004 00000186 523F          CMPB      AL,#63                ; [CPU_] |380| 
    1005 00000187 6007          B         $C$L10,NEQ            ; [CPU_] |380| 
    1006                      ; branchcc occurs ; [] |380| 
    1007                      .dwpsn  file "C:/ti/controlSUITE/device_support/F2837xD/v170/F2837xD_common/source/F2837xD_SysCtrl.c"
    1008 00000188 CD22!         AND       AH,@_ClkCfgRegs+34,#0xffc0 ; [CPU_] |385| 
         00000189 FFC0 
    1009 0000018a 903F          ANDB      AL,#63                ; [CPU_] |385| 
    1010 0000018b CAA8          OR        AL,AH                 ; [CPU_] |385| 
    1011 0000018c 9622!         MOV       @_ClkCfgRegs+34,AL    ; [CPU_] |385| 
    1012 0000018d 6F08          B         $C$L11,UNC            ; [CPU_] |385| 
    1013                      ; branch occurs ; [] |385| 
    1014 0000018e       $C$L10:    
    1015                      .dwpsn  file "C:/ti/controlSUITE/device_support/F2837xD/v170/F2837xD_common/source/F2837xD_SysCtrl.c"
    1016 0000018e 9A01          MOVB      AL,#1                 ; [CPU_] |382| 
    1017 0000018f CD22!         AND       AH,@_ClkCfgRegs+34,#0xffc0 ; [CPU_] |382| 
         00000190 FFC0 
    1018 00000191 94A1          ADD       AL,AR1                ; [CPU_] |382| 
    1019 00000192 903F          ANDB      AL,#0x3f              ; [CPU_] |382| 
    1020 00000193 CAA8          OR        AL,AH                 ; [CPU_] |382| 
    1021 00000194 9622!         MOV       @_ClkCfgRegs+34,AL    ; [CPU_] |382| 
    1022 00000195       $C$L11:    
    1023                      .dwpsn  file "C:/ti/controlSUITE/device_support/F2837xD/v170/F2837xD_common/source/F2837xD_SysCtrl.c"
    1024 00000195 8F40!         MOVL      XAR5,#_ClkCfgRegs     ; [CPU_U] |389| 
         00000196 0000 
    1025 00000197 8AA5          MOVL      XAR4,XAR5             ; [CPU_] |389| 
    1026 00000198 DC0E          ADDB      XAR4,#14              ; [CPU_] |389| 
    1027 00000199 1AC4          OR        *+XAR4[0],#0x0002     ; [CPU_] |389| 
         0000019a 0002 
TMS320C2000 Assembler PC v15.12.1 Sun Feb 26 22:53:28 2017

Tools Copyright (c) 1996-2015 Texas Instruments Incorporated
F2837xD_SysCtrl.asm                                                  PAGE   22

    1028 0000019b F664   RPT #100 || NOP
         0000019c 7700 
    1029                      .dwpsn  file "C:/ti/controlSUITE/device_support/F2837xD/v170/F2837xD_common/source/F2837xD_SysCtrl.c"
    1030 0000019d 92A1          MOV       AL,AR1                ; [CPU_] |395| 
    1031 0000019e D022          MOVB      XAR0,#34              ; [CPU_] |395| 
    1032 0000019f 903F          ANDB      AL,#63                ; [CPU_] |395| 
    1033 000001a0 CD95          AND       AH,*+XAR5[AR0],#0xffc0 ; [CPU_] |395| 
         000001a1 FFC0 
    1034 000001a2 CAA8          OR        AL,AH                 ; [CPU_] |395| 
    1035 000001a3 9622!         MOV       @_ClkCfgRegs+34,AL    ; [CPU_] |395| 
    1036 000001a4 761A   EDIS
    1037 000001a5       $C$L12:    
    1038 000001a5 82BE          MOVL      XAR3,*--SP            ; [CPU_] 
    1039                      .dwcfi  cfa_offset, -6
    1040                      .dwcfi  restore_reg, 11
    1041 000001a6 FF69          SPM       #0                    ; [CPU_] 
    1042 000001a7 86BE          MOVL      XAR2,*--SP            ; [CPU_] 
    1043                      .dwcfi  cfa_offset, -4
    1044                      .dwcfi  restore_reg, 9
    1045 000001a8 8BBE          MOVL      XAR1,*--SP            ; [CPU_] 
    1046                      .dwcfi  cfa_offset, -2
    1047                      .dwcfi  restore_reg, 7
    1048              $C$DW$42        .dwtag  DW_TAG_TI_branch
    1049                      .dwattr $C$DW$42, DW_AT_low_pc(0x00)
    1050                      .dwattr $C$DW$42, DW_AT_TI_return
    1051              
    1052 000001a9 0006          LRETR     ; [CPU_] 
    1053                      ; return occurs ; [] 
    1054                      .dwattr $C$DW$30, DW_AT_TI_end_file("C:/ti/controlSUITE/device_support/F2837xD/v170/F2837xD_common/so
    1055                      .dwattr $C$DW$30, DW_AT_TI_end_line(0x18d)
    1056                      .dwattr $C$DW$30, DW_AT_TI_end_column(0x01)
    1057                      .dwendentry
    1058                      .dwendtag $C$DW$30
    1059              
    1060 000001aa               .sect   ".text"
    1061                      .clink
    1062                      .global _InitAuxPll
    1063              
    1064              $C$DW$43        .dwtag  DW_TAG_subprogram
    1065                      .dwattr $C$DW$43, DW_AT_name("InitAuxPll")
    1066                      .dwattr $C$DW$43, DW_AT_low_pc(_InitAuxPll)
    1067                      .dwattr $C$DW$43, DW_AT_high_pc(0x00)
    1068                      .dwattr $C$DW$43, DW_AT_TI_symbol_name("_InitAuxPll")
    1069                      .dwattr $C$DW$43, DW_AT_external
    1070                      .dwattr $C$DW$43, DW_AT_TI_begin_file("C:/ti/controlSUITE/device_support/F2837xD/v170/F2837xD_common/
    1071                      .dwattr $C$DW$43, DW_AT_TI_begin_line(0x198)
    1072                      .dwattr $C$DW$43, DW_AT_TI_begin_column(0x06)
    1073                      .dwattr $C$DW$43, DW_AT_TI_max_frame_size(-8)
    1074                      .dwpsn  file "C:/ti/controlSUITE/device_support/F2837xD/v170/F2837xD_common/source/F2837xD_SysCtrl.c"
    1075              
    1076                      .dwfde $C$DW$CIE, _InitAuxPll
    1077              $C$DW$44        .dwtag  DW_TAG_formal_parameter
    1078                      .dwattr $C$DW$44, DW_AT_name("clock_source")
    1079                      .dwattr $C$DW$44, DW_AT_TI_symbol_name("_clock_source")
    1080                      .dwattr $C$DW$44, DW_AT_type(*$C$DW$T$19)
TMS320C2000 Assembler PC v15.12.1 Sun Feb 26 22:53:28 2017

Tools Copyright (c) 1996-2015 Texas Instruments Incorporated
F2837xD_SysCtrl.asm                                                  PAGE   23

    1081                      .dwattr $C$DW$44, DW_AT_location[DW_OP_reg0]
    1082              
    1083              $C$DW$45        .dwtag  DW_TAG_formal_parameter
    1084                      .dwattr $C$DW$45, DW_AT_name("imult")
    1085                      .dwattr $C$DW$45, DW_AT_TI_symbol_name("_imult")
    1086                      .dwattr $C$DW$45, DW_AT_type(*$C$DW$T$19)
    1087                      .dwattr $C$DW$45, DW_AT_location[DW_OP_reg1]
    1088              
    1089              $C$DW$46        .dwtag  DW_TAG_formal_parameter
    1090                      .dwattr $C$DW$46, DW_AT_name("fmult")
    1091                      .dwattr $C$DW$46, DW_AT_TI_symbol_name("_fmult")
    1092                      .dwattr $C$DW$46, DW_AT_type(*$C$DW$T$19)
    1093                      .dwattr $C$DW$46, DW_AT_location[DW_OP_reg12]
    1094              
    1095              $C$DW$47        .dwtag  DW_TAG_formal_parameter
    1096                      .dwattr $C$DW$47, DW_AT_name("divsel")
    1097                      .dwattr $C$DW$47, DW_AT_TI_symbol_name("_divsel")
    1098                      .dwattr $C$DW$47, DW_AT_type(*$C$DW$T$19)
    1099                      .dwattr $C$DW$47, DW_AT_location[DW_OP_reg14]
    1100              
    1101              
    1102              ;***************************************************************
    1103              ;* FNAME: _InitAuxPll                   FR SIZE:   6           *
    1104              ;*                                                             *
    1105              ;* FUNCTION ENVIRONMENT                                        *
    1106              ;*                                                             *
    1107              ;* FUNCTION PROPERTIES                                         *
    1108              ;*                            0 Parameter,  0 Auto,  6 SOE     *
    1109              ;***************************************************************
    1110              
    1111              _InitAuxPll:
    1112              ;* AR2   assigned to $O$C1
    1113              ;* AR4   assigned to $O$C2
    1114              ;* AR6   assigned to $O$C3
    1115              ;* AR7   assigned to _clock_source
    1116              $C$DW$48        .dwtag  DW_TAG_variable
    1117                      .dwattr $C$DW$48, DW_AT_name("clock_source")
    1118                      .dwattr $C$DW$48, DW_AT_TI_symbol_name("_clock_source")
    1119                      .dwattr $C$DW$48, DW_AT_type(*$C$DW$T$385)
    1120                      .dwattr $C$DW$48, DW_AT_location[DW_OP_reg18]
    1121              
    1122              ;* AR2   assigned to _imult
    1123              $C$DW$49        .dwtag  DW_TAG_variable
    1124                      .dwattr $C$DW$49, DW_AT_name("imult")
    1125                      .dwattr $C$DW$49, DW_AT_TI_symbol_name("_imult")
    1126                      .dwattr $C$DW$49, DW_AT_type(*$C$DW$T$385)
    1127                      .dwattr $C$DW$49, DW_AT_location[DW_OP_reg8]
    1128              
    1129              ;* AR3   assigned to _fmult
    1130              $C$DW$50        .dwtag  DW_TAG_variable
    1131                      .dwattr $C$DW$50, DW_AT_name("fmult")
    1132                      .dwattr $C$DW$50, DW_AT_TI_symbol_name("_fmult")
    1133                      .dwattr $C$DW$50, DW_AT_type(*$C$DW$T$385)
    1134                      .dwattr $C$DW$50, DW_AT_location[DW_OP_reg10]
    1135              
TMS320C2000 Assembler PC v15.12.1 Sun Feb 26 22:53:28 2017

Tools Copyright (c) 1996-2015 Texas Instruments Incorporated
F2837xD_SysCtrl.asm                                                  PAGE   24

    1136              ;* AR1   assigned to _divsel
    1137              $C$DW$51        .dwtag  DW_TAG_variable
    1138                      .dwattr $C$DW$51, DW_AT_name("divsel")
    1139                      .dwattr $C$DW$51, DW_AT_TI_symbol_name("_divsel")
    1140                      .dwattr $C$DW$51, DW_AT_type(*$C$DW$T$385)
    1141                      .dwattr $C$DW$51, DW_AT_location[DW_OP_reg6]
    1142              
    1143                      .dwcfi  cfa_offset, -2
    1144                      .dwcfi  save_reg_to_mem, 26, 0
    1145 000001aa B2BD          MOVL      *SP++,XAR1            ; [CPU_] 
    1146                      .dwcfi  save_reg_to_mem, 7, 2
    1147                      .dwcfi  cfa_offset, -4
    1148 000001ab 80A9          MOVZ      AR7,AL                ; [CPU_] |409| 
    1149                      .dwpsn  file "C:/ti/controlSUITE/device_support/F2837xD/v170/F2837xD_common/source/F2837xD_SysCtrl.c"
    1150 000001ac D00A          MOVB      XAR0,#10              ; [CPU_] |412| 
    1151 000001ad 7680!         MOVL      XAR6,#_ClkCfgRegs     ; [CPU_U] |412| 
         000001ae 0000 
    1152 000001af AABD          MOVL      *SP++,XAR2            ; [CPU_] 
    1153                      .dwcfi  save_reg_to_mem, 9, 4
    1154                      .dwcfi  cfa_offset, -6
    1155 000001b0 2BAA          MOV       PH,#0                 ; [CPU_] |412| 
    1156 000001b1 27A7          MOV       PL,AR7                ; [CPU_] |412| 
    1157                      .dwpsn  file "C:/ti/controlSUITE/device_support/F2837xD/v170/F2837xD_common/source/F2837xD_SysCtrl.c"
    1158 000001b2 5AA8          MOVZ      AR2,AH                ; [CPU_] |409| 
    1159 000001b3 59A5          MOVZ      AR1,AR5               ; [CPU_] |409| 
    1160 000001b4 A2BD          MOVL      *SP++,XAR3            ; [CPU_] 
    1161                      .dwcfi  save_reg_to_mem, 11, 6
    1162                      .dwcfi  cfa_offset, -8
    1163 000001b5 5BA4          MOVZ      AR3,AR4               ; [CPU_] |409| 
    1164                      .dwpsn  file "C:/ti/controlSUITE/device_support/F2837xD/v170/F2837xD_common/source/F2837xD_SysCtrl.c"
    1165 000001b6 9296          MOV       AL,*+XAR6[AR0]        ; [CPU_] |412| 
    1166 000001b7 9003          ANDB      AL,#0x03              ; [CPU_] |412| 
    1167 000001b8 0EA9          MOVU      ACC,AL                ; [CPU_] |412| 
    1168 000001b9 0FAB          CMPL      ACC,P                 ; [CPU_] |412| 
    1169 000001ba 6018          B         $C$L13,NEQ            ; [CPU_] |412| 
    1170                      ; branchcc occurs ; [] |412| 
    1171 000001bb D01E          MOVB      XAR0,#30              ; [CPU_] |412| 
    1172 000001bc 9396          MOV       AH,*+XAR6[AR0]        ; [CPU_] |412| 
    1173 000001bd 27A2          MOV       PL,AR2                ; [CPU_] |412| 
    1174 000001be 917F          ANDB      AH,#0x7f              ; [CPU_] |412| 
    1175 000001bf 0EA8          MOVU      ACC,AH                ; [CPU_] |412| 
    1176 000001c0 0FAB          CMPL      ACC,P                 ; [CPU_] |412| 
    1177 000001c1 6011          B         $C$L13,NEQ            ; [CPU_] |412| 
    1178                      ; branchcc occurs ; [] |412| 
    1179 000001c2 761F!         MOVW      DP,#_ClkCfgRegs+30    ; [CPU_U] 
         000001c3 0000 
    1180 000001c4 CD1E!         AND       AH,@_ClkCfgRegs+30,#0x0300 ; [CPU_] |412| 
         000001c5 0300 
    1181 000001c6 27A3          MOV       PL,AR3                ; [CPU_] |412| 
    1182 000001c7 FFD7          LSR       AH,8                  ; [CPU_] |412| 
    1183 000001c8 0EA8          MOVU      ACC,AH                ; [CPU_] |412| 
    1184 000001c9 0FAB          CMPL      ACC,P                 ; [CPU_] |412| 
    1185 000001ca 6008          B         $C$L13,NEQ            ; [CPU_] |412| 
    1186                      ; branchcc occurs ; [] |412| 
    1187 000001cb D024          MOVB      XAR0,#36              ; [CPU_] |412| 
TMS320C2000 Assembler PC v15.12.1 Sun Feb 26 22:53:28 2017

Tools Copyright (c) 1996-2015 Texas Instruments Incorporated
F2837xD_SysCtrl.asm                                                  PAGE   25

    1188 000001cc 9396          MOV       AH,*+XAR6[AR0]        ; [CPU_] |412| 
    1189 000001cd 88A1          MOVZ      AR6,AR1               ; [CPU_] |412| 
    1190 000001ce 9103          ANDB      AH,#0x03              ; [CPU_] |412| 
    1191 000001cf 0EA8          MOVU      ACC,AH                ; [CPU_] |412| 
    1192 000001d0 0FA6          CMPL      ACC,XAR6              ; [CPU_] |412| 
    1193 000001d1 6169          B         $C$L23,EQ             ; [CPU_] |412| 
    1194                      ; branchcc occurs ; [] |412| 
    1195 000001d2       $C$L13:    
    1196                      .dwpsn  file "C:/ti/controlSUITE/device_support/F2837xD/v170/F2837xD_common/source/F2837xD_SysCtrl.c"
    1197 000001d2 92A7          MOV       AL,AR7                ; [CPU_] |421| 
    1198 000001d3 610B          B         $C$L15,EQ             ; [CPU_] |421| 
    1199                      ; branchcc occurs ; [] |421| 
    1200 000001d4 5201          CMPB      AL,#1                 ; [CPU_] |421| 
    1201 000001d5 6106          B         $C$L14,EQ             ; [CPU_] |421| 
    1202                      ; branchcc occurs ; [] |421| 
    1203 000001d6 5204          CMPB      AL,#4                 ; [CPU_] |421| 
    1204 000001d7 6009          B         $C$L16,NEQ            ; [CPU_] |421| 
    1205                      ; branchcc occurs ; [] |421| 
    1206                      .dwpsn  file "C:/ti/controlSUITE/device_support/F2837xD/v170/F2837xD_common/source/F2837xD_SysCtrl.c"
    1207              $C$DW$52        .dwtag  DW_TAG_TI_branch
    1208                      .dwattr $C$DW$52, DW_AT_low_pc(0x00)
    1209                      .dwattr $C$DW$52, DW_AT_name("_AuxAuxClkSel")
    1210                      .dwattr $C$DW$52, DW_AT_TI_call
    1211              
    1212 000001d8 7640'         LCR       #_AuxAuxClkSel        ; [CPU_] |433| 
         000001d9 029E 
    1213                      ; call occurs [#_AuxAuxClkSel] ; [] |433| 
    1214                      .dwpsn  file "C:/ti/controlSUITE/device_support/F2837xD/v170/F2837xD_common/source/F2837xD_SysCtrl.c"
    1215 000001da 6F06          B         $C$L16,UNC            ; [CPU_] |434| 
    1216                      ; branch occurs ; [] |434| 
    1217 000001db       $C$L14:    
    1218                      .dwpsn  file "C:/ti/controlSUITE/device_support/F2837xD/v170/F2837xD_common/source/F2837xD_SysCtrl.c"
    1219              $C$DW$53        .dwtag  DW_TAG_TI_branch
    1220                      .dwattr $C$DW$53, DW_AT_low_pc(0x00)
    1221                      .dwattr $C$DW$53, DW_AT_name("_AuxXtalOscSel")
    1222                      .dwattr $C$DW$53, DW_AT_TI_call
    1223              
    1224 000001db 7640'         LCR       #_AuxXtalOscSel       ; [CPU_] |429| 
         000001dc 028D 
    1225                      ; call occurs [#_AuxXtalOscSel] ; [] |429| 
    1226                      .dwpsn  file "C:/ti/controlSUITE/device_support/F2837xD/v170/F2837xD_common/source/F2837xD_SysCtrl.c"
    1227 000001dd 6F03          B         $C$L16,UNC            ; [CPU_] |430| 
    1228                      ; branch occurs ; [] |430| 
    1229 000001de       $C$L15:    
    1230                      .dwpsn  file "C:/ti/controlSUITE/device_support/F2837xD/v170/F2837xD_common/source/F2837xD_SysCtrl.c"
    1231              $C$DW$54        .dwtag  DW_TAG_TI_branch
    1232                      .dwattr $C$DW$54, DW_AT_low_pc(0x00)
    1233                      .dwattr $C$DW$54, DW_AT_name("_AuxIntOsc2Sel")
    1234                      .dwattr $C$DW$54, DW_AT_TI_call
    1235              
    1236 000001de 7640'         LCR       #_AuxIntOsc2Sel       ; [CPU_] |425| 
         000001df 0280 
    1237                      ; call occurs [#_AuxIntOsc2Sel] ; [] |425| 
    1238 000001e0       $C$L16:    
    1239                      .dwpsn  file "C:/ti/controlSUITE/device_support/F2837xD/v170/F2837xD_common/source/F2837xD_SysCtrl.c"
TMS320C2000 Assembler PC v15.12.1 Sun Feb 26 22:53:28 2017

Tools Copyright (c) 1996-2015 Texas Instruments Incorporated
F2837xD_SysCtrl.asm                                                  PAGE   26

    1240 000001e0 0EA2          MOVU      ACC,AR2               ; [CPU_] |439| 
    1241 000001e1 761F!         MOVW      DP,#_ClkCfgRegs+30    ; [CPU_U] 
         000001e2 0000 
    1242 000001e3 1EA6          MOVL      XAR6,ACC              ; [CPU_] |439| 
    1243 000001e4 921E!         MOV       AL,@_ClkCfgRegs+30    ; [CPU_] |439| 
    1244 000001e5 907F          ANDB      AL,#0x7f              ; [CPU_] |439| 
    1245 000001e6 80A9          MOVZ      AR7,AL                ; [CPU_] |439| 
    1246 000001e7 06A6          MOVL      ACC,XAR6              ; [CPU_] |439| 
    1247 000001e8 0FA7          CMPL      ACC,XAR7              ; [CPU_] |439| 
    1248 000001e9 600A          B         $C$L17,NEQ            ; [CPU_] |439| 
    1249                      ; branchcc occurs ; [] |439| 
    1250 000001ea 0EA3          MOVU      ACC,AR3               ; [CPU_] |439| 
    1251 000001eb 1EA6          MOVL      XAR6,ACC              ; [CPU_] |439| 
    1252 000001ec CC1E!         AND       AL,@_ClkCfgRegs+30,#0x0300 ; [CPU_] |439| 
         000001ed 0300 
    1253 000001ee FFC7          LSR       AL,8                  ; [CPU_] |439| 
    1254 000001ef 80A9          MOVZ      AR7,AL                ; [CPU_] |439| 
    1255 000001f0 06A6          MOVL      ACC,XAR6              ; [CPU_] |439| 
    1256 000001f1 0FA7          CMPL      ACC,XAR7              ; [CPU_] |439| 
    1257 000001f2 6122          B         $C$L20,EQ             ; [CPU_] |439| 
    1258                      ; branchcc occurs ; [] |439| 
    1259 000001f3       $C$L17:    
    1260 000001f3 7622   EALLOW
    1261                      .dwpsn  file "C:/ti/controlSUITE/device_support/F2837xD/v170/F2837xD_common/source/F2837xD_SysCtrl.c"
    1262 000001f4 8F00!         MOVL      XAR4,#_ClkCfgRegs     ; [CPU_U] |442| 
         000001f5 0000 
    1263                      .dwpsn  file "C:/ti/controlSUITE/device_support/F2837xD/v170/F2837xD_common/source/F2837xD_SysCtrl.c"
    1264 000001f6 5603          MOV       ACC,AR3 << #8         ; [CPU_] |446| 
         000001f7 08A3 
    1265                      .dwpsn  file "C:/ti/controlSUITE/device_support/F2837xD/v170/F2837xD_common/source/F2837xD_SysCtrl.c"
    1266 000001f8 83A4          MOVL      XAR5,XAR4             ; [CPU_] |442| 
    1267                      .dwpsn  file "C:/ti/controlSUITE/device_support/F2837xD/v170/F2837xD_common/source/F2837xD_SysCtrl.c"
    1268 000001f9 CAA2          OR        AL,AR2                ; [CPU_] |446| 
    1269 000001fa 88A9          MOVZ      AR6,AL                ; [CPU_] |446| 
    1270                      .dwpsn  file "C:/ti/controlSUITE/device_support/F2837xD/v170/F2837xD_common/source/F2837xD_SysCtrl.c"
    1271 000001fb DC18          ADDB      XAR4,#24              ; [CPU_] |449| 
    1272                      .dwpsn  file "C:/ti/controlSUITE/device_support/F2837xD/v170/F2837xD_common/source/F2837xD_SysCtrl.c"
    1273 000001fc DD24          ADDB      XAR5,#36              ; [CPU_] |442| 
    1274 000001fd 1AC5          OR        *+XAR5[0],#0x0003     ; [CPU_] |442| 
         000001fe 0003 
    1275                      .dwpsn  file "C:/ti/controlSUITE/device_support/F2837xD/v170/F2837xD_common/source/F2837xD_SysCtrl.c"
    1276 000001ff 061E!         MOVL      ACC,@_ClkCfgRegs+30   ; [CPU_] |445| 
    1277                      .dwpsn  file "C:/ti/controlSUITE/device_support/F2837xD/v170/F2837xD_common/source/F2837xD_SysCtrl.c"
    1278 00000200 9B00          MOVB      AH,#0                 ; [CPU_] |446| 
    1279 00000201 18A9          AND       AL,#0xfc80            ; [CPU_] |446| 
         00000202 FC80 
    1280 00000203 AFA6          OR        ACC,AR6               ; [CPU_] |446| 
    1281 00000204 1E1E!         MOVL      @_ClkCfgRegs+30,ACC   ; [CPU_] |446| 
    1282                      .dwpsn  file "C:/ti/controlSUITE/device_support/F2837xD/v170/F2837xD_common/source/F2837xD_SysCtrl.c"
    1283 00000205 1AC4          OR        *+XAR4[0],#0x0001     ; [CPU_] |449| 
         00000206 0001 
    1284 00000207 761A   EDIS
    1285 00000208       $C$L18:    
    1286                      .dwpsn  file "C:/ti/controlSUITE/device_support/F2837xD/v170/F2837xD_common/source/F2837xD_SysCtrl.c"
    1287 00000208 4020!         TBIT      @_ClkCfgRegs+32,#0    ; [CPU_] |453| 
TMS320C2000 Assembler PC v15.12.1 Sun Feb 26 22:53:28 2017

Tools Copyright (c) 1996-2015 Texas Instruments Incorporated
F2837xD_SysCtrl.asm                                                  PAGE   27

    1288 00000209 6CFF          B         $C$L18,NTC            ; [CPU_] |453| 
    1289                      ; branchcc occurs ; [] |453| 
    1290 0000020a 7622   EALLOW
    1291                      .dwpsn  file "C:/ti/controlSUITE/device_support/F2837xD/v170/F2837xD_common/source/F2837xD_SysCtrl.c"
    1292 0000020b CD1E!         AND       AH,@_ClkCfgRegs+30,#0xff80 ; [CPU_] |462| 
         0000020c FF80 
    1293 0000020d CCA2          AND       AL,AR2,#0x007f        ; [CPU_] |462| 
         0000020e 007F 
    1294 0000020f CAA8          OR        AL,AH                 ; [CPU_] |462| 
    1295 00000210 961E!         MOV       @_ClkCfgRegs+30,AL    ; [CPU_] |462| 
    1296 00000211 761A   EDIS
    1297 00000212       $C$L19:    
    1298                      .dwpsn  file "C:/ti/controlSUITE/device_support/F2837xD/v170/F2837xD_common/source/F2837xD_SysCtrl.c"
    1299 00000212 4020!         TBIT      @_ClkCfgRegs+32,#0    ; [CPU_] |466| 
    1300 00000213 6CFF          B         $C$L19,NTC            ; [CPU_] |466| 
    1301                      ; branchcc occurs ; [] |466| 
    1302 00000214       $C$L20:    
    1303                      .dwpsn  file "C:/ti/controlSUITE/device_support/F2837xD/v170/F2837xD_common/source/F2837xD_SysCtrl.c"
    1304 00000214 D203          MOVB      XAR2,#3               ; [CPU_] |474| 
    1305                      .dwpsn  file "C:/ti/controlSUITE/device_support/F2837xD/v170/F2837xD_common/source/F2837xD_SysCtrl.c"
    1306 00000215 6F17          B         $C$L22,UNC            ; [CPU_] |475| 
    1307                      ; branch occurs ; [] |475| 
    1308 00000216       $C$L21:    
    1309 00000216 7622   EALLOW
    1310                      .dwpsn  file "C:/ti/controlSUITE/device_support/F2837xD/v170/F2837xD_common/source/F2837xD_SysCtrl.c"
    1311 00000217 DA81          SUBB      XAR2,#1               ; [CPU_U] |478| 
    1312 00000218 CD24!         AND       AH,@_ClkCfgRegs+36,#0xfffc ; [CPU_] |478| 
         00000219 FFFC 
    1313 0000021a CCA2          AND       AL,AR2,#0x0003        ; [CPU_] |478| 
         0000021b 0003 
    1314 0000021c CAA8          OR        AL,AH                 ; [CPU_] |478| 
    1315 0000021d 9624!         MOV       @_ClkCfgRegs+36,AL    ; [CPU_] |478| 
    1316 0000021e 761A   EDIS
    1317                      .dwpsn  file "C:/ti/controlSUITE/device_support/F2837xD/v170/F2837xD_common/source/F2837xD_SysCtrl.c"
    1318 0000021f 88A1          MOVZ      AR6,AR1               ; [CPU_] |482| 
    1319 00000220 9224!         MOV       AL,@_ClkCfgRegs+36    ; [CPU_] |482| 
    1320 00000221 9003          ANDB      AL,#0x03              ; [CPU_] |482| 
    1321 00000222 80A9          MOVZ      AR7,AL                ; [CPU_] |482| 
    1322                      .dwpsn  file "C:/ti/controlSUITE/device_support/F2837xD/v170/F2837xD_common/source/F2837xD_SysCtrl.c"
    1323 00000223 06A6          MOVL      ACC,XAR6              ; [CPU_] |481| 
    1324                      .dwpsn  file "C:/ti/controlSUITE/device_support/F2837xD/v170/F2837xD_common/source/F2837xD_SysCtrl.c"
    1325 00000224 0FA7          CMPL      ACC,XAR7              ; [CPU_] |482| 
    1326 00000225 6107          B         $C$L22,EQ             ; [CPU_] |482| 
    1327                      ; branchcc occurs ; [] |482| 
    1328                      .dwpsn  file "C:/ti/controlSUITE/device_support/F2837xD/v170/F2837xD_common/source/F2837xD_SysCtrl.c"
    1329 00000226 8F00          MOVL      XAR4,#598             ; [CPU_U] |484| 
         00000227 0256 
    1330 00000228 FF69          SPM       #0                    ; [CPU_] 
    1331 00000229 A8A9          MOVL      ACC,XAR4              ; [CPU_] |484| 
    1332              $C$DW$55        .dwtag  DW_TAG_TI_branch
    1333                      .dwattr $C$DW$55, DW_AT_low_pc(0x00)
    1334                      .dwattr $C$DW$55, DW_AT_name("_F28x_usDelay")
    1335                      .dwattr $C$DW$55, DW_AT_TI_call
    1336              
    1337 0000022a 7640!         LCR       #_F28x_usDelay        ; [CPU_] |484| 
TMS320C2000 Assembler PC v15.12.1 Sun Feb 26 22:53:28 2017

Tools Copyright (c) 1996-2015 Texas Instruments Incorporated
F2837xD_SysCtrl.asm                                                  PAGE   28

         0000022b 0000 
    1338                      ; call occurs [#_F28x_usDelay] ; [] |484| 
    1339 0000022c       $C$L22:    
    1340                      .dwpsn  file "C:/ti/controlSUITE/device_support/F2837xD/v170/F2837xD_common/source/F2837xD_SysCtrl.c"
    1341 0000022c 0EA1          MOVU      ACC,AR1               ; [CPU_] |475| 
    1342 0000022d 761F!         MOVW      DP,#_ClkCfgRegs+36    ; [CPU_U] 
         0000022e 0000 
    1343 0000022f 1EA6          MOVL      XAR6,ACC              ; [CPU_] |475| 
    1344 00000230 9224!         MOV       AL,@_ClkCfgRegs+36    ; [CPU_] |475| 
    1345 00000231 9003          ANDB      AL,#0x03              ; [CPU_] |475| 
    1346 00000232 80A9          MOVZ      AR7,AL                ; [CPU_] |475| 
    1347 00000233 06A6          MOVL      ACC,XAR6              ; [CPU_] |475| 
    1348 00000234 0FA7          CMPL      ACC,XAR7              ; [CPU_] |475| 
    1349 00000235 60E1          B         $C$L21,NEQ            ; [CPU_] |475| 
    1350                      ; branchcc occurs ; [] |475| 
    1351 00000236 7622   EALLOW
    1352                      .dwpsn  file "C:/ti/controlSUITE/device_support/F2837xD/v170/F2837xD_common/source/F2837xD_SysCtrl.c"
    1353 00000237 1A18!         OR        @_ClkCfgRegs+24,#0x0002 ; [CPU_] |489| 
         00000238 0002 
    1354 00000239 761A   EDIS
    1355 0000023a       $C$L23:    
    1356 0000023a 82BE          MOVL      XAR3,*--SP            ; [CPU_] 
    1357                      .dwcfi  cfa_offset, -6
    1358                      .dwcfi  restore_reg, 11
    1359 0000023b FF69          SPM       #0                    ; [CPU_] 
    1360 0000023c 86BE          MOVL      XAR2,*--SP            ; [CPU_] 
    1361                      .dwcfi  cfa_offset, -4
    1362                      .dwcfi  restore_reg, 9
    1363 0000023d 8BBE          MOVL      XAR1,*--SP            ; [CPU_] 
    1364                      .dwcfi  cfa_offset, -2
    1365                      .dwcfi  restore_reg, 7
    1366              $C$DW$56        .dwtag  DW_TAG_TI_branch
    1367                      .dwattr $C$DW$56, DW_AT_low_pc(0x00)
    1368                      .dwattr $C$DW$56, DW_AT_TI_return
    1369              
    1370 0000023e 0006          LRETR     ; [CPU_] 
    1371                      ; return occurs ; [] 
    1372                      .dwattr $C$DW$43, DW_AT_TI_end_file("C:/ti/controlSUITE/device_support/F2837xD/v170/F2837xD_common/so
    1373                      .dwattr $C$DW$43, DW_AT_TI_end_line(0x1eb)
    1374                      .dwattr $C$DW$43, DW_AT_TI_end_column(0x01)
    1375                      .dwendentry
    1376                      .dwendtag $C$DW$43
    1377              
    1378 0000023f               .sect   ".text"
    1379                      .clink
    1380                      .global _CsmUnlock
    1381              
    1382              $C$DW$57        .dwtag  DW_TAG_subprogram
    1383                      .dwattr $C$DW$57, DW_AT_name("CsmUnlock")
    1384                      .dwattr $C$DW$57, DW_AT_low_pc(_CsmUnlock)
    1385                      .dwattr $C$DW$57, DW_AT_high_pc(0x00)
    1386                      .dwattr $C$DW$57, DW_AT_TI_symbol_name("_CsmUnlock")
    1387                      .dwattr $C$DW$57, DW_AT_external
    1388                      .dwattr $C$DW$57, DW_AT_type(*$C$DW$T$19)
    1389                      .dwattr $C$DW$57, DW_AT_TI_begin_file("C:/ti/controlSUITE/device_support/F2837xD/v170/F2837xD_common/
TMS320C2000 Assembler PC v15.12.1 Sun Feb 26 22:53:28 2017

Tools Copyright (c) 1996-2015 Texas Instruments Incorporated
F2837xD_SysCtrl.asm                                                  PAGE   29

    1390                      .dwattr $C$DW$57, DW_AT_TI_begin_line(0x1f6)
    1391                      .dwattr $C$DW$57, DW_AT_TI_begin_column(0x08)
    1392                      .dwattr $C$DW$57, DW_AT_TI_max_frame_size(-2)
    1393                      .dwpsn  file "C:/ti/controlSUITE/device_support/F2837xD/v170/F2837xD_common/source/F2837xD_SysCtrl.c"
    1394              
    1395                      .dwfde $C$DW$CIE, _CsmUnlock
    1396              
    1397              ;***************************************************************
    1398              ;* FNAME: _CsmUnlock                    FR SIZE:   0           *
    1399              ;*                                                             *
    1400              ;* FUNCTION ENVIRONMENT                                        *
    1401              ;*                                                             *
    1402              ;* FUNCTION PROPERTIES                                         *
    1403              ;*                            0 Parameter,  0 Auto,  0 SOE     *
    1404              ;***************************************************************
    1405              
    1406 0000023f       _CsmUnlock:
    1407                      .dwcfi  cfa_offset, -2
    1408                      .dwcfi  save_reg_to_mem, 26, 0
    1409 0000023f 7622   EALLOW
    1410                      .dwpsn  file "C:/ti/controlSUITE/device_support/F2837xD/v170/F2837xD_common/source/F2837xD_SysCtrl.c"
    1411 00000240 0200          MOVB      ACC,#0                ; [CPU_] |519| 
    1412 00000241 761F!         MOVW      DP,#_DcsmZ1Regs+16    ; [CPU_U] 
         00000242 0000 
    1413 00000243 1901          SUBB      ACC,#1                ; [CPU_] |519| 
    1414 00000244 1E10!         MOVL      @_DcsmZ1Regs+16,ACC   ; [CPU_] |519| 
    1415                      .dwpsn  file "C:/ti/controlSUITE/device_support/F2837xD/v170/F2837xD_common/source/F2837xD_SysCtrl.c"
    1416 00000245 0200          MOVB      ACC,#0                ; [CPU_] |520| 
    1417 00000246 1901          SUBB      ACC,#1                ; [CPU_] |520| 
    1418 00000247 1E12!         MOVL      @_DcsmZ1Regs+18,ACC   ; [CPU_] |520| 
    1419                      .dwpsn  file "C:/ti/controlSUITE/device_support/F2837xD/v170/F2837xD_common/source/F2837xD_SysCtrl.c"
    1420 00000248 0200          MOVB      ACC,#0                ; [CPU_] |521| 
    1421 00000249 1901          SUBB      ACC,#1                ; [CPU_] |521| 
    1422 0000024a 1E14!         MOVL      @_DcsmZ1Regs+20,ACC   ; [CPU_] |521| 
    1423                      .dwpsn  file "C:/ti/controlSUITE/device_support/F2837xD/v170/F2837xD_common/source/F2837xD_SysCtrl.c"
    1424 0000024b 0200          MOVB      ACC,#0                ; [CPU_] |522| 
    1425 0000024c 1901          SUBB      ACC,#1                ; [CPU_] |522| 
    1426 0000024d 1E16!         MOVL      @_DcsmZ1Regs+22,ACC   ; [CPU_] |522| 
    1427                      .dwpsn  file "C:/ti/controlSUITE/device_support/F2837xD/v170/F2837xD_common/source/F2837xD_SysCtrl.c"
    1428 0000024e 0200          MOVB      ACC,#0                ; [CPU_] |524| 
    1429 0000024f 761F!         MOVW      DP,#_DcsmZ2Regs+16    ; [CPU_U] 
         00000250 0000 
    1430 00000251 1901          SUBB      ACC,#1                ; [CPU_] |524| 
    1431 00000252 1E10!         MOVL      @_DcsmZ2Regs+16,ACC   ; [CPU_] |524| 
    1432                      .dwpsn  file "C:/ti/controlSUITE/device_support/F2837xD/v170/F2837xD_common/source/F2837xD_SysCtrl.c"
    1433 00000253 0200          MOVB      ACC,#0                ; [CPU_] |525| 
    1434 00000254 1901          SUBB      ACC,#1                ; [CPU_] |525| 
    1435 00000255 1E12!         MOVL      @_DcsmZ2Regs+18,ACC   ; [CPU_] |525| 
    1436                      .dwpsn  file "C:/ti/controlSUITE/device_support/F2837xD/v170/F2837xD_common/source/F2837xD_SysCtrl.c"
    1437 00000256 0200          MOVB      ACC,#0                ; [CPU_] |526| 
    1438 00000257 1901          SUBB      ACC,#1                ; [CPU_] |526| 
    1439 00000258 1E14!         MOVL      @_DcsmZ2Regs+20,ACC   ; [CPU_] |526| 
    1440                      .dwpsn  file "C:/ti/controlSUITE/device_support/F2837xD/v170/F2837xD_common/source/F2837xD_SysCtrl.c"
    1441 00000259 0200          MOVB      ACC,#0                ; [CPU_] |527| 
    1442 0000025a 1901          SUBB      ACC,#1                ; [CPU_] |527| 
TMS320C2000 Assembler PC v15.12.1 Sun Feb 26 22:53:28 2017

Tools Copyright (c) 1996-2015 Texas Instruments Incorporated
F2837xD_SysCtrl.asm                                                  PAGE   30

    1443 0000025b 1E16!         MOVL      @_DcsmZ2Regs+22,ACC   ; [CPU_] |527| 
    1444 0000025c 761A   EDIS
    1445 0000025d FF69          SPM       #0                    ; [CPU_] 
    1446                      .dwpsn  file "C:/ti/controlSUITE/device_support/F2837xD/v170/F2837xD_common/source/F2837xD_SysCtrl.c"
    1447 0000025e 9A00          MOVB      AL,#0                 ; [CPU_] |547| 
    1448              $C$DW$58        .dwtag  DW_TAG_TI_branch
    1449                      .dwattr $C$DW$58, DW_AT_low_pc(0x00)
    1450                      .dwattr $C$DW$58, DW_AT_TI_return
    1451              
    1452 0000025f 0006          LRETR     ; [CPU_] 
    1453                      ; return occurs ; [] 
    1454                      .dwattr $C$DW$57, DW_AT_TI_end_file("C:/ti/controlSUITE/device_support/F2837xD/v170/F2837xD_common/so
    1455                      .dwattr $C$DW$57, DW_AT_TI_end_line(0x225)
    1456                      .dwattr $C$DW$57, DW_AT_TI_end_column(0x01)
    1457                      .dwendentry
    1458                      .dwendtag $C$DW$57
    1459              
    1460 00000260               .sect   ".text"
    1461                      .clink
    1462                      .global _SysIntOsc1Sel
    1463              
    1464              $C$DW$59        .dwtag  DW_TAG_subprogram
    1465                      .dwattr $C$DW$59, DW_AT_name("SysIntOsc1Sel")
    1466                      .dwattr $C$DW$59, DW_AT_low_pc(_SysIntOsc1Sel)
    1467                      .dwattr $C$DW$59, DW_AT_high_pc(0x00)
    1468                      .dwattr $C$DW$59, DW_AT_TI_symbol_name("_SysIntOsc1Sel")
    1469                      .dwattr $C$DW$59, DW_AT_external
    1470                      .dwattr $C$DW$59, DW_AT_TI_begin_file("C:/ti/controlSUITE/device_support/F2837xD/v170/F2837xD_common/
    1471                      .dwattr $C$DW$59, DW_AT_TI_begin_line(0x22d)
    1472                      .dwattr $C$DW$59, DW_AT_TI_begin_column(0x06)
    1473                      .dwattr $C$DW$59, DW_AT_TI_max_frame_size(-2)
    1474                      .dwpsn  file "C:/ti/controlSUITE/device_support/F2837xD/v170/F2837xD_common/source/F2837xD_SysCtrl.c"
    1475              
    1476                      .dwfde $C$DW$CIE, _SysIntOsc1Sel
    1477              
    1478              ;***************************************************************
    1479              ;* FNAME: _SysIntOsc1Sel                FR SIZE:   0           *
    1480              ;*                                                             *
    1481              ;* FUNCTION ENVIRONMENT                                        *
    1482              ;*                                                             *
    1483              ;* FUNCTION PROPERTIES                                         *
    1484              ;*                            0 Parameter,  0 Auto,  0 SOE     *
    1485              ;***************************************************************
    1486              
    1487 00000260       _SysIntOsc1Sel:
    1488                      .dwcfi  cfa_offset, -2
    1489                      .dwcfi  save_reg_to_mem, 26, 0
    1490 00000260 7622   EALLOW
    1491 00000261 761F!         MOVW      DP,#_ClkCfgRegs+8     ; [CPU_U] 
         00000262 0000 
    1492                      .dwpsn  file "C:/ti/controlSUITE/device_support/F2837xD/v170/F2837xD_common/source/F2837xD_SysCtrl.c"
    1493 00000263 CC08!         AND       AL,@_ClkCfgRegs+8,#0xfffe ; [CPU_] |559| 
         00000264 FFFE 
    1494 00000265 5002          ORB       AL,#0x02              ; [CPU_] |559| 
    1495 00000266 9608!         MOV       @_ClkCfgRegs+8,AL     ; [CPU_] |559| 
TMS320C2000 Assembler PC v15.12.1 Sun Feb 26 22:53:28 2017

Tools Copyright (c) 1996-2015 Texas Instruments Incorporated
F2837xD_SysCtrl.asm                                                  PAGE   31

    1496 00000267 761A   EDIS
    1497 00000268 FF69          SPM       #0                    ; [CPU_] 
    1498              $C$DW$60        .dwtag  DW_TAG_TI_branch
    1499                      .dwattr $C$DW$60, DW_AT_low_pc(0x00)
    1500                      .dwattr $C$DW$60, DW_AT_TI_return
    1501              
    1502 00000269 0006          LRETR     ; [CPU_] 
    1503                      ; return occurs ; [] 
    1504                      .dwattr $C$DW$59, DW_AT_TI_end_file("C:/ti/controlSUITE/device_support/F2837xD/v170/F2837xD_common/so
    1505                      .dwattr $C$DW$59, DW_AT_TI_end_line(0x231)
    1506                      .dwattr $C$DW$59, DW_AT_TI_end_column(0x01)
    1507                      .dwendentry
    1508                      .dwendtag $C$DW$59
    1509              
    1510 0000026a               .sect   ".text"
    1511                      .clink
    1512                      .global _SysIntOsc2Sel
    1513              
    1514              $C$DW$61        .dwtag  DW_TAG_subprogram
    1515                      .dwattr $C$DW$61, DW_AT_name("SysIntOsc2Sel")
    1516                      .dwattr $C$DW$61, DW_AT_low_pc(_SysIntOsc2Sel)
    1517                      .dwattr $C$DW$61, DW_AT_high_pc(0x00)
    1518                      .dwattr $C$DW$61, DW_AT_TI_symbol_name("_SysIntOsc2Sel")
    1519                      .dwattr $C$DW$61, DW_AT_external
    1520                      .dwattr $C$DW$61, DW_AT_TI_begin_file("C:/ti/controlSUITE/device_support/F2837xD/v170/F2837xD_common/
    1521                      .dwattr $C$DW$61, DW_AT_TI_begin_line(0x23c)
    1522                      .dwattr $C$DW$61, DW_AT_TI_begin_column(0x06)
    1523                      .dwattr $C$DW$61, DW_AT_TI_max_frame_size(-2)
    1524                      .dwpsn  file "C:/ti/controlSUITE/device_support/F2837xD/v170/F2837xD_common/source/F2837xD_SysCtrl.c"
    1525              
    1526                      .dwfde $C$DW$CIE, _SysIntOsc2Sel
    1527              
    1528              ;***************************************************************
    1529              ;* FNAME: _SysIntOsc2Sel                FR SIZE:   0           *
    1530              ;*                                                             *
    1531              ;* FUNCTION ENVIRONMENT                                        *
    1532              ;*                                                             *
    1533              ;* FUNCTION PROPERTIES                                         *
    1534              ;*                            0 Parameter,  0 Auto,  0 SOE     *
    1535              ;***************************************************************
    1536              
    1537 0000026a       _SysIntOsc2Sel:
    1538                      .dwcfi  cfa_offset, -2
    1539                      .dwcfi  save_reg_to_mem, 26, 0
    1540 0000026a 7622   EALLOW
    1541 0000026b 761F!         MOVW      DP,#_ClkCfgRegs+8     ; [CPU_U] 
         0000026c 0000 
    1542                      .dwpsn  file "C:/ti/controlSUITE/device_support/F2837xD/v170/F2837xD_common/source/F2837xD_SysCtrl.c"
    1543 0000026d 1808!         AND       @_ClkCfgRegs+8,#0xfff7 ; [CPU_] |575| 
         0000026e FFF7 
    1544                      .dwpsn  file "C:/ti/controlSUITE/device_support/F2837xD/v170/F2837xD_common/source/F2837xD_SysCtrl.c"
    1545 0000026f 1808!         AND       @_ClkCfgRegs+8,#0xfffc ; [CPU_] |576| 
         00000270 FFFC 
    1546 00000271 761A   EDIS
    1547 00000272 FF69          SPM       #0                    ; [CPU_] 
TMS320C2000 Assembler PC v15.12.1 Sun Feb 26 22:53:28 2017

Tools Copyright (c) 1996-2015 Texas Instruments Incorporated
F2837xD_SysCtrl.asm                                                  PAGE   32

    1548              $C$DW$62        .dwtag  DW_TAG_TI_branch
    1549                      .dwattr $C$DW$62, DW_AT_low_pc(0x00)
    1550                      .dwattr $C$DW$62, DW_AT_TI_return
    1551              
    1552 00000273 0006          LRETR     ; [CPU_] 
    1553                      ; return occurs ; [] 
    1554                      .dwattr $C$DW$61, DW_AT_TI_end_file("C:/ti/controlSUITE/device_support/F2837xD/v170/F2837xD_common/so
    1555                      .dwattr $C$DW$61, DW_AT_TI_end_line(0x243)
    1556                      .dwattr $C$DW$61, DW_AT_TI_end_column(0x01)
    1557                      .dwendentry
    1558                      .dwendtag $C$DW$61
    1559              
    1560 00000274               .sect   ".text"
    1561                      .clink
    1562                      .global _SysXtalOscSel
    1563              
    1564              $C$DW$63        .dwtag  DW_TAG_subprogram
    1565                      .dwattr $C$DW$63, DW_AT_name("SysXtalOscSel")
    1566                      .dwattr $C$DW$63, DW_AT_low_pc(_SysXtalOscSel)
    1567                      .dwattr $C$DW$63, DW_AT_high_pc(0x00)
    1568                      .dwattr $C$DW$63, DW_AT_TI_symbol_name("_SysXtalOscSel")
    1569                      .dwattr $C$DW$63, DW_AT_external
    1570                      .dwattr $C$DW$63, DW_AT_TI_begin_file("C:/ti/controlSUITE/device_support/F2837xD/v170/F2837xD_common/
    1571                      .dwattr $C$DW$63, DW_AT_TI_begin_line(0x24c)
    1572                      .dwattr $C$DW$63, DW_AT_TI_begin_column(0x06)
    1573                      .dwattr $C$DW$63, DW_AT_TI_max_frame_size(-2)
    1574                      .dwpsn  file "C:/ti/controlSUITE/device_support/F2837xD/v170/F2837xD_common/source/F2837xD_SysCtrl.c"
    1575              
    1576                      .dwfde $C$DW$CIE, _SysXtalOscSel
    1577              
    1578              ;***************************************************************
    1579              ;* FNAME: _SysXtalOscSel                FR SIZE:   0           *
    1580              ;*                                                             *
    1581              ;* FUNCTION ENVIRONMENT                                        *
    1582              ;*                                                             *
    1583              ;* FUNCTION PROPERTIES                                         *
    1584              ;*                            0 Parameter,  0 Auto,  0 SOE     *
    1585              ;***************************************************************
    1586              
    1587 00000274       _SysXtalOscSel:
    1588                      .dwcfi  cfa_offset, -2
    1589                      .dwcfi  save_reg_to_mem, 26, 0
    1590 00000274 7622   EALLOW
    1591 00000275 761F!         MOVW      DP,#_ClkCfgRegs+8     ; [CPU_U] 
         00000276 0000 
    1592                      .dwpsn  file "C:/ti/controlSUITE/device_support/F2837xD/v170/F2837xD_common/source/F2837xD_SysCtrl.c"
    1593 00000277 1808!         AND       @_ClkCfgRegs+8,#0xffef ; [CPU_] |591| 
         00000278 FFEF 
    1594                      .dwpsn  file "C:/ti/controlSUITE/device_support/F2837xD/v170/F2837xD_common/source/F2837xD_SysCtrl.c"
    1595 00000279 CC08!         AND       AL,@_ClkCfgRegs+8,#0xfffc ; [CPU_] |592| 
         0000027a FFFC 
    1596 0000027b 5001          ORB       AL,#0x01              ; [CPU_] |592| 
    1597 0000027c 9608!         MOV       @_ClkCfgRegs+8,AL     ; [CPU_] |592| 
    1598 0000027d 761A   EDIS
    1599 0000027e FF69          SPM       #0                    ; [CPU_] 
TMS320C2000 Assembler PC v15.12.1 Sun Feb 26 22:53:28 2017

Tools Copyright (c) 1996-2015 Texas Instruments Incorporated
F2837xD_SysCtrl.asm                                                  PAGE   33

    1600              $C$DW$64        .dwtag  DW_TAG_TI_branch
    1601                      .dwattr $C$DW$64, DW_AT_low_pc(0x00)
    1602                      .dwattr $C$DW$64, DW_AT_TI_return
    1603              
    1604 0000027f 0006          LRETR     ; [CPU_] 
    1605                      ; return occurs ; [] 
    1606                      .dwattr $C$DW$63, DW_AT_TI_end_file("C:/ti/controlSUITE/device_support/F2837xD/v170/F2837xD_common/so
    1607                      .dwattr $C$DW$63, DW_AT_TI_end_line(0x253)
    1608                      .dwattr $C$DW$63, DW_AT_TI_end_column(0x01)
    1609                      .dwendentry
    1610                      .dwendtag $C$DW$63
    1611              
    1612 00000280               .sect   ".text"
    1613                      .clink
    1614                      .global _AuxIntOsc2Sel
    1615              
    1616              $C$DW$65        .dwtag  DW_TAG_subprogram
    1617                      .dwattr $C$DW$65, DW_AT_name("AuxIntOsc2Sel")
    1618                      .dwattr $C$DW$65, DW_AT_low_pc(_AuxIntOsc2Sel)
    1619                      .dwattr $C$DW$65, DW_AT_high_pc(0x00)
    1620                      .dwattr $C$DW$65, DW_AT_TI_symbol_name("_AuxIntOsc2Sel")
    1621                      .dwattr $C$DW$65, DW_AT_external
    1622                      .dwattr $C$DW$65, DW_AT_TI_begin_file("C:/ti/controlSUITE/device_support/F2837xD/v170/F2837xD_common/
    1623                      .dwattr $C$DW$65, DW_AT_TI_begin_line(0x25e)
    1624                      .dwattr $C$DW$65, DW_AT_TI_begin_column(0x06)
    1625                      .dwattr $C$DW$65, DW_AT_TI_max_frame_size(-2)
    1626                      .dwpsn  file "C:/ti/controlSUITE/device_support/F2837xD/v170/F2837xD_common/source/F2837xD_SysCtrl.c"
    1627              
    1628                      .dwfde $C$DW$CIE, _AuxIntOsc2Sel
    1629              
    1630              ;***************************************************************
    1631              ;* FNAME: _AuxIntOsc2Sel                FR SIZE:   0           *
    1632              ;*                                                             *
    1633              ;* FUNCTION ENVIRONMENT                                        *
    1634              ;*                                                             *
    1635              ;* FUNCTION PROPERTIES                                         *
    1636              ;*                            0 Parameter,  0 Auto,  0 SOE     *
    1637              ;***************************************************************
    1638              
    1639 00000280       _AuxIntOsc2Sel:
    1640              ;* AR4   assigned to $O$C1
    1641                      .dwcfi  cfa_offset, -2
    1642                      .dwcfi  save_reg_to_mem, 26, 0
    1643 00000280 7622   EALLOW
    1644                      .dwpsn  file "C:/ti/controlSUITE/device_support/F2837xD/v170/F2837xD_common/source/F2837xD_SysCtrl.c"
    1645 00000281 8F00!         MOVL      XAR4,#_ClkCfgRegs     ; [CPU_U] |609| 
         00000282 0000 
    1646 00000283 83A4          MOVL      XAR5,XAR4             ; [CPU_] |609| 
    1647                      .dwpsn  file "C:/ti/controlSUITE/device_support/F2837xD/v170/F2837xD_common/source/F2837xD_SysCtrl.c"
    1648 00000284 DC0A          ADDB      XAR4,#10              ; [CPU_] |610| 
    1649                      .dwpsn  file "C:/ti/controlSUITE/device_support/F2837xD/v170/F2837xD_common/source/F2837xD_SysCtrl.c"
    1650 00000285 DD08          ADDB      XAR5,#8               ; [CPU_] |609| 
    1651 00000286 18C5          AND       *+XAR5[0],#0xfff7     ; [CPU_] |609| 
         00000287 FFF7 
    1652                      .dwpsn  file "C:/ti/controlSUITE/device_support/F2837xD/v170/F2837xD_common/source/F2837xD_SysCtrl.c"
TMS320C2000 Assembler PC v15.12.1 Sun Feb 26 22:53:28 2017

Tools Copyright (c) 1996-2015 Texas Instruments Incorporated
F2837xD_SysCtrl.asm                                                  PAGE   34

    1653 00000288 18C4          AND       *+XAR4[0],#0xfffc     ; [CPU_] |610| 
         00000289 FFFC 
    1654 0000028a 761A   EDIS
    1655 0000028b FF69          SPM       #0                    ; [CPU_] 
    1656              $C$DW$66        .dwtag  DW_TAG_TI_branch
    1657                      .dwattr $C$DW$66, DW_AT_low_pc(0x00)
    1658                      .dwattr $C$DW$66, DW_AT_TI_return
    1659              
    1660 0000028c 0006          LRETR     ; [CPU_] 
    1661                      ; return occurs ; [] 
    1662                      .dwattr $C$DW$65, DW_AT_TI_end_file("C:/ti/controlSUITE/device_support/F2837xD/v170/F2837xD_common/so
    1663                      .dwattr $C$DW$65, DW_AT_TI_end_line(0x265)
    1664                      .dwattr $C$DW$65, DW_AT_TI_end_column(0x01)
    1665                      .dwendentry
    1666                      .dwendtag $C$DW$65
    1667              
    1668 0000028d               .sect   ".text"
    1669                      .clink
    1670                      .global _AuxXtalOscSel
    1671              
    1672              $C$DW$67        .dwtag  DW_TAG_subprogram
    1673                      .dwattr $C$DW$67, DW_AT_name("AuxXtalOscSel")
    1674                      .dwattr $C$DW$67, DW_AT_low_pc(_AuxXtalOscSel)
    1675                      .dwattr $C$DW$67, DW_AT_high_pc(0x00)
    1676                      .dwattr $C$DW$67, DW_AT_TI_symbol_name("_AuxXtalOscSel")
    1677                      .dwattr $C$DW$67, DW_AT_external
    1678                      .dwattr $C$DW$67, DW_AT_TI_begin_file("C:/ti/controlSUITE/device_support/F2837xD/v170/F2837xD_common/
    1679                      .dwattr $C$DW$67, DW_AT_TI_begin_line(0x26e)
    1680                      .dwattr $C$DW$67, DW_AT_TI_begin_column(0x06)
    1681                      .dwattr $C$DW$67, DW_AT_TI_max_frame_size(-2)
    1682                      .dwpsn  file "C:/ti/controlSUITE/device_support/F2837xD/v170/F2837xD_common/source/F2837xD_SysCtrl.c"
    1683              
    1684                      .dwfde $C$DW$CIE, _AuxXtalOscSel
    1685              
    1686              ;***************************************************************
    1687              ;* FNAME: _AuxXtalOscSel                FR SIZE:   0           *
    1688              ;*                                                             *
    1689              ;* FUNCTION ENVIRONMENT                                        *
    1690              ;*                                                             *
    1691              ;* FUNCTION PROPERTIES                                         *
    1692              ;*                            0 Parameter,  0 Auto,  0 SOE     *
    1693              ;***************************************************************
    1694              
    1695 0000028d       _AuxXtalOscSel:
    1696              ;* AR5   assigned to $O$C1
    1697                      .dwcfi  cfa_offset, -2
    1698                      .dwcfi  save_reg_to_mem, 26, 0
    1699 0000028d 7622   EALLOW
    1700                      .dwpsn  file "C:/ti/controlSUITE/device_support/F2837xD/v170/F2837xD_common/source/F2837xD_SysCtrl.c"
    1701 0000028e 8F40!         MOVL      XAR5,#_ClkCfgRegs     ; [CPU_U] |625| 
         0000028f 0000 
    1702 00000290 8AA5          MOVL      XAR4,XAR5             ; [CPU_] |625| 
    1703                      .dwpsn  file "C:/ti/controlSUITE/device_support/F2837xD/v170/F2837xD_common/source/F2837xD_SysCtrl.c"
    1704 00000291 D00A          MOVB      XAR0,#10              ; [CPU_] |626| 
    1705 00000292 761F!         MOVW      DP,#_ClkCfgRegs+10    ; [CPU_U] 
TMS320C2000 Assembler PC v15.12.1 Sun Feb 26 22:53:28 2017

Tools Copyright (c) 1996-2015 Texas Instruments Incorporated
F2837xD_SysCtrl.asm                                                  PAGE   35

         00000293 0000 
    1706                      .dwpsn  file "C:/ti/controlSUITE/device_support/F2837xD/v170/F2837xD_common/source/F2837xD_SysCtrl.c"
    1707 00000294 DC08          ADDB      XAR4,#8               ; [CPU_] |625| 
    1708 00000295 18C4          AND       *+XAR4[0],#0xffef     ; [CPU_] |625| 
         00000296 FFEF 
    1709                      .dwpsn  file "C:/ti/controlSUITE/device_support/F2837xD/v170/F2837xD_common/source/F2837xD_SysCtrl.c"
    1710 00000297 CC95          AND       AL,*+XAR5[AR0],#0xfffc ; [CPU_] |626| 
         00000298 FFFC 
    1711 00000299 5001          ORB       AL,#0x01              ; [CPU_] |626| 
    1712 0000029a 960A!         MOV       @_ClkCfgRegs+10,AL    ; [CPU_] |626| 
    1713 0000029b 761A   EDIS
    1714 0000029c FF69          SPM       #0                    ; [CPU_] 
    1715              $C$DW$68        .dwtag  DW_TAG_TI_branch
    1716                      .dwattr $C$DW$68, DW_AT_low_pc(0x00)
    1717                      .dwattr $C$DW$68, DW_AT_TI_return
    1718              
    1719 0000029d 0006          LRETR     ; [CPU_] 
    1720                      ; return occurs ; [] 
    1721                      .dwattr $C$DW$67, DW_AT_TI_end_file("C:/ti/controlSUITE/device_support/F2837xD/v170/F2837xD_common/so
    1722                      .dwattr $C$DW$67, DW_AT_TI_end_line(0x275)
    1723                      .dwattr $C$DW$67, DW_AT_TI_end_column(0x01)
    1724                      .dwendentry
    1725                      .dwendtag $C$DW$67
    1726              
    1727 0000029e               .sect   ".text"
    1728                      .clink
    1729                      .global _AuxAuxClkSel
    1730              
    1731              $C$DW$69        .dwtag  DW_TAG_subprogram
    1732                      .dwattr $C$DW$69, DW_AT_name("AuxAuxClkSel")
    1733                      .dwattr $C$DW$69, DW_AT_low_pc(_AuxAuxClkSel)
    1734                      .dwattr $C$DW$69, DW_AT_high_pc(0x00)
    1735                      .dwattr $C$DW$69, DW_AT_TI_symbol_name("_AuxAuxClkSel")
    1736                      .dwattr $C$DW$69, DW_AT_external
    1737                      .dwattr $C$DW$69, DW_AT_TI_begin_file("C:/ti/controlSUITE/device_support/F2837xD/v170/F2837xD_common/
    1738                      .dwattr $C$DW$69, DW_AT_TI_begin_line(0x27e)
    1739                      .dwattr $C$DW$69, DW_AT_TI_begin_column(0x06)
    1740                      .dwattr $C$DW$69, DW_AT_TI_max_frame_size(-2)
    1741                      .dwpsn  file "C:/ti/controlSUITE/device_support/F2837xD/v170/F2837xD_common/source/F2837xD_SysCtrl.c"
    1742              
    1743                      .dwfde $C$DW$CIE, _AuxAuxClkSel
    1744              
    1745              ;***************************************************************
    1746              ;* FNAME: _AuxAuxClkSel                 FR SIZE:   0           *
    1747              ;*                                                             *
    1748              ;* FUNCTION ENVIRONMENT                                        *
    1749              ;*                                                             *
    1750              ;* FUNCTION PROPERTIES                                         *
    1751              ;*                            0 Parameter,  0 Auto,  0 SOE     *
    1752              ;***************************************************************
    1753              
    1754 0000029e       _AuxAuxClkSel:
    1755                      .dwcfi  cfa_offset, -2
    1756                      .dwcfi  save_reg_to_mem, 26, 0
    1757 0000029e 7622   EALLOW
TMS320C2000 Assembler PC v15.12.1 Sun Feb 26 22:53:28 2017

Tools Copyright (c) 1996-2015 Texas Instruments Incorporated
F2837xD_SysCtrl.asm                                                  PAGE   36

    1758 0000029f 761F!         MOVW      DP,#_ClkCfgRegs+10    ; [CPU_U] 
         000002a0 0000 
    1759                      .dwpsn  file "C:/ti/controlSUITE/device_support/F2837xD/v170/F2837xD_common/source/F2837xD_SysCtrl.c"
    1760 000002a1 CC0A!         AND       AL,@_ClkCfgRegs+10,#0xfffe ; [CPU_] |641| 
         000002a2 FFFE 
    1761 000002a3 5002          ORB       AL,#0x02              ; [CPU_] |641| 
    1762 000002a4 960A!         MOV       @_ClkCfgRegs+10,AL    ; [CPU_] |641| 
    1763 000002a5 761A   EDIS
    1764 000002a6 FF69          SPM       #0                    ; [CPU_] 
    1765              $C$DW$70        .dwtag  DW_TAG_TI_branch
    1766                      .dwattr $C$DW$70, DW_AT_low_pc(0x00)
    1767                      .dwattr $C$DW$70, DW_AT_TI_return
    1768              
    1769 000002a7 0006          LRETR     ; [CPU_] 
    1770                      ; return occurs ; [] 
    1771                      .dwattr $C$DW$69, DW_AT_TI_end_file("C:/ti/controlSUITE/device_support/F2837xD/v170/F2837xD_common/so
    1772                      .dwattr $C$DW$69, DW_AT_TI_end_line(0x284)
    1773                      .dwattr $C$DW$69, DW_AT_TI_end_column(0x01)
    1774                      .dwendentry
    1775                      .dwendtag $C$DW$69
    1776              
    1777 000002a8               .sect   ".text"
    1778                      .clink
    1779                      .global _IDLE
    1780              
    1781              $C$DW$71        .dwtag  DW_TAG_subprogram
    1782                      .dwattr $C$DW$71, DW_AT_name("IDLE")
    1783                      .dwattr $C$DW$71, DW_AT_low_pc(_IDLE)
    1784                      .dwattr $C$DW$71, DW_AT_high_pc(0x00)
    1785                      .dwattr $C$DW$71, DW_AT_TI_symbol_name("_IDLE")
    1786                      .dwattr $C$DW$71, DW_AT_external
    1787                      .dwattr $C$DW$71, DW_AT_TI_begin_file("C:/ti/controlSUITE/device_support/F2837xD/v170/F2837xD_common/
    1788                      .dwattr $C$DW$71, DW_AT_TI_begin_line(0x288)
    1789                      .dwattr $C$DW$71, DW_AT_TI_begin_column(0x06)
    1790                      .dwattr $C$DW$71, DW_AT_TI_max_frame_size(-2)
    1791                      .dwpsn  file "C:/ti/controlSUITE/device_support/F2837xD/v170/F2837xD_common/source/F2837xD_SysCtrl.c"
    1792              
    1793                      .dwfde $C$DW$CIE, _IDLE
    1794              
    1795              ;***************************************************************
    1796              ;* FNAME: _IDLE                         FR SIZE:   0           *
    1797              ;*                                                             *
    1798              ;* FUNCTION ENVIRONMENT                                        *
    1799              ;*                                                             *
    1800              ;* FUNCTION PROPERTIES                                         *
    1801              ;*                            0 Parameter,  0 Auto,  0 SOE     *
    1802              ;***************************************************************
    1803              
    1804 000002a8       _IDLE:
    1805                      .dwcfi  cfa_offset, -2
    1806                      .dwcfi  save_reg_to_mem, 26, 0
    1807 000002a8 7622   EALLOW
    1808 000002a9 761F!         MOVW      DP,#_CpuSysRegs+118   ; [CPU_U] 
         000002aa 0001 
    1809                      .dwpsn  file "C:/ti/controlSUITE/device_support/F2837xD/v170/F2837xD_common/source/F2837xD_SysCtrl.c"
TMS320C2000 Assembler PC v15.12.1 Sun Feb 26 22:53:28 2017

Tools Copyright (c) 1996-2015 Texas Instruments Incorporated
F2837xD_SysCtrl.asm                                                  PAGE   37

    1810 000002ab 1836!         AND       @_CpuSysRegs+118,#0xfffc ; [CPU_] |651| 
         000002ac FFFC 
    1811 000002ad 761A   EDIS
    1812 000002ae 7621   IDLE
    1813 000002af FF69          SPM       #0                    ; [CPU_] 
    1814              $C$DW$72        .dwtag  DW_TAG_TI_branch
    1815                      .dwattr $C$DW$72, DW_AT_low_pc(0x00)
    1816                      .dwattr $C$DW$72, DW_AT_TI_return
    1817              
    1818 000002b0 0006          LRETR     ; [CPU_] 
    1819                      ; return occurs ; [] 
    1820                      .dwattr $C$DW$71, DW_AT_TI_end_file("C:/ti/controlSUITE/device_support/F2837xD/v170/F2837xD_common/so
    1821                      .dwattr $C$DW$71, DW_AT_TI_end_line(0x28e)
    1822                      .dwattr $C$DW$71, DW_AT_TI_end_column(0x01)
    1823                      .dwendentry
    1824                      .dwendtag $C$DW$71
    1825              
    1826 000002b1               .sect   ".text"
    1827                      .clink
    1828                      .global _STANDBY
    1829              
    1830              $C$DW$73        .dwtag  DW_TAG_subprogram
    1831                      .dwattr $C$DW$73, DW_AT_name("STANDBY")
    1832                      .dwattr $C$DW$73, DW_AT_low_pc(_STANDBY)
    1833                      .dwattr $C$DW$73, DW_AT_high_pc(0x00)
    1834                      .dwattr $C$DW$73, DW_AT_TI_symbol_name("_STANDBY")
    1835                      .dwattr $C$DW$73, DW_AT_external
    1836                      .dwattr $C$DW$73, DW_AT_TI_begin_file("C:/ti/controlSUITE/device_support/F2837xD/v170/F2837xD_common/
    1837                      .dwattr $C$DW$73, DW_AT_TI_begin_line(0x291)
    1838                      .dwattr $C$DW$73, DW_AT_TI_begin_column(0x06)
    1839                      .dwattr $C$DW$73, DW_AT_TI_max_frame_size(-2)
    1840                      .dwpsn  file "C:/ti/controlSUITE/device_support/F2837xD/v170/F2837xD_common/source/F2837xD_SysCtrl.c"
    1841              
    1842                      .dwfde $C$DW$CIE, _STANDBY
    1843              
    1844              ;***************************************************************
    1845              ;* FNAME: _STANDBY                      FR SIZE:   0           *
    1846              ;*                                                             *
    1847              ;* FUNCTION ENVIRONMENT                                        *
    1848              ;*                                                             *
    1849              ;* FUNCTION PROPERTIES                                         *
    1850              ;*                            0 Parameter,  0 Auto,  0 SOE     *
    1851              ;***************************************************************
    1852              
    1853 000002b1       _STANDBY:
    1854                      .dwcfi  cfa_offset, -2
    1855                      .dwcfi  save_reg_to_mem, 26, 0
    1856 000002b1 7622   EALLOW
    1857 000002b2 761F!         MOVW      DP,#_CpuSysRegs+118   ; [CPU_U] 
         000002b3 0001 
    1858                      .dwpsn  file "C:/ti/controlSUITE/device_support/F2837xD/v170/F2837xD_common/source/F2837xD_SysCtrl.c"
    1859 000002b4 CC36!         AND       AL,@_CpuSysRegs+118,#0xfffc ; [CPU_] |660| 
         000002b5 FFFC 
    1860 000002b6 5001          ORB       AL,#0x01              ; [CPU_] |660| 
    1861 000002b7 9636!         MOV       @_CpuSysRegs+118,AL   ; [CPU_] |660| 
TMS320C2000 Assembler PC v15.12.1 Sun Feb 26 22:53:28 2017

Tools Copyright (c) 1996-2015 Texas Instruments Incorporated
F2837xD_SysCtrl.asm                                                  PAGE   38

    1862 000002b8 761A   EDIS
    1863 000002b9 7621   IDLE
    1864 000002ba FF69          SPM       #0                    ; [CPU_] 
    1865              $C$DW$74        .dwtag  DW_TAG_TI_branch
    1866                      .dwattr $C$DW$74, DW_AT_low_pc(0x00)
    1867                      .dwattr $C$DW$74, DW_AT_TI_return
    1868              
    1869 000002bb 0006          LRETR     ; [CPU_] 
    1870                      ; return occurs ; [] 
    1871                      .dwattr $C$DW$73, DW_AT_TI_end_file("C:/ti/controlSUITE/device_support/F2837xD/v170/F2837xD_common/so
    1872                      .dwattr $C$DW$73, DW_AT_TI_end_line(0x297)
    1873                      .dwattr $C$DW$73, DW_AT_TI_end_column(0x01)
    1874                      .dwendentry
    1875                      .dwendtag $C$DW$73
    1876              
    1877 000002bc               .sect   ".text"
    1878                      .clink
    1879                      .global _HALT
    1880              
    1881              $C$DW$75        .dwtag  DW_TAG_subprogram
    1882                      .dwattr $C$DW$75, DW_AT_name("HALT")
    1883                      .dwattr $C$DW$75, DW_AT_low_pc(_HALT)
    1884                      .dwattr $C$DW$75, DW_AT_high_pc(0x00)
    1885                      .dwattr $C$DW$75, DW_AT_TI_symbol_name("_HALT")
    1886                      .dwattr $C$DW$75, DW_AT_external
    1887                      .dwattr $C$DW$75, DW_AT_TI_begin_file("C:/ti/controlSUITE/device_support/F2837xD/v170/F2837xD_common/
    1888                      .dwattr $C$DW$75, DW_AT_TI_begin_line(0x29a)
    1889                      .dwattr $C$DW$75, DW_AT_TI_begin_column(0x06)
    1890                      .dwattr $C$DW$75, DW_AT_TI_max_frame_size(-2)
    1891                      .dwpsn  file "C:/ti/controlSUITE/device_support/F2837xD/v170/F2837xD_common/source/F2837xD_SysCtrl.c"
    1892              
    1893                      .dwfde $C$DW$CIE, _HALT
    1894              
    1895              ;***************************************************************
    1896              ;* FNAME: _HALT                         FR SIZE:   0           *
    1897              ;*                                                             *
    1898              ;* FUNCTION ENVIRONMENT                                        *
    1899              ;*                                                             *
    1900              ;* FUNCTION PROPERTIES                                         *
    1901              ;*                            0 Parameter,  0 Auto,  0 SOE     *
    1902              ;***************************************************************
    1903              
    1904 000002bc       _HALT:
    1905                      .dwcfi  cfa_offset, -2
    1906                      .dwcfi  save_reg_to_mem, 26, 0
    1907 000002bc 7622   EALLOW
    1908 000002bd 761F!         MOVW      DP,#_CpuSysRegs+118   ; [CPU_U] 
         000002be 0001 
    1909                      .dwpsn  file "C:/ti/controlSUITE/device_support/F2837xD/v170/F2837xD_common/source/F2837xD_SysCtrl.c"
    1910 000002bf CC36!         AND       AL,@_CpuSysRegs+118,#0xfffe ; [CPU_] |672| 
         000002c0 FFFE 
    1911 000002c1 5002          ORB       AL,#0x02              ; [CPU_] |672| 
    1912 000002c2 9636!         MOV       @_CpuSysRegs+118,AL   ; [CPU_] |672| 
    1913 000002c3 761A   EDIS
    1914 000002c4       $C$L24:    
TMS320C2000 Assembler PC v15.12.1 Sun Feb 26 22:53:28 2017

Tools Copyright (c) 1996-2015 Texas Instruments Incorporated
F2837xD_SysCtrl.asm                                                  PAGE   39

    1915 000002c4 761F!         MOVW      DP,#_DevCfgRegs+293   ; [CPU_U] 
         000002c5 0004 
    1916                      .dwpsn  file "C:/ti/controlSUITE/device_support/F2837xD/v170/F2837xD_common/source/F2837xD_SysCtrl.c"
    1917 000002c6 9225!         MOV       AL,@_DevCfgRegs+293   ; [CPU_] |674| 
    1918 000002c7 9003          ANDB      AL,#0x03              ; [CPU_] |674| 
    1919 000002c8 5201          CMPB      AL,#1                 ; [CPU_] |674| 
    1920 000002c9 60FB          B         $C$L24,NEQ            ; [CPU_] |674| 
    1921                      ; branchcc occurs ; [] |674| 
    1922 000002ca 7622   EALLOW
    1923 000002cb 761F!         MOVW      DP,#_ClkCfgRegs+14    ; [CPU_U] 
         000002cc 0000 
    1924                      .dwpsn  file "C:/ti/controlSUITE/device_support/F2837xD/v170/F2837xD_common/source/F2837xD_SysCtrl.c"
    1925 000002cd 180E!         AND       @_ClkCfgRegs+14,#0xfffd ; [CPU_] |676| 
         000002ce FFFD 
    1926                      .dwpsn  file "C:/ti/controlSUITE/device_support/F2837xD/v170/F2837xD_common/source/F2837xD_SysCtrl.c"
    1927 000002cf 180E!         AND       @_ClkCfgRegs+14,#0xfffe ; [CPU_] |677| 
         000002d0 FFFE 
    1928 000002d1 761A   EDIS
    1929 000002d2 7621   IDLE
    1930 000002d3 FF69          SPM       #0                    ; [CPU_] 
    1931              $C$DW$76        .dwtag  DW_TAG_TI_branch
    1932                      .dwattr $C$DW$76, DW_AT_low_pc(0x00)
    1933                      .dwattr $C$DW$76, DW_AT_TI_return
    1934              
    1935 000002d4 0006          LRETR     ; [CPU_] 
    1936                      ; return occurs ; [] 
    1937                      .dwattr $C$DW$75, DW_AT_TI_end_file("C:/ti/controlSUITE/device_support/F2837xD/v170/F2837xD_common/so
    1938                      .dwattr $C$DW$75, DW_AT_TI_end_line(0x2a9)
    1939                      .dwattr $C$DW$75, DW_AT_TI_end_column(0x01)
    1940                      .dwendentry
    1941                      .dwendtag $C$DW$75
    1942              
    1943 000002d5               .sect   ".text"
    1944                      .clink
    1945                      .global _HIB
    1946              
    1947              $C$DW$77        .dwtag  DW_TAG_subprogram
    1948                      .dwattr $C$DW$77, DW_AT_name("HIB")
    1949                      .dwattr $C$DW$77, DW_AT_low_pc(_HIB)
    1950                      .dwattr $C$DW$77, DW_AT_high_pc(0x00)
    1951                      .dwattr $C$DW$77, DW_AT_TI_symbol_name("_HIB")
    1952                      .dwattr $C$DW$77, DW_AT_external
    1953                      .dwattr $C$DW$77, DW_AT_TI_begin_file("C:/ti/controlSUITE/device_support/F2837xD/v170/F2837xD_common/
    1954                      .dwattr $C$DW$77, DW_AT_TI_begin_line(0x2ad)
    1955                      .dwattr $C$DW$77, DW_AT_TI_begin_column(0x06)
    1956                      .dwattr $C$DW$77, DW_AT_TI_max_frame_size(-2)
    1957                      .dwpsn  file "C:/ti/controlSUITE/device_support/F2837xD/v170/F2837xD_common/source/F2837xD_SysCtrl.c"
    1958              
    1959                      .dwfde $C$DW$CIE, _HIB
    1960              
    1961              ;***************************************************************
    1962              ;* FNAME: _HIB                          FR SIZE:   0           *
    1963              ;*                                                             *
    1964              ;* FUNCTION ENVIRONMENT                                        *
    1965              ;*                                                             *
TMS320C2000 Assembler PC v15.12.1 Sun Feb 26 22:53:28 2017

Tools Copyright (c) 1996-2015 Texas Instruments Incorporated
F2837xD_SysCtrl.asm                                                  PAGE   40

    1966              ;* FUNCTION PROPERTIES                                         *
    1967              ;*                            0 Parameter,  0 Auto,  0 SOE     *
    1968              ;***************************************************************
    1969              
    1970 000002d5       _HIB:
    1971              ;* AR4   assigned to $O$C1
    1972                      .dwcfi  cfa_offset, -2
    1973                      .dwcfi  save_reg_to_mem, 26, 0
    1974 000002d5 7622   EALLOW
    1975 000002d6 761F!         MOVW      DP,#_CpuSysRegs+118   ; [CPU_U] 
         000002d7 0001 
    1976                      .dwpsn  file "C:/ti/controlSUITE/device_support/F2837xD/v170/F2837xD_common/source/F2837xD_SysCtrl.c"
    1977 000002d8 1A36!         OR        @_CpuSysRegs+118,#0x0003 ; [CPU_] |691| 
         000002d9 0003 
    1978 000002da 761A   EDIS
    1979 000002db       $C$L25:    
    1980                      .dwpsn  file "C:/ti/controlSUITE/device_support/F2837xD/v170/F2837xD_common/source/F2837xD_SysCtrl.c"
    1981 000002db 8F00!         MOVL      XAR4,#_DevCfgRegs     ; [CPU_U] |693| 
         000002dc 0000 
    1982 000002dd A8A9          MOVL      ACC,XAR4              ; [CPU_] |693| 
    1983 000002de FF10          ADD       ACC,#293 << 0         ; [CPU_] |693| 
         000002df 0125 
    1984 000002e0 83A9          MOVL      XAR5,ACC              ; [CPU_] |693| 
    1985 000002e1 92C5          MOV       AL,*+XAR5[0]          ; [CPU_] |693| 
    1986 000002e2 9003          ANDB      AL,#0x03              ; [CPU_] |693| 
    1987 000002e3 6007          B         $C$L26,NEQ            ; [CPU_] |693| 
    1988                      ; branchcc occurs ; [] |693| 
    1989 000002e4 A8A9          MOVL      ACC,XAR4              ; [CPU_] |693| 
    1990 000002e5 FF12          ADD       ACC,#73 << 2          ; [CPU_] |693| 
         000002e6 0049 
    1991 000002e7 8AA9          MOVL      XAR4,ACC              ; [CPU_] |693| 
    1992 000002e8 40C4          TBIT      *+XAR4[0],#0          ; [CPU_] |693| 
    1993 000002e9 6DF2          B         $C$L25,TC             ; [CPU_] |693| 
    1994                      ; branchcc occurs ; [] |693| 
    1995 000002ea       $C$L26:    
    1996 000002ea FF69          SPM       #0                    ; [CPU_] 
    1997                      .dwpsn  file "C:/ti/controlSUITE/device_support/F2837xD/v170/F2837xD_common/source/F2837xD_SysCtrl.c"
    1998              $C$DW$78        .dwtag  DW_TAG_TI_branch
    1999                      .dwattr $C$DW$78, DW_AT_low_pc(0x00)
    2000                      .dwattr $C$DW$78, DW_AT_name("_DisablePeripheralClocks")
    2001                      .dwattr $C$DW$78, DW_AT_TI_call
    2002              
    2003 000002eb 7640'         LCR       #_DisablePeripheralClocks ; [CPU_] |694| 
         000002ec 00E0 
    2004                      ; call occurs [#_DisablePeripheralClocks] ; [] |694| 
    2005 000002ed 7622   EALLOW
    2006 000002ee 761F!         MOVW      DP,#_ClkCfgRegs+14    ; [CPU_U] 
         000002ef 0000 
    2007                      .dwpsn  file "C:/ti/controlSUITE/device_support/F2837xD/v170/F2837xD_common/source/F2837xD_SysCtrl.c"
    2008 000002f0 180E!         AND       @_ClkCfgRegs+14,#0xfffd ; [CPU_] |696| 
         000002f1 FFFD 
    2009                      .dwpsn  file "C:/ti/controlSUITE/device_support/F2837xD/v170/F2837xD_common/source/F2837xD_SysCtrl.c"
    2010 000002f2 180E!         AND       @_ClkCfgRegs+14,#0xfffe ; [CPU_] |697| 
         000002f3 FFFE 
    2011 000002f4 761A   EDIS
TMS320C2000 Assembler PC v15.12.1 Sun Feb 26 22:53:28 2017

Tools Copyright (c) 1996-2015 Texas Instruments Incorporated
F2837xD_SysCtrl.asm                                                  PAGE   41

    2012 000002f5 7621   IDLE
    2013 000002f6 FF69          SPM       #0                    ; [CPU_] 
    2014              $C$DW$79        .dwtag  DW_TAG_TI_branch
    2015                      .dwattr $C$DW$79, DW_AT_low_pc(0x00)
    2016                      .dwattr $C$DW$79, DW_AT_TI_return
    2017              
    2018 000002f7 0006          LRETR     ; [CPU_] 
    2019                      ; return occurs ; [] 
    2020                      .dwattr $C$DW$77, DW_AT_TI_end_file("C:/ti/controlSUITE/device_support/F2837xD/v170/F2837xD_common/so
    2021                      .dwattr $C$DW$77, DW_AT_TI_end_line(0x2bd)
    2022                      .dwattr $C$DW$77, DW_AT_TI_end_column(0x01)
    2023                      .dwendentry
    2024                      .dwendtag $C$DW$77
    2025              
    2026              ;**************************************************************
    2027              ;* UNDEFINED EXTERNAL REFERENCES                              *
    2028              ;**************************************************************
    2029                      .global _F28x_usDelay
    2030                      .global _GPIO_EnableUnbondedIOPullups
    2031                      .global _DcsmZ1Regs
    2032                      .global _DcsmZ2Regs
    2033                      .global _Flash0EccRegs
    2034                      .global _WdRegs
    2035                      .global _ClkCfgRegs
    2036                      .global _AnalogSubsysRegs
    2037                      .global _CpuSysRegs
    2038                      .global _DevCfgRegs
    2039                      .global _Flash0CtrlRegs
    2040              
    2041              ;***************************************************************
    2042              ;* TYPE INFORMATION                                            *
    2043              ;***************************************************************
    2044              
    2045              $C$DW$T$25      .dwtag  DW_TAG_structure_type
    2046                      .dwattr $C$DW$T$25, DW_AT_name("ANALOG_SUBSYS_REGS")
    2047                      .dwattr $C$DW$T$25, DW_AT_byte_size(0x48)
    2048              $C$DW$80        .dwtag  DW_TAG_member
    2049                      .dwattr $C$DW$80, DW_AT_type(*$C$DW$T$20)
    2050                      .dwattr $C$DW$80, DW_AT_name("rsvd1")
    2051                      .dwattr $C$DW$80, DW_AT_TI_symbol_name("_rsvd1")
    2052                      .dwattr $C$DW$80, DW_AT_data_member_location[DW_OP_plus_uconst 0x0]
    2053                      .dwattr $C$DW$80, DW_AT_accessibility(DW_ACCESS_public)
    2054              
    2055              $C$DW$81        .dwtag  DW_TAG_member
    2056                      .dwattr $C$DW$81, DW_AT_type(*$C$DW$T$192)
    2057                      .dwattr $C$DW$81, DW_AT_name("INTOSC1TRIM")
    2058                      .dwattr $C$DW$81, DW_AT_TI_symbol_name("_INTOSC1TRIM")
    2059                      .dwattr $C$DW$81, DW_AT_data_member_location[DW_OP_plus_uconst 0x20]
    2060                      .dwattr $C$DW$81, DW_AT_accessibility(DW_ACCESS_public)
    2061              
    2062              $C$DW$82        .dwtag  DW_TAG_member
    2063                      .dwattr $C$DW$82, DW_AT_type(*$C$DW$T$194)
    2064                      .dwattr $C$DW$82, DW_AT_name("INTOSC2TRIM")
    2065                      .dwattr $C$DW$82, DW_AT_TI_symbol_name("_INTOSC2TRIM")
    2066                      .dwattr $C$DW$82, DW_AT_data_member_location[DW_OP_plus_uconst 0x22]
TMS320C2000 Assembler PC v15.12.1 Sun Feb 26 22:53:28 2017

Tools Copyright (c) 1996-2015 Texas Instruments Incorporated
F2837xD_SysCtrl.asm                                                  PAGE   42

    2067                      .dwattr $C$DW$82, DW_AT_accessibility(DW_ACCESS_public)
    2068              
    2069              $C$DW$83        .dwtag  DW_TAG_member
    2070                      .dwattr $C$DW$83, DW_AT_type(*$C$DW$T$21)
    2071                      .dwattr $C$DW$83, DW_AT_name("rsvd2")
    2072                      .dwattr $C$DW$83, DW_AT_TI_symbol_name("_rsvd2")
    2073                      .dwattr $C$DW$83, DW_AT_data_member_location[DW_OP_plus_uconst 0x24]
    2074                      .dwattr $C$DW$83, DW_AT_accessibility(DW_ACCESS_public)
    2075              
    2076              $C$DW$84        .dwtag  DW_TAG_member
    2077                      .dwattr $C$DW$84, DW_AT_type(*$C$DW$T$292)
    2078                      .dwattr $C$DW$84, DW_AT_name("TSNSCTL")
    2079                      .dwattr $C$DW$84, DW_AT_TI_symbol_name("_TSNSCTL")
    2080                      .dwattr $C$DW$84, DW_AT_data_member_location[DW_OP_plus_uconst 0x26]
    2081                      .dwattr $C$DW$84, DW_AT_accessibility(DW_ACCESS_public)
    2082              
    2083              $C$DW$85        .dwtag  DW_TAG_member
    2084                      .dwattr $C$DW$85, DW_AT_type(*$C$DW$T$22)
    2085                      .dwattr $C$DW$85, DW_AT_name("rsvd3")
    2086                      .dwattr $C$DW$85, DW_AT_TI_symbol_name("_rsvd3")
    2087                      .dwattr $C$DW$85, DW_AT_data_member_location[DW_OP_plus_uconst 0x27]
    2088                      .dwattr $C$DW$85, DW_AT_accessibility(DW_ACCESS_public)
    2089              
    2090              $C$DW$86        .dwtag  DW_TAG_member
    2091                      .dwattr $C$DW$86, DW_AT_type(*$C$DW$T$198)
    2092                      .dwattr $C$DW$86, DW_AT_name("LOCK")
    2093                      .dwattr $C$DW$86, DW_AT_TI_symbol_name("_LOCK")
    2094                      .dwattr $C$DW$86, DW_AT_data_member_location[DW_OP_plus_uconst 0x2e]
    2095                      .dwattr $C$DW$86, DW_AT_accessibility(DW_ACCESS_public)
    2096              
    2097              $C$DW$87        .dwtag  DW_TAG_member
    2098                      .dwattr $C$DW$87, DW_AT_type(*$C$DW$T$23)
    2099                      .dwattr $C$DW$87, DW_AT_name("rsvd4")
    2100                      .dwattr $C$DW$87, DW_AT_TI_symbol_name("_rsvd4")
    2101                      .dwattr $C$DW$87, DW_AT_data_member_location[DW_OP_plus_uconst 0x30]
    2102                      .dwattr $C$DW$87, DW_AT_accessibility(DW_ACCESS_public)
    2103              
    2104              $C$DW$88        .dwtag  DW_TAG_member
    2105                      .dwattr $C$DW$88, DW_AT_type(*$C$DW$T$28)
    2106                      .dwattr $C$DW$88, DW_AT_name("ANAREFTRIMA")
    2107                      .dwattr $C$DW$88, DW_AT_TI_symbol_name("_ANAREFTRIMA")
    2108                      .dwattr $C$DW$88, DW_AT_data_member_location[DW_OP_plus_uconst 0x36]
    2109                      .dwattr $C$DW$88, DW_AT_accessibility(DW_ACCESS_public)
    2110              
    2111              $C$DW$89        .dwtag  DW_TAG_member
    2112                      .dwattr $C$DW$89, DW_AT_type(*$C$DW$T$30)
    2113                      .dwattr $C$DW$89, DW_AT_name("ANAREFTRIMB")
    2114                      .dwattr $C$DW$89, DW_AT_TI_symbol_name("_ANAREFTRIMB")
    2115                      .dwattr $C$DW$89, DW_AT_data_member_location[DW_OP_plus_uconst 0x38]
    2116                      .dwattr $C$DW$89, DW_AT_accessibility(DW_ACCESS_public)
    2117              
    2118              $C$DW$90        .dwtag  DW_TAG_member
    2119                      .dwattr $C$DW$90, DW_AT_type(*$C$DW$T$32)
    2120                      .dwattr $C$DW$90, DW_AT_name("ANAREFTRIMC")
    2121                      .dwattr $C$DW$90, DW_AT_TI_symbol_name("_ANAREFTRIMC")
TMS320C2000 Assembler PC v15.12.1 Sun Feb 26 22:53:28 2017

Tools Copyright (c) 1996-2015 Texas Instruments Incorporated
F2837xD_SysCtrl.asm                                                  PAGE   43

    2122                      .dwattr $C$DW$90, DW_AT_data_member_location[DW_OP_plus_uconst 0x3a]
    2123                      .dwattr $C$DW$90, DW_AT_accessibility(DW_ACCESS_public)
    2124              
    2125              $C$DW$91        .dwtag  DW_TAG_member
    2126                      .dwattr $C$DW$91, DW_AT_type(*$C$DW$T$34)
    2127                      .dwattr $C$DW$91, DW_AT_name("ANAREFTRIMD")
    2128                      .dwattr $C$DW$91, DW_AT_TI_symbol_name("_ANAREFTRIMD")
    2129                      .dwattr $C$DW$91, DW_AT_data_member_location[DW_OP_plus_uconst 0x3c]
    2130                      .dwattr $C$DW$91, DW_AT_accessibility(DW_ACCESS_public)
    2131              
    2132              $C$DW$92        .dwtag  DW_TAG_member
    2133                      .dwattr $C$DW$92, DW_AT_type(*$C$DW$T$24)
    2134                      .dwattr $C$DW$92, DW_AT_name("rsvd5")
    2135                      .dwattr $C$DW$92, DW_AT_TI_symbol_name("_rsvd5")
    2136                      .dwattr $C$DW$92, DW_AT_data_member_location[DW_OP_plus_uconst 0x3e]
    2137                      .dwattr $C$DW$92, DW_AT_accessibility(DW_ACCESS_public)
    2138              
    2139                      .dwendtag $C$DW$T$25
    2140              
    2141              $C$DW$93        .dwtag  DW_TAG_TI_far_type
    2142                      .dwattr $C$DW$93, DW_AT_type(*$C$DW$T$25)
    2143              
    2144              $C$DW$T$340     .dwtag  DW_TAG_volatile_type
    2145                      .dwattr $C$DW$T$340, DW_AT_type(*$C$DW$93)
    2146              
    2147              
    2148              $C$DW$T$26      .dwtag  DW_TAG_structure_type
    2149                      .dwattr $C$DW$T$26, DW_AT_name("ANAREFTRIMA_BITS")
    2150                      .dwattr $C$DW$T$26, DW_AT_byte_size(0x02)
    2151              $C$DW$94        .dwtag  DW_TAG_member
    2152                      .dwattr $C$DW$94, DW_AT_type(*$C$DW$T$19)
    2153                      .dwattr $C$DW$94, DW_AT_name("BGVALTRIM")
    2154                      .dwattr $C$DW$94, DW_AT_TI_symbol_name("_BGVALTRIM")
    2155                      .dwattr $C$DW$94, DW_AT_bit_offset(0x0a)
    2156                      .dwattr $C$DW$94, DW_AT_bit_size(0x06)
    2157                      .dwattr $C$DW$94, DW_AT_data_member_location[DW_OP_plus_uconst 0x0]
    2158                      .dwattr $C$DW$94, DW_AT_accessibility(DW_ACCESS_public)
    2159              
    2160              $C$DW$95        .dwtag  DW_TAG_member
    2161                      .dwattr $C$DW$95, DW_AT_type(*$C$DW$T$19)
    2162                      .dwattr $C$DW$95, DW_AT_name("BGSLOPETRIM")
    2163                      .dwattr $C$DW$95, DW_AT_TI_symbol_name("_BGSLOPETRIM")
    2164                      .dwattr $C$DW$95, DW_AT_bit_offset(0x05)
    2165                      .dwattr $C$DW$95, DW_AT_bit_size(0x05)
    2166                      .dwattr $C$DW$95, DW_AT_data_member_location[DW_OP_plus_uconst 0x0]
    2167                      .dwattr $C$DW$95, DW_AT_accessibility(DW_ACCESS_public)
    2168              
    2169              $C$DW$96        .dwtag  DW_TAG_member
    2170                      .dwattr $C$DW$96, DW_AT_type(*$C$DW$T$19)
    2171                      .dwattr $C$DW$96, DW_AT_name("IREFTRIM")
    2172                      .dwattr $C$DW$96, DW_AT_TI_symbol_name("_IREFTRIM")
    2173                      .dwattr $C$DW$96, DW_AT_bit_offset(0x00)
    2174                      .dwattr $C$DW$96, DW_AT_bit_size(0x05)
    2175                      .dwattr $C$DW$96, DW_AT_data_member_location[DW_OP_plus_uconst 0x0]
    2176                      .dwattr $C$DW$96, DW_AT_accessibility(DW_ACCESS_public)
TMS320C2000 Assembler PC v15.12.1 Sun Feb 26 22:53:28 2017

Tools Copyright (c) 1996-2015 Texas Instruments Incorporated
F2837xD_SysCtrl.asm                                                  PAGE   44

    2177              
    2178              $C$DW$97        .dwtag  DW_TAG_member
    2179                      .dwattr $C$DW$97, DW_AT_type(*$C$DW$T$19)
    2180                      .dwattr $C$DW$97, DW_AT_name("rsvd1")
    2181                      .dwattr $C$DW$97, DW_AT_TI_symbol_name("_rsvd1")
    2182                      .dwattr $C$DW$97, DW_AT_bit_offset(0x08)
    2183                      .dwattr $C$DW$97, DW_AT_bit_size(0x08)
    2184                      .dwattr $C$DW$97, DW_AT_data_member_location[DW_OP_plus_uconst 0x1]
    2185                      .dwattr $C$DW$97, DW_AT_accessibility(DW_ACCESS_public)
    2186              
    2187              $C$DW$98        .dwtag  DW_TAG_member
    2188                      .dwattr $C$DW$98, DW_AT_type(*$C$DW$T$19)
    2189                      .dwattr $C$DW$98, DW_AT_name("rsvd2")
    2190                      .dwattr $C$DW$98, DW_AT_TI_symbol_name("_rsvd2")
    2191                      .dwattr $C$DW$98, DW_AT_bit_offset(0x00)
    2192                      .dwattr $C$DW$98, DW_AT_bit_size(0x08)
    2193                      .dwattr $C$DW$98, DW_AT_data_member_location[DW_OP_plus_uconst 0x1]
    2194                      .dwattr $C$DW$98, DW_AT_accessibility(DW_ACCESS_public)
    2195              
    2196                      .dwendtag $C$DW$T$26
    2197              
    2198              
    2199              $C$DW$T$28      .dwtag  DW_TAG_union_type
    2200                      .dwattr $C$DW$T$28, DW_AT_name("ANAREFTRIMA_REG")
    2201                      .dwattr $C$DW$T$28, DW_AT_byte_size(0x02)
    2202              $C$DW$99        .dwtag  DW_TAG_member
    2203                      .dwattr $C$DW$99, DW_AT_type(*$C$DW$T$27)
    2204                      .dwattr $C$DW$99, DW_AT_name("all")
    2205                      .dwattr $C$DW$99, DW_AT_TI_symbol_name("_all")
    2206                      .dwattr $C$DW$99, DW_AT_data_member_location[DW_OP_plus_uconst 0x0]
    2207                      .dwattr $C$DW$99, DW_AT_accessibility(DW_ACCESS_public)
    2208              
    2209              $C$DW$100       .dwtag  DW_TAG_member
    2210                      .dwattr $C$DW$100, DW_AT_type(*$C$DW$T$26)
    2211                      .dwattr $C$DW$100, DW_AT_name("bit")
    2212                      .dwattr $C$DW$100, DW_AT_TI_symbol_name("_bit")
    2213                      .dwattr $C$DW$100, DW_AT_data_member_location[DW_OP_plus_uconst 0x0]
    2214                      .dwattr $C$DW$100, DW_AT_accessibility(DW_ACCESS_public)
    2215              
    2216                      .dwendtag $C$DW$T$28
    2217              
    2218              
    2219              $C$DW$T$29      .dwtag  DW_TAG_structure_type
    2220                      .dwattr $C$DW$T$29, DW_AT_name("ANAREFTRIMB_BITS")
    2221                      .dwattr $C$DW$T$29, DW_AT_byte_size(0x02)
    2222              $C$DW$101       .dwtag  DW_TAG_member
    2223                      .dwattr $C$DW$101, DW_AT_type(*$C$DW$T$19)
    2224                      .dwattr $C$DW$101, DW_AT_name("BGVALTRIM")
    2225                      .dwattr $C$DW$101, DW_AT_TI_symbol_name("_BGVALTRIM")
    2226                      .dwattr $C$DW$101, DW_AT_bit_offset(0x0a)
    2227                      .dwattr $C$DW$101, DW_AT_bit_size(0x06)
    2228                      .dwattr $C$DW$101, DW_AT_data_member_location[DW_OP_plus_uconst 0x0]
    2229                      .dwattr $C$DW$101, DW_AT_accessibility(DW_ACCESS_public)
    2230              
    2231              $C$DW$102       .dwtag  DW_TAG_member
TMS320C2000 Assembler PC v15.12.1 Sun Feb 26 22:53:28 2017

Tools Copyright (c) 1996-2015 Texas Instruments Incorporated
F2837xD_SysCtrl.asm                                                  PAGE   45

    2232                      .dwattr $C$DW$102, DW_AT_type(*$C$DW$T$19)
    2233                      .dwattr $C$DW$102, DW_AT_name("BGSLOPETRIM")
    2234                      .dwattr $C$DW$102, DW_AT_TI_symbol_name("_BGSLOPETRIM")
    2235                      .dwattr $C$DW$102, DW_AT_bit_offset(0x05)
    2236                      .dwattr $C$DW$102, DW_AT_bit_size(0x05)
    2237                      .dwattr $C$DW$102, DW_AT_data_member_location[DW_OP_plus_uconst 0x0]
    2238                      .dwattr $C$DW$102, DW_AT_accessibility(DW_ACCESS_public)
    2239              
    2240              $C$DW$103       .dwtag  DW_TAG_member
    2241                      .dwattr $C$DW$103, DW_AT_type(*$C$DW$T$19)
    2242                      .dwattr $C$DW$103, DW_AT_name("IREFTRIM")
    2243                      .dwattr $C$DW$103, DW_AT_TI_symbol_name("_IREFTRIM")
    2244                      .dwattr $C$DW$103, DW_AT_bit_offset(0x00)
    2245                      .dwattr $C$DW$103, DW_AT_bit_size(0x05)
    2246                      .dwattr $C$DW$103, DW_AT_data_member_location[DW_OP_plus_uconst 0x0]
    2247                      .dwattr $C$DW$103, DW_AT_accessibility(DW_ACCESS_public)
    2248              
    2249              $C$DW$104       .dwtag  DW_TAG_member
    2250                      .dwattr $C$DW$104, DW_AT_type(*$C$DW$T$19)
    2251                      .dwattr $C$DW$104, DW_AT_name("rsvd1")
    2252                      .dwattr $C$DW$104, DW_AT_TI_symbol_name("_rsvd1")
    2253                      .dwattr $C$DW$104, DW_AT_bit_offset(0x08)
    2254                      .dwattr $C$DW$104, DW_AT_bit_size(0x08)
    2255                      .dwattr $C$DW$104, DW_AT_data_member_location[DW_OP_plus_uconst 0x1]
    2256                      .dwattr $C$DW$104, DW_AT_accessibility(DW_ACCESS_public)
    2257              
    2258              $C$DW$105       .dwtag  DW_TAG_member
    2259                      .dwattr $C$DW$105, DW_AT_type(*$C$DW$T$19)
    2260                      .dwattr $C$DW$105, DW_AT_name("rsvd2")
    2261                      .dwattr $C$DW$105, DW_AT_TI_symbol_name("_rsvd2")
    2262                      .dwattr $C$DW$105, DW_AT_bit_offset(0x00)
    2263                      .dwattr $C$DW$105, DW_AT_bit_size(0x08)
    2264                      .dwattr $C$DW$105, DW_AT_data_member_location[DW_OP_plus_uconst 0x1]
    2265                      .dwattr $C$DW$105, DW_AT_accessibility(DW_ACCESS_public)
    2266              
    2267                      .dwendtag $C$DW$T$29
    2268              
    2269              
    2270              $C$DW$T$30      .dwtag  DW_TAG_union_type
    2271                      .dwattr $C$DW$T$30, DW_AT_name("ANAREFTRIMB_REG")
    2272                      .dwattr $C$DW$T$30, DW_AT_byte_size(0x02)
    2273              $C$DW$106       .dwtag  DW_TAG_member
    2274                      .dwattr $C$DW$106, DW_AT_type(*$C$DW$T$27)
    2275                      .dwattr $C$DW$106, DW_AT_name("all")
    2276                      .dwattr $C$DW$106, DW_AT_TI_symbol_name("_all")
    2277                      .dwattr $C$DW$106, DW_AT_data_member_location[DW_OP_plus_uconst 0x0]
    2278                      .dwattr $C$DW$106, DW_AT_accessibility(DW_ACCESS_public)
    2279              
    2280              $C$DW$107       .dwtag  DW_TAG_member
    2281                      .dwattr $C$DW$107, DW_AT_type(*$C$DW$T$29)
    2282                      .dwattr $C$DW$107, DW_AT_name("bit")
    2283                      .dwattr $C$DW$107, DW_AT_TI_symbol_name("_bit")
    2284                      .dwattr $C$DW$107, DW_AT_data_member_location[DW_OP_plus_uconst 0x0]
    2285                      .dwattr $C$DW$107, DW_AT_accessibility(DW_ACCESS_public)
    2286              
TMS320C2000 Assembler PC v15.12.1 Sun Feb 26 22:53:28 2017

Tools Copyright (c) 1996-2015 Texas Instruments Incorporated
F2837xD_SysCtrl.asm                                                  PAGE   46

    2287                      .dwendtag $C$DW$T$30
    2288              
    2289              
    2290              $C$DW$T$31      .dwtag  DW_TAG_structure_type
    2291                      .dwattr $C$DW$T$31, DW_AT_name("ANAREFTRIMC_BITS")
    2292                      .dwattr $C$DW$T$31, DW_AT_byte_size(0x02)
    2293              $C$DW$108       .dwtag  DW_TAG_member
    2294                      .dwattr $C$DW$108, DW_AT_type(*$C$DW$T$19)
    2295                      .dwattr $C$DW$108, DW_AT_name("BGVALTRIM")
    2296                      .dwattr $C$DW$108, DW_AT_TI_symbol_name("_BGVALTRIM")
    2297                      .dwattr $C$DW$108, DW_AT_bit_offset(0x0a)
    2298                      .dwattr $C$DW$108, DW_AT_bit_size(0x06)
    2299                      .dwattr $C$DW$108, DW_AT_data_member_location[DW_OP_plus_uconst 0x0]
    2300                      .dwattr $C$DW$108, DW_AT_accessibility(DW_ACCESS_public)
    2301              
    2302              $C$DW$109       .dwtag  DW_TAG_member
    2303                      .dwattr $C$DW$109, DW_AT_type(*$C$DW$T$19)
    2304                      .dwattr $C$DW$109, DW_AT_name("BGSLOPETRIM")
    2305                      .dwattr $C$DW$109, DW_AT_TI_symbol_name("_BGSLOPETRIM")
    2306                      .dwattr $C$DW$109, DW_AT_bit_offset(0x05)
    2307                      .dwattr $C$DW$109, DW_AT_bit_size(0x05)
    2308                      .dwattr $C$DW$109, DW_AT_data_member_location[DW_OP_plus_uconst 0x0]
    2309                      .dwattr $C$DW$109, DW_AT_accessibility(DW_ACCESS_public)
    2310              
    2311              $C$DW$110       .dwtag  DW_TAG_member
    2312                      .dwattr $C$DW$110, DW_AT_type(*$C$DW$T$19)
    2313                      .dwattr $C$DW$110, DW_AT_name("IREFTRIM")
    2314                      .dwattr $C$DW$110, DW_AT_TI_symbol_name("_IREFTRIM")
    2315                      .dwattr $C$DW$110, DW_AT_bit_offset(0x00)
    2316                      .dwattr $C$DW$110, DW_AT_bit_size(0x05)
    2317                      .dwattr $C$DW$110, DW_AT_data_member_location[DW_OP_plus_uconst 0x0]
    2318                      .dwattr $C$DW$110, DW_AT_accessibility(DW_ACCESS_public)
    2319              
    2320              $C$DW$111       .dwtag  DW_TAG_member
    2321                      .dwattr $C$DW$111, DW_AT_type(*$C$DW$T$19)
    2322                      .dwattr $C$DW$111, DW_AT_name("rsvd1")
    2323                      .dwattr $C$DW$111, DW_AT_TI_symbol_name("_rsvd1")
    2324                      .dwattr $C$DW$111, DW_AT_bit_offset(0x08)
    2325                      .dwattr $C$DW$111, DW_AT_bit_size(0x08)
    2326                      .dwattr $C$DW$111, DW_AT_data_member_location[DW_OP_plus_uconst 0x1]
    2327                      .dwattr $C$DW$111, DW_AT_accessibility(DW_ACCESS_public)
    2328              
    2329              $C$DW$112       .dwtag  DW_TAG_member
    2330                      .dwattr $C$DW$112, DW_AT_type(*$C$DW$T$19)
    2331                      .dwattr $C$DW$112, DW_AT_name("rsvd2")
    2332                      .dwattr $C$DW$112, DW_AT_TI_symbol_name("_rsvd2")
    2333                      .dwattr $C$DW$112, DW_AT_bit_offset(0x00)
    2334                      .dwattr $C$DW$112, DW_AT_bit_size(0x08)
    2335                      .dwattr $C$DW$112, DW_AT_data_member_location[DW_OP_plus_uconst 0x1]
    2336                      .dwattr $C$DW$112, DW_AT_accessibility(DW_ACCESS_public)
    2337              
    2338                      .dwendtag $C$DW$T$31
    2339              
    2340              
    2341              $C$DW$T$32      .dwtag  DW_TAG_union_type
TMS320C2000 Assembler PC v15.12.1 Sun Feb 26 22:53:28 2017

Tools Copyright (c) 1996-2015 Texas Instruments Incorporated
F2837xD_SysCtrl.asm                                                  PAGE   47

    2342                      .dwattr $C$DW$T$32, DW_AT_name("ANAREFTRIMC_REG")
    2343                      .dwattr $C$DW$T$32, DW_AT_byte_size(0x02)
    2344              $C$DW$113       .dwtag  DW_TAG_member
    2345                      .dwattr $C$DW$113, DW_AT_type(*$C$DW$T$27)
    2346                      .dwattr $C$DW$113, DW_AT_name("all")
    2347                      .dwattr $C$DW$113, DW_AT_TI_symbol_name("_all")
    2348                      .dwattr $C$DW$113, DW_AT_data_member_location[DW_OP_plus_uconst 0x0]
    2349                      .dwattr $C$DW$113, DW_AT_accessibility(DW_ACCESS_public)
    2350              
    2351              $C$DW$114       .dwtag  DW_TAG_member
    2352                      .dwattr $C$DW$114, DW_AT_type(*$C$DW$T$31)
    2353                      .dwattr $C$DW$114, DW_AT_name("bit")
    2354                      .dwattr $C$DW$114, DW_AT_TI_symbol_name("_bit")
    2355                      .dwattr $C$DW$114, DW_AT_data_member_location[DW_OP_plus_uconst 0x0]
    2356                      .dwattr $C$DW$114, DW_AT_accessibility(DW_ACCESS_public)
    2357              
    2358                      .dwendtag $C$DW$T$32
    2359              
    2360              
    2361              $C$DW$T$33      .dwtag  DW_TAG_structure_type
    2362                      .dwattr $C$DW$T$33, DW_AT_name("ANAREFTRIMD_BITS")
    2363                      .dwattr $C$DW$T$33, DW_AT_byte_size(0x02)
    2364              $C$DW$115       .dwtag  DW_TAG_member
    2365                      .dwattr $C$DW$115, DW_AT_type(*$C$DW$T$19)
    2366                      .dwattr $C$DW$115, DW_AT_name("BGVALTRIM")
    2367                      .dwattr $C$DW$115, DW_AT_TI_symbol_name("_BGVALTRIM")
    2368                      .dwattr $C$DW$115, DW_AT_bit_offset(0x0a)
    2369                      .dwattr $C$DW$115, DW_AT_bit_size(0x06)
    2370                      .dwattr $C$DW$115, DW_AT_data_member_location[DW_OP_plus_uconst 0x0]
    2371                      .dwattr $C$DW$115, DW_AT_accessibility(DW_ACCESS_public)
    2372              
    2373              $C$DW$116       .dwtag  DW_TAG_member
    2374                      .dwattr $C$DW$116, DW_AT_type(*$C$DW$T$19)
    2375                      .dwattr $C$DW$116, DW_AT_name("BGSLOPETRIM")
    2376                      .dwattr $C$DW$116, DW_AT_TI_symbol_name("_BGSLOPETRIM")
    2377                      .dwattr $C$DW$116, DW_AT_bit_offset(0x05)
    2378                      .dwattr $C$DW$116, DW_AT_bit_size(0x05)
    2379                      .dwattr $C$DW$116, DW_AT_data_member_location[DW_OP_plus_uconst 0x0]
    2380                      .dwattr $C$DW$116, DW_AT_accessibility(DW_ACCESS_public)
    2381              
    2382              $C$DW$117       .dwtag  DW_TAG_member
    2383                      .dwattr $C$DW$117, DW_AT_type(*$C$DW$T$19)
    2384                      .dwattr $C$DW$117, DW_AT_name("IREFTRIM")
    2385                      .dwattr $C$DW$117, DW_AT_TI_symbol_name("_IREFTRIM")
    2386                      .dwattr $C$DW$117, DW_AT_bit_offset(0x00)
    2387                      .dwattr $C$DW$117, DW_AT_bit_size(0x05)
    2388                      .dwattr $C$DW$117, DW_AT_data_member_location[DW_OP_plus_uconst 0x0]
    2389                      .dwattr $C$DW$117, DW_AT_accessibility(DW_ACCESS_public)
    2390              
    2391              $C$DW$118       .dwtag  DW_TAG_member
    2392                      .dwattr $C$DW$118, DW_AT_type(*$C$DW$T$19)
    2393                      .dwattr $C$DW$118, DW_AT_name("rsvd1")
    2394                      .dwattr $C$DW$118, DW_AT_TI_symbol_name("_rsvd1")
    2395                      .dwattr $C$DW$118, DW_AT_bit_offset(0x08)
    2396                      .dwattr $C$DW$118, DW_AT_bit_size(0x08)
TMS320C2000 Assembler PC v15.12.1 Sun Feb 26 22:53:28 2017

Tools Copyright (c) 1996-2015 Texas Instruments Incorporated
F2837xD_SysCtrl.asm                                                  PAGE   48

    2397                      .dwattr $C$DW$118, DW_AT_data_member_location[DW_OP_plus_uconst 0x1]
    2398                      .dwattr $C$DW$118, DW_AT_accessibility(DW_ACCESS_public)
    2399              
    2400              $C$DW$119       .dwtag  DW_TAG_member
    2401                      .dwattr $C$DW$119, DW_AT_type(*$C$DW$T$19)
    2402                      .dwattr $C$DW$119, DW_AT_name("rsvd2")
    2403                      .dwattr $C$DW$119, DW_AT_TI_symbol_name("_rsvd2")
    2404                      .dwattr $C$DW$119, DW_AT_bit_offset(0x00)
    2405                      .dwattr $C$DW$119, DW_AT_bit_size(0x08)
    2406                      .dwattr $C$DW$119, DW_AT_data_member_location[DW_OP_plus_uconst 0x1]
    2407                      .dwattr $C$DW$119, DW_AT_accessibility(DW_ACCESS_public)
    2408              
    2409                      .dwendtag $C$DW$T$33
    2410              
    2411              
    2412              $C$DW$T$34      .dwtag  DW_TAG_union_type
    2413                      .dwattr $C$DW$T$34, DW_AT_name("ANAREFTRIMD_REG")
    2414                      .dwattr $C$DW$T$34, DW_AT_byte_size(0x02)
    2415              $C$DW$120       .dwtag  DW_TAG_member
    2416                      .dwattr $C$DW$120, DW_AT_type(*$C$DW$T$27)
    2417                      .dwattr $C$DW$120, DW_AT_name("all")
    2418                      .dwattr $C$DW$120, DW_AT_TI_symbol_name("_all")
    2419                      .dwattr $C$DW$120, DW_AT_data_member_location[DW_OP_plus_uconst 0x0]
    2420                      .dwattr $C$DW$120, DW_AT_accessibility(DW_ACCESS_public)
    2421              
    2422              $C$DW$121       .dwtag  DW_TAG_member
    2423                      .dwattr $C$DW$121, DW_AT_type(*$C$DW$T$33)
    2424                      .dwattr $C$DW$121, DW_AT_name("bit")
    2425                      .dwattr $C$DW$121, DW_AT_TI_symbol_name("_bit")
    2426                      .dwattr $C$DW$121, DW_AT_data_member_location[DW_OP_plus_uconst 0x0]
    2427                      .dwattr $C$DW$121, DW_AT_accessibility(DW_ACCESS_public)
    2428              
    2429                      .dwendtag $C$DW$T$34
    2430              
    2431              
    2432              $C$DW$T$35      .dwtag  DW_TAG_structure_type
    2433                      .dwattr $C$DW$T$35, DW_AT_name("AUXCLKDIVSEL_BITS")
    2434                      .dwattr $C$DW$T$35, DW_AT_byte_size(0x02)
    2435              $C$DW$122       .dwtag  DW_TAG_member
    2436                      .dwattr $C$DW$122, DW_AT_type(*$C$DW$T$19)
    2437                      .dwattr $C$DW$122, DW_AT_name("AUXPLLDIV")
    2438                      .dwattr $C$DW$122, DW_AT_TI_symbol_name("_AUXPLLDIV")
    2439                      .dwattr $C$DW$122, DW_AT_bit_offset(0x0e)
    2440                      .dwattr $C$DW$122, DW_AT_bit_size(0x02)
    2441                      .dwattr $C$DW$122, DW_AT_data_member_location[DW_OP_plus_uconst 0x0]
    2442                      .dwattr $C$DW$122, DW_AT_accessibility(DW_ACCESS_public)
    2443              
    2444              $C$DW$123       .dwtag  DW_TAG_member
    2445                      .dwattr $C$DW$123, DW_AT_type(*$C$DW$T$19)
    2446                      .dwattr $C$DW$123, DW_AT_name("rsvd1")
    2447                      .dwattr $C$DW$123, DW_AT_TI_symbol_name("_rsvd1")
    2448                      .dwattr $C$DW$123, DW_AT_bit_offset(0x00)
    2449                      .dwattr $C$DW$123, DW_AT_bit_size(0x0e)
    2450                      .dwattr $C$DW$123, DW_AT_data_member_location[DW_OP_plus_uconst 0x0]
    2451                      .dwattr $C$DW$123, DW_AT_accessibility(DW_ACCESS_public)
TMS320C2000 Assembler PC v15.12.1 Sun Feb 26 22:53:28 2017

Tools Copyright (c) 1996-2015 Texas Instruments Incorporated
F2837xD_SysCtrl.asm                                                  PAGE   49

    2452              
    2453              $C$DW$124       .dwtag  DW_TAG_member
    2454                      .dwattr $C$DW$124, DW_AT_type(*$C$DW$T$19)
    2455                      .dwattr $C$DW$124, DW_AT_name("rsvd2")
    2456                      .dwattr $C$DW$124, DW_AT_TI_symbol_name("_rsvd2")
    2457                      .dwattr $C$DW$124, DW_AT_bit_offset(0x00)
    2458                      .dwattr $C$DW$124, DW_AT_bit_size(0x10)
    2459                      .dwattr $C$DW$124, DW_AT_data_member_location[DW_OP_plus_uconst 0x1]
    2460                      .dwattr $C$DW$124, DW_AT_accessibility(DW_ACCESS_public)
    2461              
    2462                      .dwendtag $C$DW$T$35
    2463              
    2464              
    2465              $C$DW$T$36      .dwtag  DW_TAG_union_type
    2466                      .dwattr $C$DW$T$36, DW_AT_name("AUXCLKDIVSEL_REG")
    2467                      .dwattr $C$DW$T$36, DW_AT_byte_size(0x02)
    2468              $C$DW$125       .dwtag  DW_TAG_member
    2469                      .dwattr $C$DW$125, DW_AT_type(*$C$DW$T$27)
    2470                      .dwattr $C$DW$125, DW_AT_name("all")
    2471                      .dwattr $C$DW$125, DW_AT_TI_symbol_name("_all")
    2472                      .dwattr $C$DW$125, DW_AT_data_member_location[DW_OP_plus_uconst 0x0]
    2473                      .dwattr $C$DW$125, DW_AT_accessibility(DW_ACCESS_public)
    2474              
    2475              $C$DW$126       .dwtag  DW_TAG_member
    2476                      .dwattr $C$DW$126, DW_AT_type(*$C$DW$T$35)
    2477                      .dwattr $C$DW$126, DW_AT_name("bit")
    2478                      .dwattr $C$DW$126, DW_AT_TI_symbol_name("_bit")
    2479                      .dwattr $C$DW$126, DW_AT_data_member_location[DW_OP_plus_uconst 0x0]
    2480                      .dwattr $C$DW$126, DW_AT_accessibility(DW_ACCESS_public)
    2481              
    2482                      .dwendtag $C$DW$T$36
    2483              
    2484              
    2485              $C$DW$T$37      .dwtag  DW_TAG_structure_type
    2486                      .dwattr $C$DW$T$37, DW_AT_name("AUXPLLCTL1_BITS")
    2487                      .dwattr $C$DW$T$37, DW_AT_byte_size(0x02)
    2488              $C$DW$127       .dwtag  DW_TAG_member
    2489                      .dwattr $C$DW$127, DW_AT_type(*$C$DW$T$19)
    2490                      .dwattr $C$DW$127, DW_AT_name("PLLEN")
    2491                      .dwattr $C$DW$127, DW_AT_TI_symbol_name("_PLLEN")
    2492                      .dwattr $C$DW$127, DW_AT_bit_offset(0x0f)
    2493                      .dwattr $C$DW$127, DW_AT_bit_size(0x01)
    2494                      .dwattr $C$DW$127, DW_AT_data_member_location[DW_OP_plus_uconst 0x0]
    2495                      .dwattr $C$DW$127, DW_AT_accessibility(DW_ACCESS_public)
    2496              
    2497              $C$DW$128       .dwtag  DW_TAG_member
    2498                      .dwattr $C$DW$128, DW_AT_type(*$C$DW$T$19)
    2499                      .dwattr $C$DW$128, DW_AT_name("PLLCLKEN")
    2500                      .dwattr $C$DW$128, DW_AT_TI_symbol_name("_PLLCLKEN")
    2501                      .dwattr $C$DW$128, DW_AT_bit_offset(0x0e)
    2502                      .dwattr $C$DW$128, DW_AT_bit_size(0x01)
    2503                      .dwattr $C$DW$128, DW_AT_data_member_location[DW_OP_plus_uconst 0x0]
    2504                      .dwattr $C$DW$128, DW_AT_accessibility(DW_ACCESS_public)
    2505              
    2506              $C$DW$129       .dwtag  DW_TAG_member
TMS320C2000 Assembler PC v15.12.1 Sun Feb 26 22:53:28 2017

Tools Copyright (c) 1996-2015 Texas Instruments Incorporated
F2837xD_SysCtrl.asm                                                  PAGE   50

    2507                      .dwattr $C$DW$129, DW_AT_type(*$C$DW$T$19)
    2508                      .dwattr $C$DW$129, DW_AT_name("rsvd1")
    2509                      .dwattr $C$DW$129, DW_AT_TI_symbol_name("_rsvd1")
    2510                      .dwattr $C$DW$129, DW_AT_bit_offset(0x00)
    2511                      .dwattr $C$DW$129, DW_AT_bit_size(0x0e)
    2512                      .dwattr $C$DW$129, DW_AT_data_member_location[DW_OP_plus_uconst 0x0]
    2513                      .dwattr $C$DW$129, DW_AT_accessibility(DW_ACCESS_public)
    2514              
    2515              $C$DW$130       .dwtag  DW_TAG_member
    2516                      .dwattr $C$DW$130, DW_AT_type(*$C$DW$T$19)
    2517                      .dwattr $C$DW$130, DW_AT_name("rsvd2")
    2518                      .dwattr $C$DW$130, DW_AT_TI_symbol_name("_rsvd2")
    2519                      .dwattr $C$DW$130, DW_AT_bit_offset(0x00)
    2520                      .dwattr $C$DW$130, DW_AT_bit_size(0x10)
    2521                      .dwattr $C$DW$130, DW_AT_data_member_location[DW_OP_plus_uconst 0x1]
    2522                      .dwattr $C$DW$130, DW_AT_accessibility(DW_ACCESS_public)
    2523              
    2524                      .dwendtag $C$DW$T$37
    2525              
    2526              
    2527              $C$DW$T$38      .dwtag  DW_TAG_union_type
    2528                      .dwattr $C$DW$T$38, DW_AT_name("AUXPLLCTL1_REG")
    2529                      .dwattr $C$DW$T$38, DW_AT_byte_size(0x02)
    2530              $C$DW$131       .dwtag  DW_TAG_member
    2531                      .dwattr $C$DW$131, DW_AT_type(*$C$DW$T$27)
    2532                      .dwattr $C$DW$131, DW_AT_name("all")
    2533                      .dwattr $C$DW$131, DW_AT_TI_symbol_name("_all")
    2534                      .dwattr $C$DW$131, DW_AT_data_member_location[DW_OP_plus_uconst 0x0]
    2535                      .dwattr $C$DW$131, DW_AT_accessibility(DW_ACCESS_public)
    2536              
    2537              $C$DW$132       .dwtag  DW_TAG_member
    2538                      .dwattr $C$DW$132, DW_AT_type(*$C$DW$T$37)
    2539                      .dwattr $C$DW$132, DW_AT_name("bit")
    2540                      .dwattr $C$DW$132, DW_AT_TI_symbol_name("_bit")
    2541                      .dwattr $C$DW$132, DW_AT_data_member_location[DW_OP_plus_uconst 0x0]
    2542                      .dwattr $C$DW$132, DW_AT_accessibility(DW_ACCESS_public)
    2543              
    2544                      .dwendtag $C$DW$T$38
    2545              
    2546              
    2547              $C$DW$T$39      .dwtag  DW_TAG_structure_type
    2548                      .dwattr $C$DW$T$39, DW_AT_name("AUXPLLMULT_BITS")
    2549                      .dwattr $C$DW$T$39, DW_AT_byte_size(0x02)
    2550              $C$DW$133       .dwtag  DW_TAG_member
    2551                      .dwattr $C$DW$133, DW_AT_type(*$C$DW$T$19)
    2552                      .dwattr $C$DW$133, DW_AT_name("IMULT")
    2553                      .dwattr $C$DW$133, DW_AT_TI_symbol_name("_IMULT")
    2554                      .dwattr $C$DW$133, DW_AT_bit_offset(0x09)
    2555                      .dwattr $C$DW$133, DW_AT_bit_size(0x07)
    2556                      .dwattr $C$DW$133, DW_AT_data_member_location[DW_OP_plus_uconst 0x0]
    2557                      .dwattr $C$DW$133, DW_AT_accessibility(DW_ACCESS_public)
    2558              
    2559              $C$DW$134       .dwtag  DW_TAG_member
    2560                      .dwattr $C$DW$134, DW_AT_type(*$C$DW$T$19)
    2561                      .dwattr $C$DW$134, DW_AT_name("rsvd1")
TMS320C2000 Assembler PC v15.12.1 Sun Feb 26 22:53:28 2017

Tools Copyright (c) 1996-2015 Texas Instruments Incorporated
F2837xD_SysCtrl.asm                                                  PAGE   51

    2562                      .dwattr $C$DW$134, DW_AT_TI_symbol_name("_rsvd1")
    2563                      .dwattr $C$DW$134, DW_AT_bit_offset(0x08)
    2564                      .dwattr $C$DW$134, DW_AT_bit_size(0x01)
    2565                      .dwattr $C$DW$134, DW_AT_data_member_location[DW_OP_plus_uconst 0x0]
    2566                      .dwattr $C$DW$134, DW_AT_accessibility(DW_ACCESS_public)
    2567              
    2568              $C$DW$135       .dwtag  DW_TAG_member
    2569                      .dwattr $C$DW$135, DW_AT_type(*$C$DW$T$19)
    2570                      .dwattr $C$DW$135, DW_AT_name("FMULT")
    2571                      .dwattr $C$DW$135, DW_AT_TI_symbol_name("_FMULT")
    2572                      .dwattr $C$DW$135, DW_AT_bit_offset(0x06)
    2573                      .dwattr $C$DW$135, DW_AT_bit_size(0x02)
    2574                      .dwattr $C$DW$135, DW_AT_data_member_location[DW_OP_plus_uconst 0x0]
    2575                      .dwattr $C$DW$135, DW_AT_accessibility(DW_ACCESS_public)
    2576              
    2577              $C$DW$136       .dwtag  DW_TAG_member
    2578                      .dwattr $C$DW$136, DW_AT_type(*$C$DW$T$19)
    2579                      .dwattr $C$DW$136, DW_AT_name("rsvd2")
    2580                      .dwattr $C$DW$136, DW_AT_TI_symbol_name("_rsvd2")
    2581                      .dwattr $C$DW$136, DW_AT_bit_offset(0x00)
    2582                      .dwattr $C$DW$136, DW_AT_bit_size(0x06)
    2583                      .dwattr $C$DW$136, DW_AT_data_member_location[DW_OP_plus_uconst 0x0]
    2584                      .dwattr $C$DW$136, DW_AT_accessibility(DW_ACCESS_public)
    2585              
    2586              $C$DW$137       .dwtag  DW_TAG_member
    2587                      .dwattr $C$DW$137, DW_AT_type(*$C$DW$T$19)
    2588                      .dwattr $C$DW$137, DW_AT_name("rsvd3")
    2589                      .dwattr $C$DW$137, DW_AT_TI_symbol_name("_rsvd3")
    2590                      .dwattr $C$DW$137, DW_AT_bit_offset(0x00)
    2591                      .dwattr $C$DW$137, DW_AT_bit_size(0x10)
    2592                      .dwattr $C$DW$137, DW_AT_data_member_location[DW_OP_plus_uconst 0x1]
    2593                      .dwattr $C$DW$137, DW_AT_accessibility(DW_ACCESS_public)
    2594              
    2595                      .dwendtag $C$DW$T$39
    2596              
    2597              
    2598              $C$DW$T$40      .dwtag  DW_TAG_union_type
    2599                      .dwattr $C$DW$T$40, DW_AT_name("AUXPLLMULT_REG")
    2600                      .dwattr $C$DW$T$40, DW_AT_byte_size(0x02)
    2601              $C$DW$138       .dwtag  DW_TAG_member
    2602                      .dwattr $C$DW$138, DW_AT_type(*$C$DW$T$27)
    2603                      .dwattr $C$DW$138, DW_AT_name("all")
    2604                      .dwattr $C$DW$138, DW_AT_TI_symbol_name("_all")
    2605                      .dwattr $C$DW$138, DW_AT_data_member_location[DW_OP_plus_uconst 0x0]
    2606                      .dwattr $C$DW$138, DW_AT_accessibility(DW_ACCESS_public)
    2607              
    2608              $C$DW$139       .dwtag  DW_TAG_member
    2609                      .dwattr $C$DW$139, DW_AT_type(*$C$DW$T$39)
    2610                      .dwattr $C$DW$139, DW_AT_name("bit")
    2611                      .dwattr $C$DW$139, DW_AT_TI_symbol_name("_bit")
    2612                      .dwattr $C$DW$139, DW_AT_data_member_location[DW_OP_plus_uconst 0x0]
    2613                      .dwattr $C$DW$139, DW_AT_accessibility(DW_ACCESS_public)
    2614              
    2615                      .dwendtag $C$DW$T$40
    2616              
TMS320C2000 Assembler PC v15.12.1 Sun Feb 26 22:53:28 2017

Tools Copyright (c) 1996-2015 Texas Instruments Incorporated
F2837xD_SysCtrl.asm                                                  PAGE   52

    2617              
    2618              $C$DW$T$41      .dwtag  DW_TAG_structure_type
    2619                      .dwattr $C$DW$T$41, DW_AT_name("AUXPLLSTS_BITS")
    2620                      .dwattr $C$DW$T$41, DW_AT_byte_size(0x02)
    2621              $C$DW$140       .dwtag  DW_TAG_member
    2622                      .dwattr $C$DW$140, DW_AT_type(*$C$DW$T$19)
    2623                      .dwattr $C$DW$140, DW_AT_name("LOCKS")
    2624                      .dwattr $C$DW$140, DW_AT_TI_symbol_name("_LOCKS")
    2625                      .dwattr $C$DW$140, DW_AT_bit_offset(0x0f)
    2626                      .dwattr $C$DW$140, DW_AT_bit_size(0x01)
    2627                      .dwattr $C$DW$140, DW_AT_data_member_location[DW_OP_plus_uconst 0x0]
    2628                      .dwattr $C$DW$140, DW_AT_accessibility(DW_ACCESS_public)
    2629              
    2630              $C$DW$141       .dwtag  DW_TAG_member
    2631                      .dwattr $C$DW$141, DW_AT_type(*$C$DW$T$19)
    2632                      .dwattr $C$DW$141, DW_AT_name("SLIPS")
    2633                      .dwattr $C$DW$141, DW_AT_TI_symbol_name("_SLIPS")
    2634                      .dwattr $C$DW$141, DW_AT_bit_offset(0x0e)
    2635                      .dwattr $C$DW$141, DW_AT_bit_size(0x01)
    2636                      .dwattr $C$DW$141, DW_AT_data_member_location[DW_OP_plus_uconst 0x0]
    2637                      .dwattr $C$DW$141, DW_AT_accessibility(DW_ACCESS_public)
    2638              
    2639              $C$DW$142       .dwtag  DW_TAG_member
    2640                      .dwattr $C$DW$142, DW_AT_type(*$C$DW$T$19)
    2641                      .dwattr $C$DW$142, DW_AT_name("rsvd1")
    2642                      .dwattr $C$DW$142, DW_AT_TI_symbol_name("_rsvd1")
    2643                      .dwattr $C$DW$142, DW_AT_bit_offset(0x00)
    2644                      .dwattr $C$DW$142, DW_AT_bit_size(0x0e)
    2645                      .dwattr $C$DW$142, DW_AT_data_member_location[DW_OP_plus_uconst 0x0]
    2646                      .dwattr $C$DW$142, DW_AT_accessibility(DW_ACCESS_public)
    2647              
    2648              $C$DW$143       .dwtag  DW_TAG_member
    2649                      .dwattr $C$DW$143, DW_AT_type(*$C$DW$T$19)
    2650                      .dwattr $C$DW$143, DW_AT_name("rsvd2")
    2651                      .dwattr $C$DW$143, DW_AT_TI_symbol_name("_rsvd2")
    2652                      .dwattr $C$DW$143, DW_AT_bit_offset(0x00)
    2653                      .dwattr $C$DW$143, DW_AT_bit_size(0x10)
    2654                      .dwattr $C$DW$143, DW_AT_data_member_location[DW_OP_plus_uconst 0x1]
    2655                      .dwattr $C$DW$143, DW_AT_accessibility(DW_ACCESS_public)
    2656              
    2657                      .dwendtag $C$DW$T$41
    2658              
    2659              
    2660              $C$DW$T$42      .dwtag  DW_TAG_union_type
    2661                      .dwattr $C$DW$T$42, DW_AT_name("AUXPLLSTS_REG")
    2662                      .dwattr $C$DW$T$42, DW_AT_byte_size(0x02)
    2663              $C$DW$144       .dwtag  DW_TAG_member
    2664                      .dwattr $C$DW$144, DW_AT_type(*$C$DW$T$27)
    2665                      .dwattr $C$DW$144, DW_AT_name("all")
    2666                      .dwattr $C$DW$144, DW_AT_TI_symbol_name("_all")
    2667                      .dwattr $C$DW$144, DW_AT_data_member_location[DW_OP_plus_uconst 0x0]
    2668                      .dwattr $C$DW$144, DW_AT_accessibility(DW_ACCESS_public)
    2669              
    2670              $C$DW$145       .dwtag  DW_TAG_member
    2671                      .dwattr $C$DW$145, DW_AT_type(*$C$DW$T$41)
TMS320C2000 Assembler PC v15.12.1 Sun Feb 26 22:53:28 2017

Tools Copyright (c) 1996-2015 Texas Instruments Incorporated
F2837xD_SysCtrl.asm                                                  PAGE   53

    2672                      .dwattr $C$DW$145, DW_AT_name("bit")
    2673                      .dwattr $C$DW$145, DW_AT_TI_symbol_name("_bit")
    2674                      .dwattr $C$DW$145, DW_AT_data_member_location[DW_OP_plus_uconst 0x0]
    2675                      .dwattr $C$DW$145, DW_AT_accessibility(DW_ACCESS_public)
    2676              
    2677                      .dwendtag $C$DW$T$42
    2678              
    2679              
    2680              $C$DW$T$43      .dwtag  DW_TAG_structure_type
    2681                      .dwattr $C$DW$T$43, DW_AT_name("CLKCFGLOCK1_BITS")
    2682                      .dwattr $C$DW$T$43, DW_AT_byte_size(0x02)
    2683              $C$DW$146       .dwtag  DW_TAG_member
    2684                      .dwattr $C$DW$146, DW_AT_type(*$C$DW$T$19)
    2685                      .dwattr $C$DW$146, DW_AT_name("CLKSRCCTL1")
    2686                      .dwattr $C$DW$146, DW_AT_TI_symbol_name("_CLKSRCCTL1")
    2687                      .dwattr $C$DW$146, DW_AT_bit_offset(0x0f)
    2688                      .dwattr $C$DW$146, DW_AT_bit_size(0x01)
    2689                      .dwattr $C$DW$146, DW_AT_data_member_location[DW_OP_plus_uconst 0x0]
    2690                      .dwattr $C$DW$146, DW_AT_accessibility(DW_ACCESS_public)
    2691              
    2692              $C$DW$147       .dwtag  DW_TAG_member
    2693                      .dwattr $C$DW$147, DW_AT_type(*$C$DW$T$19)
    2694                      .dwattr $C$DW$147, DW_AT_name("CLKSRCCTL2")
    2695                      .dwattr $C$DW$147, DW_AT_TI_symbol_name("_CLKSRCCTL2")
    2696                      .dwattr $C$DW$147, DW_AT_bit_offset(0x0e)
    2697                      .dwattr $C$DW$147, DW_AT_bit_size(0x01)
    2698                      .dwattr $C$DW$147, DW_AT_data_member_location[DW_OP_plus_uconst 0x0]
    2699                      .dwattr $C$DW$147, DW_AT_accessibility(DW_ACCESS_public)
    2700              
    2701              $C$DW$148       .dwtag  DW_TAG_member
    2702                      .dwattr $C$DW$148, DW_AT_type(*$C$DW$T$19)
    2703                      .dwattr $C$DW$148, DW_AT_name("CLKSRCCTL3")
    2704                      .dwattr $C$DW$148, DW_AT_TI_symbol_name("_CLKSRCCTL3")
    2705                      .dwattr $C$DW$148, DW_AT_bit_offset(0x0d)
    2706                      .dwattr $C$DW$148, DW_AT_bit_size(0x01)
    2707                      .dwattr $C$DW$148, DW_AT_data_member_location[DW_OP_plus_uconst 0x0]
    2708                      .dwattr $C$DW$148, DW_AT_accessibility(DW_ACCESS_public)
    2709              
    2710              $C$DW$149       .dwtag  DW_TAG_member
    2711                      .dwattr $C$DW$149, DW_AT_type(*$C$DW$T$19)
    2712                      .dwattr $C$DW$149, DW_AT_name("SYSPLLCTL1")
    2713                      .dwattr $C$DW$149, DW_AT_TI_symbol_name("_SYSPLLCTL1")
    2714                      .dwattr $C$DW$149, DW_AT_bit_offset(0x0c)
    2715                      .dwattr $C$DW$149, DW_AT_bit_size(0x01)
    2716                      .dwattr $C$DW$149, DW_AT_data_member_location[DW_OP_plus_uconst 0x0]
    2717                      .dwattr $C$DW$149, DW_AT_accessibility(DW_ACCESS_public)
    2718              
    2719              $C$DW$150       .dwtag  DW_TAG_member
    2720                      .dwattr $C$DW$150, DW_AT_type(*$C$DW$T$19)
    2721                      .dwattr $C$DW$150, DW_AT_name("SYSPLLCTL2")
    2722                      .dwattr $C$DW$150, DW_AT_TI_symbol_name("_SYSPLLCTL2")
    2723                      .dwattr $C$DW$150, DW_AT_bit_offset(0x0b)
    2724                      .dwattr $C$DW$150, DW_AT_bit_size(0x01)
    2725                      .dwattr $C$DW$150, DW_AT_data_member_location[DW_OP_plus_uconst 0x0]
    2726                      .dwattr $C$DW$150, DW_AT_accessibility(DW_ACCESS_public)
TMS320C2000 Assembler PC v15.12.1 Sun Feb 26 22:53:28 2017

Tools Copyright (c) 1996-2015 Texas Instruments Incorporated
F2837xD_SysCtrl.asm                                                  PAGE   54

    2727              
    2728              $C$DW$151       .dwtag  DW_TAG_member
    2729                      .dwattr $C$DW$151, DW_AT_type(*$C$DW$T$19)
    2730                      .dwattr $C$DW$151, DW_AT_name("SYSPLLCTL3")
    2731                      .dwattr $C$DW$151, DW_AT_TI_symbol_name("_SYSPLLCTL3")
    2732                      .dwattr $C$DW$151, DW_AT_bit_offset(0x0a)
    2733                      .dwattr $C$DW$151, DW_AT_bit_size(0x01)
    2734                      .dwattr $C$DW$151, DW_AT_data_member_location[DW_OP_plus_uconst 0x0]
    2735                      .dwattr $C$DW$151, DW_AT_accessibility(DW_ACCESS_public)
    2736              
    2737              $C$DW$152       .dwtag  DW_TAG_member
    2738                      .dwattr $C$DW$152, DW_AT_type(*$C$DW$T$19)
    2739                      .dwattr $C$DW$152, DW_AT_name("SYSPLLMULT")
    2740                      .dwattr $C$DW$152, DW_AT_TI_symbol_name("_SYSPLLMULT")
    2741                      .dwattr $C$DW$152, DW_AT_bit_offset(0x09)
    2742                      .dwattr $C$DW$152, DW_AT_bit_size(0x01)
    2743                      .dwattr $C$DW$152, DW_AT_data_member_location[DW_OP_plus_uconst 0x0]
    2744                      .dwattr $C$DW$152, DW_AT_accessibility(DW_ACCESS_public)
    2745              
    2746              $C$DW$153       .dwtag  DW_TAG_member
    2747                      .dwattr $C$DW$153, DW_AT_type(*$C$DW$T$19)
    2748                      .dwattr $C$DW$153, DW_AT_name("AUXPLLCTL1")
    2749                      .dwattr $C$DW$153, DW_AT_TI_symbol_name("_AUXPLLCTL1")
    2750                      .dwattr $C$DW$153, DW_AT_bit_offset(0x08)
    2751                      .dwattr $C$DW$153, DW_AT_bit_size(0x01)
    2752                      .dwattr $C$DW$153, DW_AT_data_member_location[DW_OP_plus_uconst 0x0]
    2753                      .dwattr $C$DW$153, DW_AT_accessibility(DW_ACCESS_public)
    2754              
    2755              $C$DW$154       .dwtag  DW_TAG_member
    2756                      .dwattr $C$DW$154, DW_AT_type(*$C$DW$T$19)
    2757                      .dwattr $C$DW$154, DW_AT_name("rsvd1")
    2758                      .dwattr $C$DW$154, DW_AT_TI_symbol_name("_rsvd1")
    2759                      .dwattr $C$DW$154, DW_AT_bit_offset(0x07)
    2760                      .dwattr $C$DW$154, DW_AT_bit_size(0x01)
    2761                      .dwattr $C$DW$154, DW_AT_data_member_location[DW_OP_plus_uconst 0x0]
    2762                      .dwattr $C$DW$154, DW_AT_accessibility(DW_ACCESS_public)
    2763              
    2764              $C$DW$155       .dwtag  DW_TAG_member
    2765                      .dwattr $C$DW$155, DW_AT_type(*$C$DW$T$19)
    2766                      .dwattr $C$DW$155, DW_AT_name("rsvd2")
    2767                      .dwattr $C$DW$155, DW_AT_TI_symbol_name("_rsvd2")
    2768                      .dwattr $C$DW$155, DW_AT_bit_offset(0x06)
    2769                      .dwattr $C$DW$155, DW_AT_bit_size(0x01)
    2770                      .dwattr $C$DW$155, DW_AT_data_member_location[DW_OP_plus_uconst 0x0]
    2771                      .dwattr $C$DW$155, DW_AT_accessibility(DW_ACCESS_public)
    2772              
    2773              $C$DW$156       .dwtag  DW_TAG_member
    2774                      .dwattr $C$DW$156, DW_AT_type(*$C$DW$T$19)
    2775                      .dwattr $C$DW$156, DW_AT_name("AUXPLLMULT")
    2776                      .dwattr $C$DW$156, DW_AT_TI_symbol_name("_AUXPLLMULT")
    2777                      .dwattr $C$DW$156, DW_AT_bit_offset(0x05)
    2778                      .dwattr $C$DW$156, DW_AT_bit_size(0x01)
    2779                      .dwattr $C$DW$156, DW_AT_data_member_location[DW_OP_plus_uconst 0x0]
    2780                      .dwattr $C$DW$156, DW_AT_accessibility(DW_ACCESS_public)
    2781              
TMS320C2000 Assembler PC v15.12.1 Sun Feb 26 22:53:28 2017

Tools Copyright (c) 1996-2015 Texas Instruments Incorporated
F2837xD_SysCtrl.asm                                                  PAGE   55

    2782              $C$DW$157       .dwtag  DW_TAG_member
    2783                      .dwattr $C$DW$157, DW_AT_type(*$C$DW$T$19)
    2784                      .dwattr $C$DW$157, DW_AT_name("SYSCLKDIVSEL")
    2785                      .dwattr $C$DW$157, DW_AT_TI_symbol_name("_SYSCLKDIVSEL")
    2786                      .dwattr $C$DW$157, DW_AT_bit_offset(0x04)
    2787                      .dwattr $C$DW$157, DW_AT_bit_size(0x01)
    2788                      .dwattr $C$DW$157, DW_AT_data_member_location[DW_OP_plus_uconst 0x0]
    2789                      .dwattr $C$DW$157, DW_AT_accessibility(DW_ACCESS_public)
    2790              
    2791              $C$DW$158       .dwtag  DW_TAG_member
    2792                      .dwattr $C$DW$158, DW_AT_type(*$C$DW$T$19)
    2793                      .dwattr $C$DW$158, DW_AT_name("AUXCLKDIVSEL")
    2794                      .dwattr $C$DW$158, DW_AT_TI_symbol_name("_AUXCLKDIVSEL")
    2795                      .dwattr $C$DW$158, DW_AT_bit_offset(0x03)
    2796                      .dwattr $C$DW$158, DW_AT_bit_size(0x01)
    2797                      .dwattr $C$DW$158, DW_AT_data_member_location[DW_OP_plus_uconst 0x0]
    2798                      .dwattr $C$DW$158, DW_AT_accessibility(DW_ACCESS_public)
    2799              
    2800              $C$DW$159       .dwtag  DW_TAG_member
    2801                      .dwattr $C$DW$159, DW_AT_type(*$C$DW$T$19)
    2802                      .dwattr $C$DW$159, DW_AT_name("PERCLKDIVSEL")
    2803                      .dwattr $C$DW$159, DW_AT_TI_symbol_name("_PERCLKDIVSEL")
    2804                      .dwattr $C$DW$159, DW_AT_bit_offset(0x02)
    2805                      .dwattr $C$DW$159, DW_AT_bit_size(0x01)
    2806                      .dwattr $C$DW$159, DW_AT_data_member_location[DW_OP_plus_uconst 0x0]
    2807                      .dwattr $C$DW$159, DW_AT_accessibility(DW_ACCESS_public)
    2808              
    2809              $C$DW$160       .dwtag  DW_TAG_member
    2810                      .dwattr $C$DW$160, DW_AT_type(*$C$DW$T$19)
    2811                      .dwattr $C$DW$160, DW_AT_name("rsvd3")
    2812                      .dwattr $C$DW$160, DW_AT_TI_symbol_name("_rsvd3")
    2813                      .dwattr $C$DW$160, DW_AT_bit_offset(0x01)
    2814                      .dwattr $C$DW$160, DW_AT_bit_size(0x01)
    2815                      .dwattr $C$DW$160, DW_AT_data_member_location[DW_OP_plus_uconst 0x0]
    2816                      .dwattr $C$DW$160, DW_AT_accessibility(DW_ACCESS_public)
    2817              
    2818              $C$DW$161       .dwtag  DW_TAG_member
    2819                      .dwattr $C$DW$161, DW_AT_type(*$C$DW$T$19)
    2820                      .dwattr $C$DW$161, DW_AT_name("LOSPCP")
    2821                      .dwattr $C$DW$161, DW_AT_TI_symbol_name("_LOSPCP")
    2822                      .dwattr $C$DW$161, DW_AT_bit_offset(0x00)
    2823                      .dwattr $C$DW$161, DW_AT_bit_size(0x01)
    2824                      .dwattr $C$DW$161, DW_AT_data_member_location[DW_OP_plus_uconst 0x0]
    2825                      .dwattr $C$DW$161, DW_AT_accessibility(DW_ACCESS_public)
    2826              
    2827              $C$DW$162       .dwtag  DW_TAG_member
    2828                      .dwattr $C$DW$162, DW_AT_type(*$C$DW$T$19)
    2829                      .dwattr $C$DW$162, DW_AT_name("rsvd4")
    2830                      .dwattr $C$DW$162, DW_AT_TI_symbol_name("_rsvd4")
    2831                      .dwattr $C$DW$162, DW_AT_bit_offset(0x00)
    2832                      .dwattr $C$DW$162, DW_AT_bit_size(0x10)
    2833                      .dwattr $C$DW$162, DW_AT_data_member_location[DW_OP_plus_uconst 0x1]
    2834                      .dwattr $C$DW$162, DW_AT_accessibility(DW_ACCESS_public)
    2835              
    2836                      .dwendtag $C$DW$T$43
TMS320C2000 Assembler PC v15.12.1 Sun Feb 26 22:53:28 2017

Tools Copyright (c) 1996-2015 Texas Instruments Incorporated
F2837xD_SysCtrl.asm                                                  PAGE   56

    2837              
    2838              
    2839              $C$DW$T$44      .dwtag  DW_TAG_union_type
    2840                      .dwattr $C$DW$T$44, DW_AT_name("CLKCFGLOCK1_REG")
    2841                      .dwattr $C$DW$T$44, DW_AT_byte_size(0x02)
    2842              $C$DW$163       .dwtag  DW_TAG_member
    2843                      .dwattr $C$DW$163, DW_AT_type(*$C$DW$T$27)
    2844                      .dwattr $C$DW$163, DW_AT_name("all")
    2845                      .dwattr $C$DW$163, DW_AT_TI_symbol_name("_all")
    2846                      .dwattr $C$DW$163, DW_AT_data_member_location[DW_OP_plus_uconst 0x0]
    2847                      .dwattr $C$DW$163, DW_AT_accessibility(DW_ACCESS_public)
    2848              
    2849              $C$DW$164       .dwtag  DW_TAG_member
    2850                      .dwattr $C$DW$164, DW_AT_type(*$C$DW$T$43)
    2851                      .dwattr $C$DW$164, DW_AT_name("bit")
    2852                      .dwattr $C$DW$164, DW_AT_TI_symbol_name("_bit")
    2853                      .dwattr $C$DW$164, DW_AT_data_member_location[DW_OP_plus_uconst 0x0]
    2854                      .dwattr $C$DW$164, DW_AT_accessibility(DW_ACCESS_public)
    2855              
    2856                      .dwendtag $C$DW$T$44
    2857              
    2858              
    2859              $C$DW$T$45      .dwtag  DW_TAG_structure_type
    2860                      .dwattr $C$DW$T$45, DW_AT_name("CLKSEM_BITS")
    2861                      .dwattr $C$DW$T$45, DW_AT_byte_size(0x02)
    2862              $C$DW$165       .dwtag  DW_TAG_member
    2863                      .dwattr $C$DW$165, DW_AT_type(*$C$DW$T$19)
    2864                      .dwattr $C$DW$165, DW_AT_name("SEM")
    2865                      .dwattr $C$DW$165, DW_AT_TI_symbol_name("_SEM")
    2866                      .dwattr $C$DW$165, DW_AT_bit_offset(0x0e)
    2867                      .dwattr $C$DW$165, DW_AT_bit_size(0x02)
    2868                      .dwattr $C$DW$165, DW_AT_data_member_location[DW_OP_plus_uconst 0x0]
    2869                      .dwattr $C$DW$165, DW_AT_accessibility(DW_ACCESS_public)
    2870              
    2871              $C$DW$166       .dwtag  DW_TAG_member
    2872                      .dwattr $C$DW$166, DW_AT_type(*$C$DW$T$19)
    2873                      .dwattr $C$DW$166, DW_AT_name("rsvd1")
    2874                      .dwattr $C$DW$166, DW_AT_TI_symbol_name("_rsvd1")
    2875                      .dwattr $C$DW$166, DW_AT_bit_offset(0x00)
    2876                      .dwattr $C$DW$166, DW_AT_bit_size(0x0e)
    2877                      .dwattr $C$DW$166, DW_AT_data_member_location[DW_OP_plus_uconst 0x0]
    2878                      .dwattr $C$DW$166, DW_AT_accessibility(DW_ACCESS_public)
    2879              
    2880              $C$DW$167       .dwtag  DW_TAG_member
    2881                      .dwattr $C$DW$167, DW_AT_type(*$C$DW$T$19)
    2882                      .dwattr $C$DW$167, DW_AT_name("KEY")
    2883                      .dwattr $C$DW$167, DW_AT_TI_symbol_name("_KEY")
    2884                      .dwattr $C$DW$167, DW_AT_bit_offset(0x00)
    2885                      .dwattr $C$DW$167, DW_AT_bit_size(0x10)
    2886                      .dwattr $C$DW$167, DW_AT_data_member_location[DW_OP_plus_uconst 0x1]
    2887                      .dwattr $C$DW$167, DW_AT_accessibility(DW_ACCESS_public)
    2888              
    2889                      .dwendtag $C$DW$T$45
    2890              
    2891              
TMS320C2000 Assembler PC v15.12.1 Sun Feb 26 22:53:28 2017

Tools Copyright (c) 1996-2015 Texas Instruments Incorporated
F2837xD_SysCtrl.asm                                                  PAGE   57

    2892              $C$DW$T$46      .dwtag  DW_TAG_union_type
    2893                      .dwattr $C$DW$T$46, DW_AT_name("CLKSEM_REG")
    2894                      .dwattr $C$DW$T$46, DW_AT_byte_size(0x02)
    2895              $C$DW$168       .dwtag  DW_TAG_member
    2896                      .dwattr $C$DW$168, DW_AT_type(*$C$DW$T$27)
    2897                      .dwattr $C$DW$168, DW_AT_name("all")
    2898                      .dwattr $C$DW$168, DW_AT_TI_symbol_name("_all")
    2899                      .dwattr $C$DW$168, DW_AT_data_member_location[DW_OP_plus_uconst 0x0]
    2900                      .dwattr $C$DW$168, DW_AT_accessibility(DW_ACCESS_public)
    2901              
    2902              $C$DW$169       .dwtag  DW_TAG_member
    2903                      .dwattr $C$DW$169, DW_AT_type(*$C$DW$T$45)
    2904                      .dwattr $C$DW$169, DW_AT_name("bit")
    2905                      .dwattr $C$DW$169, DW_AT_TI_symbol_name("_bit")
    2906                      .dwattr $C$DW$169, DW_AT_data_member_location[DW_OP_plus_uconst 0x0]
    2907                      .dwattr $C$DW$169, DW_AT_accessibility(DW_ACCESS_public)
    2908              
    2909                      .dwendtag $C$DW$T$46
    2910              
    2911              
    2912              $C$DW$T$47      .dwtag  DW_TAG_structure_type
    2913                      .dwattr $C$DW$T$47, DW_AT_name("CLKSRCCTL1_BITS")
    2914                      .dwattr $C$DW$T$47, DW_AT_byte_size(0x02)
    2915              $C$DW$170       .dwtag  DW_TAG_member
    2916                      .dwattr $C$DW$170, DW_AT_type(*$C$DW$T$19)
    2917                      .dwattr $C$DW$170, DW_AT_name("OSCCLKSRCSEL")
    2918                      .dwattr $C$DW$170, DW_AT_TI_symbol_name("_OSCCLKSRCSEL")
    2919                      .dwattr $C$DW$170, DW_AT_bit_offset(0x0e)
    2920                      .dwattr $C$DW$170, DW_AT_bit_size(0x02)
    2921                      .dwattr $C$DW$170, DW_AT_data_member_location[DW_OP_plus_uconst 0x0]
    2922                      .dwattr $C$DW$170, DW_AT_accessibility(DW_ACCESS_public)
    2923              
    2924              $C$DW$171       .dwtag  DW_TAG_member
    2925                      .dwattr $C$DW$171, DW_AT_type(*$C$DW$T$19)
    2926                      .dwattr $C$DW$171, DW_AT_name("rsvd1")
    2927                      .dwattr $C$DW$171, DW_AT_TI_symbol_name("_rsvd1")
    2928                      .dwattr $C$DW$171, DW_AT_bit_offset(0x0d)
    2929                      .dwattr $C$DW$171, DW_AT_bit_size(0x01)
    2930                      .dwattr $C$DW$171, DW_AT_data_member_location[DW_OP_plus_uconst 0x0]
    2931                      .dwattr $C$DW$171, DW_AT_accessibility(DW_ACCESS_public)
    2932              
    2933              $C$DW$172       .dwtag  DW_TAG_member
    2934                      .dwattr $C$DW$172, DW_AT_type(*$C$DW$T$19)
    2935                      .dwattr $C$DW$172, DW_AT_name("INTOSC2OFF")
    2936                      .dwattr $C$DW$172, DW_AT_TI_symbol_name("_INTOSC2OFF")
    2937                      .dwattr $C$DW$172, DW_AT_bit_offset(0x0c)
    2938                      .dwattr $C$DW$172, DW_AT_bit_size(0x01)
    2939                      .dwattr $C$DW$172, DW_AT_data_member_location[DW_OP_plus_uconst 0x0]
    2940                      .dwattr $C$DW$172, DW_AT_accessibility(DW_ACCESS_public)
    2941              
    2942              $C$DW$173       .dwtag  DW_TAG_member
    2943                      .dwattr $C$DW$173, DW_AT_type(*$C$DW$T$19)
    2944                      .dwattr $C$DW$173, DW_AT_name("XTALOFF")
    2945                      .dwattr $C$DW$173, DW_AT_TI_symbol_name("_XTALOFF")
    2946                      .dwattr $C$DW$173, DW_AT_bit_offset(0x0b)
TMS320C2000 Assembler PC v15.12.1 Sun Feb 26 22:53:28 2017

Tools Copyright (c) 1996-2015 Texas Instruments Incorporated
F2837xD_SysCtrl.asm                                                  PAGE   58

    2947                      .dwattr $C$DW$173, DW_AT_bit_size(0x01)
    2948                      .dwattr $C$DW$173, DW_AT_data_member_location[DW_OP_plus_uconst 0x0]
    2949                      .dwattr $C$DW$173, DW_AT_accessibility(DW_ACCESS_public)
    2950              
    2951              $C$DW$174       .dwtag  DW_TAG_member
    2952                      .dwattr $C$DW$174, DW_AT_type(*$C$DW$T$19)
    2953                      .dwattr $C$DW$174, DW_AT_name("WDHALTI")
    2954                      .dwattr $C$DW$174, DW_AT_TI_symbol_name("_WDHALTI")
    2955                      .dwattr $C$DW$174, DW_AT_bit_offset(0x0a)
    2956                      .dwattr $C$DW$174, DW_AT_bit_size(0x01)
    2957                      .dwattr $C$DW$174, DW_AT_data_member_location[DW_OP_plus_uconst 0x0]
    2958                      .dwattr $C$DW$174, DW_AT_accessibility(DW_ACCESS_public)
    2959              
    2960              $C$DW$175       .dwtag  DW_TAG_member
    2961                      .dwattr $C$DW$175, DW_AT_type(*$C$DW$T$19)
    2962                      .dwattr $C$DW$175, DW_AT_name("rsvd2")
    2963                      .dwattr $C$DW$175, DW_AT_TI_symbol_name("_rsvd2")
    2964                      .dwattr $C$DW$175, DW_AT_bit_offset(0x00)
    2965                      .dwattr $C$DW$175, DW_AT_bit_size(0x0a)
    2966                      .dwattr $C$DW$175, DW_AT_data_member_location[DW_OP_plus_uconst 0x0]
    2967                      .dwattr $C$DW$175, DW_AT_accessibility(DW_ACCESS_public)
    2968              
    2969              $C$DW$176       .dwtag  DW_TAG_member
    2970                      .dwattr $C$DW$176, DW_AT_type(*$C$DW$T$19)
    2971                      .dwattr $C$DW$176, DW_AT_name("rsvd3")
    2972                      .dwattr $C$DW$176, DW_AT_TI_symbol_name("_rsvd3")
    2973                      .dwattr $C$DW$176, DW_AT_bit_offset(0x00)
    2974                      .dwattr $C$DW$176, DW_AT_bit_size(0x10)
    2975                      .dwattr $C$DW$176, DW_AT_data_member_location[DW_OP_plus_uconst 0x1]
    2976                      .dwattr $C$DW$176, DW_AT_accessibility(DW_ACCESS_public)
    2977              
    2978                      .dwendtag $C$DW$T$47
    2979              
    2980              
    2981              $C$DW$T$48      .dwtag  DW_TAG_union_type
    2982                      .dwattr $C$DW$T$48, DW_AT_name("CLKSRCCTL1_REG")
    2983                      .dwattr $C$DW$T$48, DW_AT_byte_size(0x02)
    2984              $C$DW$177       .dwtag  DW_TAG_member
    2985                      .dwattr $C$DW$177, DW_AT_type(*$C$DW$T$27)
    2986                      .dwattr $C$DW$177, DW_AT_name("all")
    2987                      .dwattr $C$DW$177, DW_AT_TI_symbol_name("_all")
    2988                      .dwattr $C$DW$177, DW_AT_data_member_location[DW_OP_plus_uconst 0x0]
    2989                      .dwattr $C$DW$177, DW_AT_accessibility(DW_ACCESS_public)
    2990              
    2991              $C$DW$178       .dwtag  DW_TAG_member
    2992                      .dwattr $C$DW$178, DW_AT_type(*$C$DW$T$47)
    2993                      .dwattr $C$DW$178, DW_AT_name("bit")
    2994                      .dwattr $C$DW$178, DW_AT_TI_symbol_name("_bit")
    2995                      .dwattr $C$DW$178, DW_AT_data_member_location[DW_OP_plus_uconst 0x0]
    2996                      .dwattr $C$DW$178, DW_AT_accessibility(DW_ACCESS_public)
    2997              
    2998                      .dwendtag $C$DW$T$48
    2999              
    3000              
    3001              $C$DW$T$49      .dwtag  DW_TAG_structure_type
TMS320C2000 Assembler PC v15.12.1 Sun Feb 26 22:53:28 2017

Tools Copyright (c) 1996-2015 Texas Instruments Incorporated
F2837xD_SysCtrl.asm                                                  PAGE   59

    3002                      .dwattr $C$DW$T$49, DW_AT_name("CLKSRCCTL2_BITS")
    3003                      .dwattr $C$DW$T$49, DW_AT_byte_size(0x02)
    3004              $C$DW$179       .dwtag  DW_TAG_member
    3005                      .dwattr $C$DW$179, DW_AT_type(*$C$DW$T$19)
    3006                      .dwattr $C$DW$179, DW_AT_name("AUXOSCCLKSRCSEL")
    3007                      .dwattr $C$DW$179, DW_AT_TI_symbol_name("_AUXOSCCLKSRCSEL")
    3008                      .dwattr $C$DW$179, DW_AT_bit_offset(0x0e)
    3009                      .dwattr $C$DW$179, DW_AT_bit_size(0x02)
    3010                      .dwattr $C$DW$179, DW_AT_data_member_location[DW_OP_plus_uconst 0x0]
    3011                      .dwattr $C$DW$179, DW_AT_accessibility(DW_ACCESS_public)
    3012              
    3013              $C$DW$180       .dwtag  DW_TAG_member
    3014                      .dwattr $C$DW$180, DW_AT_type(*$C$DW$T$19)
    3015                      .dwattr $C$DW$180, DW_AT_name("CANABCLKSEL")
    3016                      .dwattr $C$DW$180, DW_AT_TI_symbol_name("_CANABCLKSEL")
    3017                      .dwattr $C$DW$180, DW_AT_bit_offset(0x0c)
    3018                      .dwattr $C$DW$180, DW_AT_bit_size(0x02)
    3019                      .dwattr $C$DW$180, DW_AT_data_member_location[DW_OP_plus_uconst 0x0]
    3020                      .dwattr $C$DW$180, DW_AT_accessibility(DW_ACCESS_public)
    3021              
    3022              $C$DW$181       .dwtag  DW_TAG_member
    3023                      .dwattr $C$DW$181, DW_AT_type(*$C$DW$T$19)
    3024                      .dwattr $C$DW$181, DW_AT_name("CANBBCLKSEL")
    3025                      .dwattr $C$DW$181, DW_AT_TI_symbol_name("_CANBBCLKSEL")
    3026                      .dwattr $C$DW$181, DW_AT_bit_offset(0x0a)
    3027                      .dwattr $C$DW$181, DW_AT_bit_size(0x02)
    3028                      .dwattr $C$DW$181, DW_AT_data_member_location[DW_OP_plus_uconst 0x0]
    3029                      .dwattr $C$DW$181, DW_AT_accessibility(DW_ACCESS_public)
    3030              
    3031              $C$DW$182       .dwtag  DW_TAG_member
    3032                      .dwattr $C$DW$182, DW_AT_type(*$C$DW$T$19)
    3033                      .dwattr $C$DW$182, DW_AT_name("rsvd1")
    3034                      .dwattr $C$DW$182, DW_AT_TI_symbol_name("_rsvd1")
    3035                      .dwattr $C$DW$182, DW_AT_bit_offset(0x08)
    3036                      .dwattr $C$DW$182, DW_AT_bit_size(0x02)
    3037                      .dwattr $C$DW$182, DW_AT_data_member_location[DW_OP_plus_uconst 0x0]
    3038                      .dwattr $C$DW$182, DW_AT_accessibility(DW_ACCESS_public)
    3039              
    3040              $C$DW$183       .dwtag  DW_TAG_member
    3041                      .dwattr $C$DW$183, DW_AT_type(*$C$DW$T$19)
    3042                      .dwattr $C$DW$183, DW_AT_name("rsvd2")
    3043                      .dwattr $C$DW$183, DW_AT_TI_symbol_name("_rsvd2")
    3044                      .dwattr $C$DW$183, DW_AT_bit_offset(0x06)
    3045                      .dwattr $C$DW$183, DW_AT_bit_size(0x02)
    3046                      .dwattr $C$DW$183, DW_AT_data_member_location[DW_OP_plus_uconst 0x0]
    3047                      .dwattr $C$DW$183, DW_AT_accessibility(DW_ACCESS_public)
    3048              
    3049              $C$DW$184       .dwtag  DW_TAG_member
    3050                      .dwattr $C$DW$184, DW_AT_type(*$C$DW$T$19)
    3051                      .dwattr $C$DW$184, DW_AT_name("rsvd3")
    3052                      .dwattr $C$DW$184, DW_AT_TI_symbol_name("_rsvd3")
    3053                      .dwattr $C$DW$184, DW_AT_bit_offset(0x00)
    3054                      .dwattr $C$DW$184, DW_AT_bit_size(0x06)
    3055                      .dwattr $C$DW$184, DW_AT_data_member_location[DW_OP_plus_uconst 0x0]
    3056                      .dwattr $C$DW$184, DW_AT_accessibility(DW_ACCESS_public)
TMS320C2000 Assembler PC v15.12.1 Sun Feb 26 22:53:28 2017

Tools Copyright (c) 1996-2015 Texas Instruments Incorporated
F2837xD_SysCtrl.asm                                                  PAGE   60

    3057              
    3058              $C$DW$185       .dwtag  DW_TAG_member
    3059                      .dwattr $C$DW$185, DW_AT_type(*$C$DW$T$19)
    3060                      .dwattr $C$DW$185, DW_AT_name("rsvd4")
    3061                      .dwattr $C$DW$185, DW_AT_TI_symbol_name("_rsvd4")
    3062                      .dwattr $C$DW$185, DW_AT_bit_offset(0x00)
    3063                      .dwattr $C$DW$185, DW_AT_bit_size(0x10)
    3064                      .dwattr $C$DW$185, DW_AT_data_member_location[DW_OP_plus_uconst 0x1]
    3065                      .dwattr $C$DW$185, DW_AT_accessibility(DW_ACCESS_public)
    3066              
    3067                      .dwendtag $C$DW$T$49
    3068              
    3069              
    3070              $C$DW$T$50      .dwtag  DW_TAG_union_type
    3071                      .dwattr $C$DW$T$50, DW_AT_name("CLKSRCCTL2_REG")
    3072                      .dwattr $C$DW$T$50, DW_AT_byte_size(0x02)
    3073              $C$DW$186       .dwtag  DW_TAG_member
    3074                      .dwattr $C$DW$186, DW_AT_type(*$C$DW$T$27)
    3075                      .dwattr $C$DW$186, DW_AT_name("all")
    3076                      .dwattr $C$DW$186, DW_AT_TI_symbol_name("_all")
    3077                      .dwattr $C$DW$186, DW_AT_data_member_location[DW_OP_plus_uconst 0x0]
    3078                      .dwattr $C$DW$186, DW_AT_accessibility(DW_ACCESS_public)
    3079              
    3080              $C$DW$187       .dwtag  DW_TAG_member
    3081                      .dwattr $C$DW$187, DW_AT_type(*$C$DW$T$49)
    3082                      .dwattr $C$DW$187, DW_AT_name("bit")
    3083                      .dwattr $C$DW$187, DW_AT_TI_symbol_name("_bit")
    3084                      .dwattr $C$DW$187, DW_AT_data_member_location[DW_OP_plus_uconst 0x0]
    3085                      .dwattr $C$DW$187, DW_AT_accessibility(DW_ACCESS_public)
    3086              
    3087                      .dwendtag $C$DW$T$50
    3088              
    3089              
    3090              $C$DW$T$51      .dwtag  DW_TAG_structure_type
    3091                      .dwattr $C$DW$T$51, DW_AT_name("CLKSRCCTL3_BITS")
    3092                      .dwattr $C$DW$T$51, DW_AT_byte_size(0x02)
    3093              $C$DW$188       .dwtag  DW_TAG_member
    3094                      .dwattr $C$DW$188, DW_AT_type(*$C$DW$T$19)
    3095                      .dwattr $C$DW$188, DW_AT_name("XCLKOUTSEL")
    3096                      .dwattr $C$DW$188, DW_AT_TI_symbol_name("_XCLKOUTSEL")
    3097                      .dwattr $C$DW$188, DW_AT_bit_offset(0x0d)
    3098                      .dwattr $C$DW$188, DW_AT_bit_size(0x03)
    3099                      .dwattr $C$DW$188, DW_AT_data_member_location[DW_OP_plus_uconst 0x0]
    3100                      .dwattr $C$DW$188, DW_AT_accessibility(DW_ACCESS_public)
    3101              
    3102              $C$DW$189       .dwtag  DW_TAG_member
    3103                      .dwattr $C$DW$189, DW_AT_type(*$C$DW$T$19)
    3104                      .dwattr $C$DW$189, DW_AT_name("rsvd1")
    3105                      .dwattr $C$DW$189, DW_AT_TI_symbol_name("_rsvd1")
    3106                      .dwattr $C$DW$189, DW_AT_bit_offset(0x00)
    3107                      .dwattr $C$DW$189, DW_AT_bit_size(0x0d)
    3108                      .dwattr $C$DW$189, DW_AT_data_member_location[DW_OP_plus_uconst 0x0]
    3109                      .dwattr $C$DW$189, DW_AT_accessibility(DW_ACCESS_public)
    3110              
    3111              $C$DW$190       .dwtag  DW_TAG_member
TMS320C2000 Assembler PC v15.12.1 Sun Feb 26 22:53:28 2017

Tools Copyright (c) 1996-2015 Texas Instruments Incorporated
F2837xD_SysCtrl.asm                                                  PAGE   61

    3112                      .dwattr $C$DW$190, DW_AT_type(*$C$DW$T$19)
    3113                      .dwattr $C$DW$190, DW_AT_name("rsvd2")
    3114                      .dwattr $C$DW$190, DW_AT_TI_symbol_name("_rsvd2")
    3115                      .dwattr $C$DW$190, DW_AT_bit_offset(0x00)
    3116                      .dwattr $C$DW$190, DW_AT_bit_size(0x10)
    3117                      .dwattr $C$DW$190, DW_AT_data_member_location[DW_OP_plus_uconst 0x1]
    3118                      .dwattr $C$DW$190, DW_AT_accessibility(DW_ACCESS_public)
    3119              
    3120                      .dwendtag $C$DW$T$51
    3121              
    3122              
    3123              $C$DW$T$52      .dwtag  DW_TAG_union_type
    3124                      .dwattr $C$DW$T$52, DW_AT_name("CLKSRCCTL3_REG")
    3125                      .dwattr $C$DW$T$52, DW_AT_byte_size(0x02)
    3126              $C$DW$191       .dwtag  DW_TAG_member
    3127                      .dwattr $C$DW$191, DW_AT_type(*$C$DW$T$27)
    3128                      .dwattr $C$DW$191, DW_AT_name("all")
    3129                      .dwattr $C$DW$191, DW_AT_TI_symbol_name("_all")
    3130                      .dwattr $C$DW$191, DW_AT_data_member_location[DW_OP_plus_uconst 0x0]
    3131                      .dwattr $C$DW$191, DW_AT_accessibility(DW_ACCESS_public)
    3132              
    3133              $C$DW$192       .dwtag  DW_TAG_member
    3134                      .dwattr $C$DW$192, DW_AT_type(*$C$DW$T$51)
    3135                      .dwattr $C$DW$192, DW_AT_name("bit")
    3136                      .dwattr $C$DW$192, DW_AT_TI_symbol_name("_bit")
    3137                      .dwattr $C$DW$192, DW_AT_data_member_location[DW_OP_plus_uconst 0x0]
    3138                      .dwattr $C$DW$192, DW_AT_accessibility(DW_ACCESS_public)
    3139              
    3140                      .dwendtag $C$DW$T$52
    3141              
    3142              
    3143              $C$DW$T$54      .dwtag  DW_TAG_structure_type
    3144                      .dwattr $C$DW$T$54, DW_AT_name("CLK_CFG_REGS")
    3145                      .dwattr $C$DW$T$54, DW_AT_byte_size(0x32)
    3146              $C$DW$193       .dwtag  DW_TAG_member
    3147                      .dwattr $C$DW$193, DW_AT_type(*$C$DW$T$46)
    3148                      .dwattr $C$DW$193, DW_AT_name("CLKSEM")
